---
triple:          'arm64-apple-darwin'
binary-path:     search_main
relocations:
  - { offset: 0x3B, size: 0x8, addend: 0x0, symName: _.str, symObjAddr: 0x3780, symBinAddr: 0x10000C160, symSize: 0x0 }
  - { offset: 0x42A3, size: 0x8, addend: 0x0, symName: __ZNSt3__118__constexpr_strlenB8ne190107IcEEmPKT_, symObjAddr: 0x11BC, symBinAddr: 0x100003120, symSize: 0x0 }
  - { offset: 0x42D8, size: 0x8, addend: 0x0, symName: __ZNSt3__112__to_addressB8ne190107IKcEEPT_S3_, symObjAddr: 0x1CB0, symBinAddr: 0x100003C14, symSize: 0x0 }
  - { offset: 0x5358, size: 0x8, addend: 0x0, symName: __Z10cleanTokenRKNSt3__112basic_stringIcNS_11char_traitsIcEENS_9allocatorIcEEEE, symObjAddr: 0x8, symBinAddr: 0x100001F6C, symSize: 0x0 }
  - { offset: 0x53E6, size: 0x8, addend: 0x0, symName: __ZNSt3__112basic_stringIcNS_11char_traitsIcEENS_9allocatorIcEEEC1B8ne190107ILi0EEEPKc, symObjAddr: 0x784, symBinAddr: 0x1000026E8, symSize: 0x6C }
  - { offset: 0x5423, size: 0x8, addend: 0x0, symName: __ZNKSt3__112basic_stringIcNS_11char_traitsIcEENS_9allocatorIcEEE6lengthB8ne190107Ev, symObjAddr: 0x7F0, symBinAddr: 0x100002754, symSize: 0x5C }
  - { offset: 0x5447, size: 0x8, addend: 0x0, symName: __Z7isalphai, symObjAddr: 0x854, symBinAddr: 0x1000027B8, symSize: 0x0 }
  - { offset: 0x5473, size: 0x8, addend: 0x0, symName: __ZNKSt3__112basic_stringIcNS_11char_traitsIcEENS_9allocatorIcEEEixB8ne190107Em, symObjAddr: 0x87C, symBinAddr: 0x1000027E0, symSize: 0x13C }
  - { offset: 0x54A6, size: 0x8, addend: 0x0, symName: __Z7toloweri, symObjAddr: 0x9C0, symBinAddr: 0x100002924, symSize: 0x0 }
  - { offset: 0x54D4, size: 0x8, addend: 0x0, symName: __ZNSt3__112basic_stringIcNS_11char_traitsIcEENS_9allocatorIcEEEpLB8ne190107Ec, symObjAddr: 0x9E4, symBinAddr: 0x100002948, symSize: 0x9C }
  - { offset: 0x5507, size: 0x8, addend: 0x0, symName: __Z7isdigiti, symObjAddr: 0xA88, symBinAddr: 0x1000029EC, symSize: 0x0 }
  - { offset: 0x5533, size: 0x8, addend: 0x0, symName: __ZNSt3__112basic_stringIcNS_11char_traitsIcEENS_9allocatorIcEEEC1B8ne190107EOS5_, symObjAddr: 0xAB0, symBinAddr: 0x100002A14, symSize: 0x6C }
  - { offset: 0x556A, size: 0x8, addend: 0x0, symName: __Z12gatherTokensRKNSt3__112basic_stringIcNS_11char_traitsIcEENS_9allocatorIcEEEE, symObjAddr: 0xB24, symBinAddr: 0x100002A88, symSize: 0x0 }
  - { offset: 0x55E6, size: 0x8, addend: 0x0, symName: __ZNSt3__13setINS_12basic_stringIcNS_11char_traitsIcEENS_9allocatorIcEEEENS_4lessIS6_EENS4_IS6_EEEC1B8ne190107Ev, symObjAddr: 0xB80, symBinAddr: 0x100002AE4, symSize: 0x64 }
  - { offset: 0x560E, size: 0x8, addend: 0x0, symName: __Z10buildIndexRKNSt3__112basic_stringIcNS_11char_traitsIcEENS_9allocatorIcEEEERNS_3mapIS5_NS_3setIS5_NS_4lessIS5_EENS3_IS5_EEEESB_NS3_INS_4pairIS6_SD_EEEEEE, symObjAddr: 0xBEC, symBinAddr: 0x100002B50, symSize: 0x0 }
  - { offset: 0x5648, size: 0x8, addend: 0x0, symName: __Z16findQueryMatchesRKNSt3__13mapINS_12basic_stringIcNS_11char_traitsIcEENS_9allocatorIcEEEENS_3setIS6_NS_4lessIS6_EENS4_IS6_EEEES9_NS4_INS_4pairIKS6_SB_EEEEEERSD_, symObjAddr: 0xC0C, symBinAddr: 0x100002B70, symSize: 0x0 }
  - { offset: 0x5682, size: 0x8, addend: 0x0, symName: __Z12searchEngineRKNSt3__112basic_stringIcNS_11char_traitsIcEENS_9allocatorIcEEEE, symObjAddr: 0xC74, symBinAddr: 0x100002BD8, symSize: 0x0 }
  - { offset: 0x56AA, size: 0x8, addend: 0x0, symName: __ZNSt3__112basic_stringIcNS_11char_traitsIcEENS_9allocatorIcEEEC2B8ne190107ILi0EEEPKc, symObjAddr: 0xC84, symBinAddr: 0x100002BE8, symSize: 0x244 }
  - { offset: 0x56EE, size: 0x8, addend: 0x0, symName: __ZNSt3__117__compressed_pairINS_12basic_stringIcNS_11char_traitsIcEENS_9allocatorIcEEE5__repES5_EC1B8ne190107INS_18__default_init_tagESA_EEOT_OT0_, symObjAddr: 0xEC8, symBinAddr: 0x100002E2C, symSize: 0x74 }
  - { offset: 0x5744, size: 0x8, addend: 0x0, symName: __ZNSt3__111char_traitsIcE6lengthB8ne190107EPKc, symObjAddr: 0xF44, symBinAddr: 0x100002EA8, symSize: 0x0 }
  - { offset: 0x5766, size: 0x8, addend: 0x0, symName: __ZNSt3__117__compressed_pairINS_12basic_stringIcNS_11char_traitsIcEENS_9allocatorIcEEE5__repES5_EC2B8ne190107INS_18__default_init_tagESA_EEOT_OT0_, symObjAddr: 0xF68, symBinAddr: 0x100002ECC, symSize: 0xC8 }
  - { offset: 0x57BC, size: 0x8, addend: 0x0, symName: __ZNSt3__122__compressed_pair_elemINS_12basic_stringIcNS_11char_traitsIcEENS_9allocatorIcEEE5__repELi0ELb0EEC2B8ne190107ENS_18__default_init_tagE, symObjAddr: 0x1030, symBinAddr: 0x100002F94, symSize: 0x5C }
  - { offset: 0x57EE, size: 0x8, addend: 0x0, symName: __ZNSt3__122__compressed_pair_elemINS_9allocatorIcEELi1ELb1EEC2B8ne190107ENS_18__default_init_tagE, symObjAddr: 0x108C, symBinAddr: 0x100002FF0, symSize: 0x70 }
  - { offset: 0x5820, size: 0x8, addend: 0x0, symName: __ZNSt3__19allocatorIcEC2B8ne190107Ev, symObjAddr: 0x10FC, symBinAddr: 0x100003060, symSize: 0x70 }
  - { offset: 0x5848, size: 0x8, addend: 0x0, symName: __ZNSt3__116__non_trivial_ifILb1ENS_9allocatorIcEEEC2B8ne190107Ev, symObjAddr: 0x116C, symBinAddr: 0x1000030D0, symSize: 0x48 }
  - { offset: 0x5870, size: 0x8, addend: 0x0, symName: __ZNKSt3__112basic_stringIcNS_11char_traitsIcEENS_9allocatorIcEEE4sizeB8ne190107Ev, symObjAddr: 0x11E0, symBinAddr: 0x100003144, symSize: 0x88 }
  - { offset: 0x5894, size: 0x8, addend: 0x0, symName: __ZNKSt3__112basic_stringIcNS_11char_traitsIcEENS_9allocatorIcEEE9__is_longB8ne190107Ev, symObjAddr: 0x1268, symBinAddr: 0x1000031CC, symSize: 0x178 }
  - { offset: 0x58B8, size: 0x8, addend: 0x0, symName: __ZNKSt3__112basic_stringIcNS_11char_traitsIcEENS_9allocatorIcEEE15__get_long_sizeB8ne190107Ev, symObjAddr: 0x13E0, symBinAddr: 0x100003344, symSize: 0x18C }
  - { offset: 0x58DC, size: 0x8, addend: 0x0, symName: __ZNKSt3__112basic_stringIcNS_11char_traitsIcEENS_9allocatorIcEEE16__get_short_sizeB8ne190107Ev, symObjAddr: 0x156C, symBinAddr: 0x1000034D0, symSize: 0x178 }
  - { offset: 0x5900, size: 0x8, addend: 0x0, symName: __ZNKSt3__117__compressed_pairINS_12basic_stringIcNS_11char_traitsIcEENS_9allocatorIcEEE5__repES5_E5firstB8ne190107Ev, symObjAddr: 0x16E4, symBinAddr: 0x100003648, symSize: 0xEC }
  - { offset: 0x5924, size: 0x8, addend: 0x0, symName: __ZNKSt3__122__compressed_pair_elemINS_12basic_stringIcNS_11char_traitsIcEENS_9allocatorIcEEE5__repELi0ELb0EE5__getB8ne190107Ev, symObjAddr: 0x17D0, symBinAddr: 0x100003734, symSize: 0x8C }
  - { offset: 0x5948, size: 0x8, addend: 0x0, symName: __Z8__istypeim, symObjAddr: 0x1864, symBinAddr: 0x1000037C8, symSize: 0x0 }
  - { offset: 0x5982, size: 0x8, addend: 0x0, symName: __Z7isasciii, symObjAddr: 0x1A70, symBinAddr: 0x1000039D4, symSize: 0x0 }
  - { offset: 0x59AE, size: 0x8, addend: 0x0, symName: __ZNSt3__112basic_stringIcNS_11char_traitsIcEENS_9allocatorIcEEE13__fits_in_ssoB8ne190107Em, symObjAddr: 0x1A98, symBinAddr: 0x1000039FC, symSize: 0x0 }
  - { offset: 0x59D1, size: 0x8, addend: 0x0, symName: __ZNKSt3__112basic_stringIcNS_11char_traitsIcEENS_9allocatorIcEEE18__get_long_pointerB8ne190107Ev, symObjAddr: 0x1AC4, symBinAddr: 0x100003A28, symSize: 0x184 }
  - { offset: 0x59F5, size: 0x8, addend: 0x0, symName: __ZNKSt3__112basic_stringIcNS_11char_traitsIcEENS_9allocatorIcEEE4dataB8ne190107Ev, symObjAddr: 0x1C48, symBinAddr: 0x100003BAC, symSize: 0x60 }
  - { offset: 0x5A19, size: 0x8, addend: 0x0, symName: __ZNKSt3__112basic_stringIcNS_11char_traitsIcEENS_9allocatorIcEEE13__get_pointerB8ne190107Ev, symObjAddr: 0x1CC4, symBinAddr: 0x100003C28, symSize: 0x88 }
  - { offset: 0x5A3D, size: 0x8, addend: 0x0, symName: __ZNKSt3__112basic_stringIcNS_11char_traitsIcEENS_9allocatorIcEEE19__get_short_pointerB8ne190107Ev, symObjAddr: 0x1D4C, symBinAddr: 0x100003CB0, symSize: 0x140 }
  - { offset: 0x5A61, size: 0x8, addend: 0x0, symName: __ZNSt3__114pointer_traitsIPKcE10pointer_toB8ne190107ERS1_, symObjAddr: 0x1E94, symBinAddr: 0x100003DF8, symSize: 0x0 }
  - { offset: 0x5A83, size: 0x8, addend: 0x0, symName: __Z9__isctypeim, symObjAddr: 0x1EB0, symBinAddr: 0x100003E14, symSize: 0x0 }
  - { offset: 0x5ABD, size: 0x8, addend: 0x0, symName: __ZNSt3__112basic_stringIcNS_11char_traitsIcEENS_9allocatorIcEEEC2B8ne190107EOS5_, symObjAddr: 0x20D8, symBinAddr: 0x10000403C, symSize: 0x334 }
  - { offset: 0x5B24, size: 0x8, addend: 0x0, symName: __ZZNSt3__112basic_stringIcNS_11char_traitsIcEENS_9allocatorIcEEEC1B8ne190107EOS5_ENKUlRS5_E_clES7_, symObjAddr: 0x240C, symBinAddr: 0x100004370, symSize: 0xE8 }
  - { offset: 0x5B5B, size: 0x8, addend: 0x0, symName: __ZNSt3__117__compressed_pairINS_12basic_stringIcNS_11char_traitsIcEENS_9allocatorIcEEE5__repES5_E5firstB8ne190107Ev, symObjAddr: 0x24F4, symBinAddr: 0x100004458, symSize: 0xEC }
  - { offset: 0x5B7F, size: 0x8, addend: 0x0, symName: __ZNKSt3__112basic_stringIcNS_11char_traitsIcEENS_9allocatorIcEEE14__annotate_newB8ne190107Em, symObjAddr: 0x25E0, symBinAddr: 0x100004544, symSize: 0x58 }
  - { offset: 0x5BB2, size: 0x8, addend: 0x0, symName: __ZNKSt3__112basic_stringIcNS_11char_traitsIcEENS_9allocatorIcEEE17__annotate_deleteB8ne190107Ev, symObjAddr: 0x2638, symBinAddr: 0x10000459C, symSize: 0x54 }
  - { offset: 0x5BD6, size: 0x8, addend: 0x0, symName: __ZNSt3__122__compressed_pair_elemINS_12basic_stringIcNS_11char_traitsIcEENS_9allocatorIcEEE5__repELi0ELb0EE5__getB8ne190107Ev, symObjAddr: 0x268C, symBinAddr: 0x1000045F0, symSize: 0x8C }
  - { offset: 0x5BFA, size: 0x8, addend: 0x0, symName: __ZNSt3__13setINS_12basic_stringIcNS_11char_traitsIcEENS_9allocatorIcEEEENS_4lessIS6_EENS4_IS6_EEEC2B8ne190107Ev, symObjAddr: 0x2718, symBinAddr: 0x10000467C, symSize: 0x204 }
  - { offset: 0x5C23, size: 0x8, addend: 0x0, symName: __ZNSt3__16__treeINS_12basic_stringIcNS_11char_traitsIcEENS_9allocatorIcEEEENS_4lessIS6_EENS4_IS6_EEEC1ERKS8_, symObjAddr: 0x291C, symBinAddr: 0x100004880, symSize: 0x6C }
  - { offset: 0x5C5C, size: 0x8, addend: 0x0, symName: __ZNSt3__16__treeINS_12basic_stringIcNS_11char_traitsIcEENS_9allocatorIcEEEENS_4lessIS6_EENS4_IS6_EEEC2ERKS8_, symObjAddr: 0x2988, symBinAddr: 0x1000048EC, symSize: 0x2F0 }
  - { offset: 0x5C97, size: 0x8, addend: 0x0, symName: __ZNSt3__117__compressed_pairINS_15__tree_end_nodeIPNS_16__tree_node_baseIPvEEEENS_9allocatorINS_11__tree_nodeINS_12basic_stringIcNS_11char_traitsIcEENS7_IcEEEES3_EEEEEC1B8ne190107ILb1ETnNS_9enable_ifIXaasr16__dependent_typeINS_24is_default_constructibleIS6_EEXT_EEE5valuesr16__dependent_typeINSJ_ISF_EEXT_EEE5valueEiE4typeELi0EEEv, symObjAddr: 0x2C78, symBinAddr: 0x100004BDC, symSize: 0x64 }
  - { offset: 0x5CD4, size: 0x8, addend: 0x0, symName: __ZNSt3__117__compressed_pairImNS_4lessINS_12basic_stringIcNS_11char_traitsIcEENS_9allocatorIcEEEEEEEC1B8ne190107IiRKS8_EEOT_OT0_, symObjAddr: 0x2CDC, symBinAddr: 0x100004C40, symSize: 0x74 }
  - { offset: 0x5D2A, size: 0x8, addend: 0x0, symName: __ZNSt3__16__treeINS_12basic_stringIcNS_11char_traitsIcEENS_9allocatorIcEEEENS_4lessIS6_EENS4_IS6_EEE10__end_nodeB8ne190107Ev, symObjAddr: 0x2D50, symBinAddr: 0x100004CB4, symSize: 0xDC }
  - { offset: 0x5D4E, size: 0x8, addend: 0x0, symName: __ZNSt3__16__treeINS_12basic_stringIcNS_11char_traitsIcEENS_9allocatorIcEEEENS_4lessIS6_EENS4_IS6_EEE12__begin_nodeB8ne190107Ev, symObjAddr: 0x2E2C, symBinAddr: 0x100004D90, symSize: 0x8C }
  - { offset: 0x5D72, size: 0x8, addend: 0x0, symName: __ZNSt3__117__compressed_pairINS_15__tree_end_nodeIPNS_16__tree_node_baseIPvEEEENS_9allocatorINS_11__tree_nodeINS_12basic_stringIcNS_11char_traitsIcEENS7_IcEEEES3_EEEEEC2B8ne190107ILb1ETnNS_9enable_ifIXaasr16__dependent_typeINS_24is_default_constructibleIS6_EEXT_EEE5valuesr16__dependent_typeINSJ_ISF_EEXT_EEE5valueEiE4typeELi0EEEv, symObjAddr: 0x2EB8, symBinAddr: 0x100004E1C, symSize: 0xC0 }
  - { offset: 0x5DAA, size: 0x8, addend: 0x0, symName: __ZNSt3__122__compressed_pair_elemINS_15__tree_end_nodeIPNS_16__tree_node_baseIPvEEEELi0ELb0EEC2B8ne190107ENS_16__value_init_tagE, symObjAddr: 0x2F78, symBinAddr: 0x100004EDC, symSize: 0x64 }
  - { offset: 0x5DDC, size: 0x8, addend: 0x0, symName: __ZNSt3__122__compressed_pair_elemINS_9allocatorINS_11__tree_nodeINS_12basic_stringIcNS_11char_traitsIcEENS1_IcEEEEPvEEEELi1ELb1EEC2B8ne190107ENS_16__value_init_tagE, symObjAddr: 0x2FDC, symBinAddr: 0x100004F40, symSize: 0x70 }
  - { offset: 0x5E0E, size: 0x8, addend: 0x0, symName: __ZNSt3__115__tree_end_nodeIPNS_16__tree_node_baseIPvEEEC1B8ne190107Ev, symObjAddr: 0x304C, symBinAddr: 0x100004FB0, symSize: 0x64 }
  - { offset: 0x5E36, size: 0x8, addend: 0x0, symName: __ZNSt3__115__tree_end_nodeIPNS_16__tree_node_baseIPvEEEC2B8ne190107Ev, symObjAddr: 0x30B0, symBinAddr: 0x100005014, symSize: 0xA8 }
  - { offset: 0x5E5E, size: 0x8, addend: 0x0, symName: __ZNSt3__19allocatorINS_11__tree_nodeINS_12basic_stringIcNS_11char_traitsIcEENS0_IcEEEEPvEEEC2B8ne190107Ev, symObjAddr: 0x3158, symBinAddr: 0x1000050BC, symSize: 0x70 }
  - { offset: 0x5E86, size: 0x8, addend: 0x0, symName: __ZNSt3__116__non_trivial_ifILb1ENS_9allocatorINS_11__tree_nodeINS_12basic_stringIcNS_11char_traitsIcEENS1_IcEEEEPvEEEEEC2B8ne190107Ev, symObjAddr: 0x31C8, symBinAddr: 0x10000512C, symSize: 0x48 }
  - { offset: 0x5EAE, size: 0x8, addend: 0x0, symName: __ZNSt3__117__compressed_pairImNS_4lessINS_12basic_stringIcNS_11char_traitsIcEENS_9allocatorIcEEEEEEEC2B8ne190107IiRKS8_EEOT_OT0_, symObjAddr: 0x3210, symBinAddr: 0x100005174, symSize: 0x12C }
  - { offset: 0x5F04, size: 0x8, addend: 0x0, symName: __ZNSt3__122__compressed_pair_elemImLi0ELb0EEC2B8ne190107IiTnNS_9enable_ifIXntsr7is_sameIS1_u7__decayIT_EEE5valueEiE4typeELi0EEEOS4_, symObjAddr: 0x333C, symBinAddr: 0x1000052A0, symSize: 0x148 }
  - { offset: 0x5F49, size: 0x8, addend: 0x0, symName: __ZNSt3__122__compressed_pair_elemINS_4lessINS_12basic_stringIcNS_11char_traitsIcEENS_9allocatorIcEEEEEELi1ELb1EEC2B8ne190107IRKS8_TnNS_9enable_ifIXntsr7is_sameIS9_u7__decayIT_EEE5valueEiE4typeELi0EEEOSE_, symObjAddr: 0x3484, symBinAddr: 0x1000053E8, symSize: 0x4C }
  - { offset: 0x5F8E, size: 0x8, addend: 0x0, symName: __ZNSt3__114pointer_traitsIPNS_15__tree_end_nodeIPNS_16__tree_node_baseIPvEEEEE10pointer_toB8ne190107ERS6_, symObjAddr: 0x34D8, symBinAddr: 0x10000543C, symSize: 0x0 }
  - { offset: 0x5FB0, size: 0x8, addend: 0x0, symName: __ZNSt3__117__compressed_pairINS_15__tree_end_nodeIPNS_16__tree_node_baseIPvEEEENS_9allocatorINS_11__tree_nodeINS_12basic_stringIcNS_11char_traitsIcEENS7_IcEEEES3_EEEEE5firstB8ne190107Ev, symObjAddr: 0x34EC, symBinAddr: 0x100005450, symSize: 0xEC }
  - { offset: 0x5FD4, size: 0x8, addend: 0x0, symName: __ZNSt3__122__compressed_pair_elemINS_15__tree_end_nodeIPNS_16__tree_node_baseIPvEEEELi0ELb0EE5__getB8ne190107Ev, symObjAddr: 0x35D8, symBinAddr: 0x10000553C, symSize: 0x8C }
  - { offset: 0x82BA, size: 0x8, addend: 0x0, symName: _.str, symObjAddr: 0x7300, symBinAddr: 0x10000E0C0, symSize: 0x0 }
  - { offset: 0xB0BE, size: 0x8, addend: 0x0, symName: __ZNSt3__124__put_character_sequenceB8ne190107IcNS_11char_traitsIcEEEERNS_13basic_ostreamIT_T0_EES7_PKS4_m, symObjAddr: 0xC34, symBinAddr: 0x1000060FC, symSize: 0x0 }
  - { offset: 0xC1B3, size: 0x8, addend: 0x0, symName: __ZNSt3__1lsB8ne190107INS_11char_traitsIcEEEERNS_13basic_ostreamIcT_EES6_PKc, symObjAddr: 0x350, symBinAddr: 0x1000059A8, symSize: 0x0 }
  - { offset: 0xC1F9, size: 0x8, addend: 0x0, symName: __ZNSt3__17getlineB8ne190107IcNS_11char_traitsIcEENS_9allocatorIcEEEERNS_13basic_istreamIT_T0_EES9_RNS_12basic_stringIS6_S7_T1_EE, symObjAddr: 0x408, symBinAddr: 0x100005A60, symSize: 0x0 }
  - { offset: 0xC251, size: 0x8, addend: 0x0, symName: __ZNSt3__116__pad_and_outputB8ne190107IcNS_11char_traitsIcEEEENS_19ostreambuf_iteratorIT_T0_EES6_PKS4_S8_S8_RNS_8ios_baseES4_, symObjAddr: 0x1B14, symBinAddr: 0x100006FDC, symSize: 0x0 }
  - { offset: 0xC32B, size: 0x8, addend: 0x0, symName: __ZNSt3__112__to_addressB8ne190107IcEEPT_S2_, symObjAddr: 0x3200, symBinAddr: 0x100008530, symSize: 0x0 }
  - { offset: 0xC360, size: 0x8, addend: 0x0, symName: __ZNSt3__19use_facetB8ne190107INS_5ctypeIcEEEERKT_RKNS_6localeE, symObjAddr: 0x45AC, symBinAddr: 0x100009474, symSize: 0x0 }
  - { offset: 0xC82D, size: 0x8, addend: 0x0, symName: __ZNSt3__17getlineB8ne190107IcNS_11char_traitsIcEENS_9allocatorIcEEEERNS_13basic_istreamIT_T0_EES9_RNS_12basic_stringIS6_S7_T1_EES6_, symObjAddr: 0x4A24, symBinAddr: 0x1000098EC, symSize: 0x0 }
  - { offset: 0xDF47, size: 0x8, addend: 0x0, symName: _main, symObjAddr: 0x8, symBinAddr: 0x100005660, symSize: 0x0 }
  - { offset: 0xDF73, size: 0x8, addend: 0x0, symName: __ZNSt3__112basic_stringIcNS_11char_traitsIcEENS_9allocatorIcEEEC1B8ne190107Ev, symObjAddr: 0x2E4, symBinAddr: 0x10000593C, symSize: 0x64 }
  - { offset: 0xDF9B, size: 0x8, addend: 0x0, symName: __ZNSt3__112basic_stringIcNS_11char_traitsIcEENS_9allocatorIcEEEC2B8ne190107Ev, symObjAddr: 0x6B4, symBinAddr: 0x100005D0C, symSize: 0x240 }
  - { offset: 0xDFCE, size: 0x8, addend: 0x0, symName: __ZNSt3__117__compressed_pairINS_12basic_stringIcNS_11char_traitsIcEENS_9allocatorIcEEE5__repES5_EC1B8ne190107INS_16__value_init_tagENS_18__default_init_tagEEEOT_OT0_, symObjAddr: 0x8F4, symBinAddr: 0x100005F4C, symSize: 0x74 }
  - { offset: 0xE024, size: 0x8, addend: 0x0, symName: __ZNSt3__117__compressed_pairINS_12basic_stringIcNS_11char_traitsIcEENS_9allocatorIcEEE5__repES5_EC2B8ne190107INS_16__value_init_tagENS_18__default_init_tagEEEOT_OT0_, symObjAddr: 0x9D0, symBinAddr: 0x100005FC0, symSize: 0xC8 }
  - { offset: 0xE07A, size: 0x8, addend: 0x0, symName: __ZNSt3__122__compressed_pair_elemINS_12basic_stringIcNS_11char_traitsIcEENS_9allocatorIcEEE5__repELi0ELb0EEC2B8ne190107ENS_16__value_init_tagE, symObjAddr: 0xA98, symBinAddr: 0x100006088, symSize: 0x6C }
  - { offset: 0xE0CA, size: 0x8, addend: 0x0, symName: __ZNKSt3__113basic_ostreamIcNS_11char_traitsIcEEE6sentrycvbB8ne190107Ev, symObjAddr: 0x1A24, symBinAddr: 0x100006EEC, symSize: 0xE8 }
  - { offset: 0xE0EE, size: 0x8, addend: 0x0, symName: __ZNSt3__119ostreambuf_iteratorIcNS_11char_traitsIcEEEC1B8ne190107ERNS_13basic_ostreamIcS2_EE, symObjAddr: 0x2364, symBinAddr: 0x10000782C, symSize: 0x6C }
  - { offset: 0xE125, size: 0x8, addend: 0x0, symName: __ZNKSt3__18ios_base5flagsB8ne190107Ev, symObjAddr: 0x23D0, symBinAddr: 0x100007898, symSize: 0x130 }
  - { offset: 0xE14B, size: 0x8, addend: 0x0, symName: __ZNKSt3__19basic_iosIcNS_11char_traitsIcEEE4fillB8ne190107Ev, symObjAddr: 0x2500, symBinAddr: 0x1000079C8, symSize: 0x288 }
  - { offset: 0xE16F, size: 0x8, addend: 0x0, symName: __ZNKSt3__119ostreambuf_iteratorIcNS_11char_traitsIcEEE6failedB8ne190107Ev, symObjAddr: 0x2788, symBinAddr: 0x100007C50, symSize: 0xA4 }
  - { offset: 0xE193, size: 0x8, addend: 0x0, symName: __ZNSt3__19basic_iosIcNS_11char_traitsIcEEE8setstateB8ne190107Ej, symObjAddr: 0x282C, symBinAddr: 0x100007CF4, symSize: 0x100 }
  - { offset: 0xE1C7, size: 0x8, addend: 0x0, symName: __ZNKSt3__18ios_base5widthB8ne190107Ev, symObjAddr: 0x292C, symBinAddr: 0x100007DF4, symSize: 0x10C }
  - { offset: 0xE1ED, size: 0x8, addend: 0x0, symName: __ZNSt3__115basic_streambufIcNS_11char_traitsIcEEE5sputnB8ne190107EPKcl, symObjAddr: 0x2A38, symBinAddr: 0x100007F00, symSize: 0x164 }
  - { offset: 0xE22D, size: 0x8, addend: 0x0, symName: __ZNSt3__112basic_stringIcNS_11char_traitsIcEENS_9allocatorIcEEEC1B8ne190107Emc, symObjAddr: 0x2B9C, symBinAddr: 0x100008064, symSize: 0x74 }
  - { offset: 0xE273, size: 0x8, addend: 0x0, symName: __ZNSt3__112basic_stringIcNS_11char_traitsIcEENS_9allocatorIcEEE4dataB8ne190107Ev, symObjAddr: 0x2C10, symBinAddr: 0x1000080D8, symSize: 0x60 }
  - { offset: 0xE298, size: 0x8, addend: 0x0, symName: __ZNSt3__18ios_base5widthB8ne190107El, symObjAddr: 0x2C70, symBinAddr: 0x100008138, symSize: 0x1B8 }
  - { offset: 0xE2DC, size: 0x8, addend: 0x0, symName: __ZNSt3__112basic_stringIcNS_11char_traitsIcEENS_9allocatorIcEEEC2B8ne190107Emc, symObjAddr: 0x2E28, symBinAddr: 0x1000082F0, symSize: 0x238 }
  - { offset: 0xE325, size: 0x8, addend: 0x0, symName: __ZNSt3__112basic_stringIcNS_11char_traitsIcEENS_9allocatorIcEEE13__get_pointerB8ne190107Ev, symObjAddr: 0x3214, symBinAddr: 0x100008544, symSize: 0x88 }
  - { offset: 0xE349, size: 0x8, addend: 0x0, symName: __ZNSt3__112basic_stringIcNS_11char_traitsIcEENS_9allocatorIcEEE18__get_long_pointerB8ne190107Ev, symObjAddr: 0x3414, symBinAddr: 0x1000085CC, symSize: 0x184 }
  - { offset: 0xE36D, size: 0x8, addend: 0x0, symName: __ZNSt3__112basic_stringIcNS_11char_traitsIcEENS_9allocatorIcEEE19__get_short_pointerB8ne190107Ev, symObjAddr: 0x3598, symBinAddr: 0x100008750, symSize: 0x140 }
  - { offset: 0xE391, size: 0x8, addend: 0x0, symName: __ZNSt3__114pointer_traitsIPcE10pointer_toB8ne190107ERc, symObjAddr: 0x39D0, symBinAddr: 0x100008898, symSize: 0x0 }
  - { offset: 0xE3B3, size: 0x8, addend: 0x0, symName: __ZNSt3__119ostreambuf_iteratorIcNS_11char_traitsIcEEEC2B8ne190107ERNS_13basic_ostreamIcS2_EE, symObjAddr: 0x39E4, symBinAddr: 0x1000088AC, symSize: 0x288 }
  - { offset: 0xE3E9, size: 0x8, addend: 0x0, symName: __ZNKSt3__19basic_iosIcNS_11char_traitsIcEEE5rdbufB8ne190107Ev, symObjAddr: 0x3C6C, symBinAddr: 0x100008B34, symSize: 0xF8 }
  - { offset: 0xE40D, size: 0x8, addend: 0x0, symName: __ZNKSt3__18ios_base5rdbufB8ne190107Ev, symObjAddr: 0x3D64, symBinAddr: 0x100008C2C, symSize: 0x10C }
  - { offset: 0xE431, size: 0x8, addend: 0x0, symName: __ZNKSt3__118_SentinelValueFillINS_11char_traitsIcEEE8__is_setB8ne190107Ev, symObjAddr: 0x3E70, symBinAddr: 0x100008D38, symSize: 0x108 }
  - { offset: 0xE455, size: 0x8, addend: 0x0, symName: __ZNKSt3__19basic_iosIcNS_11char_traitsIcEEE5widenB8ne190107Ec, symObjAddr: 0x3F78, symBinAddr: 0x100008E40, symSize: 0x404 }
  - { offset: 0xE48A, size: 0x8, addend: 0x0, symName: __ZNSt3__118_SentinelValueFillINS_11char_traitsIcEEEaSB8ne190107Ei, symObjAddr: 0x437C, symBinAddr: 0x100009244, symSize: 0x124 }
  - { offset: 0xE4BD, size: 0x8, addend: 0x0, symName: __ZNKSt3__118_SentinelValueFillINS_11char_traitsIcEEE5__getB8ne190107Ev, symObjAddr: 0x44A0, symBinAddr: 0x100009368, symSize: 0xF4 }
  - { offset: 0xE4E2, size: 0x8, addend: 0x0, symName: __ZNSt3__111char_traitsIcE3eofB8ne190107Ev, symObjAddr: 0x459C, symBinAddr: 0x100009464, symSize: 0x0 }
  - { offset: 0xE52C, size: 0x8, addend: 0x0, symName: __ZNKSt3__15ctypeIcE5widenB8ne190107Ec, symObjAddr: 0x46F8, symBinAddr: 0x1000095C0, symSize: 0x154 }
  - { offset: 0xE560, size: 0x8, addend: 0x0, symName: __ZNSt3__18ios_base8setstateB8ne190107Ej, symObjAddr: 0x484C, symBinAddr: 0x100009714, symSize: 0x1A4 }
  - { offset: 0xE627, size: 0x8, addend: 0x0, symName: __ZNKSt3__113basic_istreamIcNS_11char_traitsIcEEE6sentrycvbB8ne190107Ev, symObjAddr: 0x56F0, symBinAddr: 0x10000A5B8, symSize: 0xCC }
  - { offset: 0xE64B, size: 0x8, addend: 0x0, symName: __ZNSt3__112basic_stringIcNS_11char_traitsIcEENS_9allocatorIcEEE5clearB8ne190107Ev, symObjAddr: 0x57BC, symBinAddr: 0x10000A684, symSize: 0x2CC }
  - { offset: 0xE680, size: 0x8, addend: 0x0, symName: __ZNSt3__115basic_streambufIcNS_11char_traitsIcEEE6sbumpcB8ne190107Ev, symObjAddr: 0x5A88, symBinAddr: 0x10000A950, symSize: 0x42C }
  - { offset: 0xE6A4, size: 0x8, addend: 0x0, symName: __ZNSt3__111char_traitsIcE11eq_int_typeB8ne190107Eii, symObjAddr: 0x5EBC, symBinAddr: 0x10000AD84, symSize: 0x0 }
  - { offset: 0xE6D4, size: 0x8, addend: 0x0, symName: __ZNSt3__111char_traitsIcE12to_char_typeB8ne190107Ei, symObjAddr: 0x5EE8, symBinAddr: 0x10000ADB0, symSize: 0x0 }
  - { offset: 0xE6F6, size: 0x8, addend: 0x0, symName: __ZNSt3__111char_traitsIcE2eqEcc, symObjAddr: 0x5F08, symBinAddr: 0x10000ADD0, symSize: 0x0 }
  - { offset: 0xE726, size: 0x8, addend: 0x0, symName: __ZNKSt3__112basic_stringIcNS_11char_traitsIcEENS_9allocatorIcEEE8max_sizeB8ne190107Ev, symObjAddr: 0x5FB4, symBinAddr: 0x10000ADF4, symSize: 0x194 }
  - { offset: 0xE776, size: 0x8, addend: 0x0, symName: __ZNSt3__18ios_base18__setstate_nothrowB8ne190107Ej, symObjAddr: 0x6148, symBinAddr: 0x10000AF88, symSize: 0x2B4 }
  - { offset: 0xE7A9, size: 0x8, addend: 0x0, symName: __ZNKSt3__19basic_iosIcNS_11char_traitsIcEEE10exceptionsB8ne190107Ev, symObjAddr: 0x63FC, symBinAddr: 0x10000B23C, symSize: 0xF8 }
  - { offset: 0xE7CD, size: 0x8, addend: 0x0, symName: __ZNSt3__111char_traitsIcE6assignB8ne190107ERcRKc, symObjAddr: 0x64FC, symBinAddr: 0x10000B33C, symSize: 0x0 }
  - { offset: 0xE7FD, size: 0x8, addend: 0x0, symName: __ZNSt3__112basic_stringIcNS_11char_traitsIcEENS_9allocatorIcEEE15__set_long_sizeB8ne190107Em, symObjAddr: 0x65D8, symBinAddr: 0x10000B418, symSize: 0x19C }
  - { offset: 0xE830, size: 0x8, addend: 0x0, symName: __ZNSt3__112basic_stringIcNS_11char_traitsIcEENS_9allocatorIcEEE16__set_short_sizeB8ne190107Em, symObjAddr: 0x6774, symBinAddr: 0x10000B5B4, symSize: 0x2A4 }
  - { offset: 0xE863, size: 0x8, addend: 0x0, symName: __ZNKSt3__112basic_stringIcNS_11char_traitsIcEENS_9allocatorIcEEE17__annotate_shrinkB8ne190107Em, symObjAddr: 0x6A18, symBinAddr: 0x10000B858, symSize: 0x58 }
  - { offset: 0xE896, size: 0x8, addend: 0x0, symName: __ZNSt3__111char_traitsIcE11to_int_typeB8ne190107Ec, symObjAddr: 0x6A78, symBinAddr: 0x10000B8B8, symSize: 0x0 }
  - { offset: 0xE8C2, size: 0x8, addend: 0x0, symName: __ZNSt3__116allocator_traitsINS_9allocatorIcEEE8max_sizeB8ne190107IS2_vTnNS_9enable_ifIXntsr14__has_max_sizeIKT_EE5valueEiE4typeELi0EEEmRKS2_, symObjAddr: 0x6D98, symBinAddr: 0x10000B8D4, symSize: 0x0 }
  - { offset: 0xE8F2, size: 0x8, addend: 0x0, symName: __ZNKSt3__112basic_stringIcNS_11char_traitsIcEENS_9allocatorIcEEE7__allocB8ne190107Ev, symObjAddr: 0x6DEC, symBinAddr: 0x10000B928, symSize: 0xB4 }
  - { offset: 0xE917, size: 0x8, addend: 0x0, symName: __ZNSt3__114numeric_limitsImE3maxB8ne190107Ev, symObjAddr: 0x6EA8, symBinAddr: 0x10000B9E4, symSize: 0x0 }
  - { offset: 0xE92A, size: 0x8, addend: 0x0, symName: __ZNKSt3__117__compressed_pairINS_12basic_stringIcNS_11char_traitsIcEENS_9allocatorIcEEE5__repES5_E6secondB8ne190107Ev, symObjAddr: 0x6EBC, symBinAddr: 0x10000B9F8, symSize: 0xC4 }
  - { offset: 0xE94E, size: 0x8, addend: 0x0, symName: __ZNKSt3__122__compressed_pair_elemINS_9allocatorIcEELi1ELb1EE5__getB8ne190107Ev, symObjAddr: 0x6F80, symBinAddr: 0x10000BABC, symSize: 0x64 }
  - { offset: 0xE973, size: 0x8, addend: 0x0, symName: __ZNSt3__123__libcpp_numeric_limitsImLb1EE3maxB8ne190107Ev, symObjAddr: 0x6FEC, symBinAddr: 0x10000BB28, symSize: 0x0 }
  - { offset: 0xE987, size: 0x8, addend: 0x0, symName: __ZNKSt3__18ios_base10exceptionsB8ne190107Ev, symObjAddr: 0x6FF4, symBinAddr: 0x10000BB30, symSize: 0x130 }
...
