---
triple:          'arm64-apple-darwin'
binary-path:     search_tests
relocations:
  - { offset: 0x3B, size: 0x8, addend: 0x0, symName: _.str, symObjAddr: 0x3F100, symBinAddr: 0x1001845A0, symSize: 0x0 }
  - { offset: 0x6B, size: 0x8, addend: 0x0, symName: _.str.1, symObjAddr: 0x3F120, symBinAddr: 0x1001845C0, symSize: 0x0 }
  - { offset: 0x87, size: 0x8, addend: 0x0, symName: __ZN12_GLOBAL__N_125BuildIndex_TinierTxt_Test10test_info_E, symObjAddr: 0x126100, symBinAddr: 0x10028C480, symSize: 0x0 }
  - { offset: 0x853, size: 0x8, addend: 0x0, symName: __ZN7testing8internal31CanonicalizeForStdLibVersioningENSt3__112basic_stringIcNS1_11char_traitsIcEENS1_9allocatorIcEEEE, symObjAddr: 0x33270, symBinAddr: 0x10003AD90, symSize: 0x248 }
  - { offset: 0x87C, size: 0x8, addend: 0x0, symName: __ZZN7testing8internal31CanonicalizeForStdLibVersioningENSt3__112basic_stringIcNS1_11char_traitsIcEENS1_9allocatorIcEEEEE6prefix, symObjAddr: 0x4C57C, symBinAddr: 0x1001A279C, symSize: 0x0 }
  - { offset: 0x891, size: 0x8, addend: 0x0, symName: __ZZN7testing8internal31CanonicalizeForStdLibVersioningENSt3__112basic_stringIcNS1_11char_traitsIcEENS1_9allocatorIcEEEEE9to_search, symObjAddr: 0x4C584, symBinAddr: 0x1001A27A4, symSize: 0x0 }
  - { offset: 0x1066, size: 0x8, addend: 0x0, symName: __ZN7testing8internal33MakePredicateFormatterFromMatcherINS_18PolymorphicMatcherINS0_18ContainerEqMatcherINSt3__13mapINS4_12basic_stringIcNS4_11char_traitsIcEENS4_9allocatorIcEEEENS4_3setISB_NS4_4lessISB_EENS9_ISB_EEEESE_NS9_INS4_4pairIKSB_SG_EEEEEEEEEEEENS0_29PredicateFormatterFromMatcherIT_EESP_, symObjAddr: 0x4E40, symBinAddr: 0x10000C960, symSize: 0x2D8 }
  - { offset: 0x109F, size: 0x8, addend: 0x0, symName: __ZN7testing8internal33MakePredicateFormatterFromMatcherINS0_9EqMatcherIiEEEENS0_29PredicateFormatterFromMatcherIT_EES5_, symObjAddr: 0x6528, symBinAddr: 0x10000E048, symSize: 0x1C8 }
  - { offset: 0x10D7, size: 0x8, addend: 0x0, symName: __ZN7testing8internal20MatchPrintAndExplainIKNSt3__13mapINS2_12basic_stringIcNS2_11char_traitsIcEENS2_9allocatorIcEEEENS2_3setIS9_NS2_4lessIS9_EENS7_IS9_EEEESC_NS7_INS2_4pairIKS9_SE_EEEEEERSK_EEbRT_RKNS_7MatcherIT0_EEPNS_19MatchResultListenerE, symObjAddr: 0x21B14, symBinAddr: 0x100029634, symSize: 0xC3C }
  - { offset: 0x1209, size: 0x8, addend: 0x0, symName: __ZN7testing8internal14UniversalPrintINSt3__13mapINS2_12basic_stringIcNS2_11char_traitsIcEENS2_9allocatorIcEEEENS2_3setIS9_NS2_4lessIS9_EENS7_IS9_EEEESC_NS7_INS2_4pairIKS9_SE_EEEEEEEEvRKT_PNS2_13basic_ostreamIcS6_EE, symObjAddr: 0x240C0, symBinAddr: 0x10002BBE0, symSize: 0x64 }
  - { offset: 0x1277, size: 0x8, addend: 0x0, symName: __ZN7testing8internal7PrintToINSt3__13mapINS2_12basic_stringIcNS2_11char_traitsIcEENS2_9allocatorIcEEEENS2_3setIS9_NS2_4lessIS9_EENS7_IS9_EEEESC_NS7_INS2_4pairIKS9_SE_EEEEEEEEvRKT_PNS2_13basic_ostreamIcS6_EE, symObjAddr: 0x24198, symBinAddr: 0x10002BCB8, symSize: 0x64 }
  - { offset: 0x12B9, size: 0x8, addend: 0x0, symName: __ZN7testing8internal17PrintWithFallbackINSt3__13mapINS2_12basic_stringIcNS2_11char_traitsIcEENS2_9allocatorIcEEEENS2_3setIS9_NS2_4lessIS9_EENS7_IS9_EEEESC_NS7_INS2_4pairIKS9_SE_EEEEEEEEvRKT_PNS2_13basic_ostreamIcS6_EE, symObjAddr: 0x24204, symBinAddr: 0x10002BD24, symSize: 0x64 }
  - { offset: 0x1345, size: 0x8, addend: 0x0, symName: __ZN7testing8internal14UniversalPrintINSt3__14pairIKNS2_12basic_stringIcNS2_11char_traitsIcEENS2_9allocatorIcEEEENS2_3setIS9_NS2_4lessIS9_EENS7_IS9_EEEEEEEEvRKT_PNS2_13basic_ostreamIcS6_EE, symObjAddr: 0x24A04, symBinAddr: 0x10002C524, symSize: 0x64 }
  - { offset: 0x13B1, size: 0x8, addend: 0x0, symName: __ZN7testing8internal7PrintToIKNSt3__112basic_stringIcNS2_11char_traitsIcEENS2_9allocatorIcEEEENS2_3setIS8_NS2_4lessIS8_EENS6_IS8_EEEEEEvRKNS2_4pairIT_T0_EEPNS2_13basic_ostreamIcS5_EE, symObjAddr: 0x28274, symBinAddr: 0x10002FD94, symSize: 0x184 }
  - { offset: 0x1454, size: 0x8, addend: 0x0, symName: __ZN7testing8internal7PrintToERKNSt3__112basic_stringIcNS1_11char_traitsIcEENS1_9allocatorIcEEEEPNS1_13basic_ostreamIcS4_EE, symObjAddr: 0x284D8, symBinAddr: 0x10002FFF8, symSize: 0x64 }
  - { offset: 0x148D, size: 0x8, addend: 0x0, symName: __ZN7testing8internal7PrintToINSt3__13setINS2_12basic_stringIcNS2_11char_traitsIcEENS2_9allocatorIcEEEENS2_4lessIS9_EENS7_IS9_EEEEEEvRKT_PNS2_13basic_ostreamIcS6_EE, symObjAddr: 0x28544, symBinAddr: 0x100030064, symSize: 0x64 }
  - { offset: 0x14CF, size: 0x8, addend: 0x0, symName: __ZN7testing8internal17PrintWithFallbackINSt3__13setINS2_12basic_stringIcNS2_11char_traitsIcEENS2_9allocatorIcEEEENS2_4lessIS9_EENS7_IS9_EEEEEEvRKT_PNS2_13basic_ostreamIcS6_EE, symObjAddr: 0x285B0, symBinAddr: 0x1000300D0, symSize: 0x64 }
  - { offset: 0x1511, size: 0x8, addend: 0x0, symName: __ZN7testing8internal14UniversalPrintINSt3__112basic_stringIcNS2_11char_traitsIcEENS2_9allocatorIcEEEEEEvRKT_PNS2_13basic_ostreamIcS5_EE, symObjAddr: 0x28B8C, symBinAddr: 0x1000306AC, symSize: 0x64 }
  - { offset: 0x1551, size: 0x8, addend: 0x0, symName: __ZN7testing8internal14ArrayAwareFindINSt3__120__map_const_iteratorINS2_21__tree_const_iteratorINS2_12__value_typeINS2_12basic_stringIcNS2_11char_traitsIcEENS2_9allocatorIcEEEENS2_3setISB_NS2_4lessISB_EENS9_ISB_EEEEEEPNS2_11__tree_nodeISH_PvEElEEEENS2_4pairIKSB_SG_EEEET_SR_SR_RKT0_, symObjAddr: 0x29C10, symBinAddr: 0x100031730, symSize: 0x2CC }
  - { offset: 0x15D6, size: 0x8, addend: 0x0, symName: __ZN7testing8internal7ArrayEqINSt3__14pairIKNS2_12basic_stringIcNS2_11char_traitsIcEENS2_9allocatorIcEEEENS2_3setIS9_NS2_4lessIS9_EENS7_IS9_EEEEEESG_EEbRKT_RKT0_, symObjAddr: 0x2B79C, symBinAddr: 0x1000332BC, symSize: 0x9C }
  - { offset: 0x1712, size: 0x8, addend: 0x0, symName: __ZN7testing8internal11GetTypeNameIKNSt3__13mapINS2_12basic_stringIcNS2_11char_traitsIcEENS2_9allocatorIcEEEENS2_3setIS9_NS2_4lessIS9_EENS7_IS9_EEEESC_NS7_INS2_4pairIKS9_SE_EEEEEEEES9_v, symObjAddr: 0x32AA0, symBinAddr: 0x10003A5C0, symSize: 0x2C }
  - { offset: 0x1739, size: 0x8, addend: 0x0, symName: __ZN7testing8internal18IsReadableTypeNameERKNSt3__112basic_stringIcNS1_11char_traitsIcEENS1_9allocatorIcEEEE, symObjAddr: 0x32AD4, symBinAddr: 0x10003A5F4, symSize: 0xB4 }
  - { offset: 0x1767, size: 0x8, addend: 0x0, symName: __ZN7testing8internal15PrintIfNotEmptyERKNSt3__112basic_stringIcNS1_11char_traitsIcEENS1_9allocatorIcEEEEPNS1_13basic_ostreamIcS4_EE, symObjAddr: 0x32B90, symBinAddr: 0x10003A6B0, symSize: 0x128 }
  - { offset: 0x17A0, size: 0x8, addend: 0x0, symName: __ZN7testing8internal11GetTypeNameERKSt9type_info, symObjAddr: 0x32CC0, symBinAddr: 0x10003A7E0, symSize: 0x490 }
  - { offset: 0x1816, size: 0x8, addend: 0x0, symName: __ZN7testing8internal20MatchPrintAndExplainIKiRS2_EEbRT_RKNS_7MatcherIT0_EEPNS_19MatchResultListenerE, symObjAddr: 0x39AFC, symBinAddr: 0x10004161C, symSize: 0xC30 }
  - { offset: 0x1948, size: 0x8, addend: 0x0, symName: __ZN7testing8internal14UniversalPrintIiEEvRKT_PNSt3__113basic_ostreamIcNS5_11char_traitsIcEEEE, symObjAddr: 0x3C4E4, symBinAddr: 0x100044004, symSize: 0x64 }
  - { offset: 0x19B6, size: 0x8, addend: 0x0, symName: __ZN7testing8internal7PrintToIiEEvRKT_PNSt3__113basic_ostreamIcNS5_11char_traitsIcEEEE, symObjAddr: 0x3C5BC, symBinAddr: 0x1000440DC, symSize: 0x64 }
  - { offset: 0x19F8, size: 0x8, addend: 0x0, symName: __ZN7testing8internal17PrintWithFallbackIiEEvRKT_PNSt3__113basic_ostreamIcNS5_11char_traitsIcEEEE, symObjAddr: 0x3C628, symBinAddr: 0x100044148, symSize: 0x64 }
  - { offset: 0x1A6A, size: 0x8, addend: 0x0, symName: __ZN7testing8internal11GetTypeNameIKiEENSt3__112basic_stringIcNS3_11char_traitsIcEENS3_9allocatorIcEEEEv, symObjAddr: 0x3DEF4, symBinAddr: 0x100045A14, symSize: 0x2C }
  - { offset: 0x1A91, size: 0x8, addend: 0x0, symName: __ZN7testing8internal19GetNotDefaultOrNullEPFvvES2_, symObjAddr: 0x3E054, symBinAddr: 0x100045B74, symSize: 0x44 }
  - { offset: 0x2544, size: 0x8, addend: 0x0, symName: __ZN7testing11ContainerEqINSt3__13mapINS1_12basic_stringIcNS1_11char_traitsIcEENS1_9allocatorIcEEEENS1_3setIS8_NS1_4lessIS8_EENS6_IS8_EEEESB_NS6_INS1_4pairIKS8_SD_EEEEEEEENS_18PolymorphicMatcherINS_8internal18ContainerEqMatcherINS1_12remove_constIT_E4typeEEEEERKSN_, symObjAddr: 0x5120, symBinAddr: 0x10000CC40, symSize: 0x2EC }
  - { offset: 0x27D3, size: 0x8, addend: 0x0, symName: __ZN7testing2EqIiEENS_8internal9EqMatcherIT_EES3_, symObjAddr: 0x66F8, symBinAddr: 0x10000E218, symSize: 0x1B0 }
  - { offset: 0x280E, size: 0x8, addend: 0x0, symName: __ZN7testing22MakePolymorphicMatcherINS_8internal18ContainerEqMatcherINSt3__13mapINS3_12basic_stringIcNS3_11char_traitsIcEENS3_9allocatorIcEEEENS3_3setISA_NS3_4lessISA_EENS8_ISA_EEEESD_NS8_INS3_4pairIKSA_SF_EEEEEEEEEENS_18PolymorphicMatcherIT_EERKSN_, symObjAddr: 0x207D0, symBinAddr: 0x1000282F0, symSize: 0x9C }
  - { offset: 0x2845, size: 0x8, addend: 0x0, symName: __ZN7testing15SafeMatcherCastIRKNSt3__13mapINS1_12basic_stringIcNS1_11char_traitsIcEENS1_9allocatorIcEEEENS1_3setIS8_NS1_4lessIS8_EENS6_IS8_EEEESB_NS6_INS1_4pairIKS8_SD_EEEEEENS_18PolymorphicMatcherINS_8internal18ContainerEqMatcherISI_EEEEEENS_7MatcherIT_EERKT0_, symObjAddr: 0x20D10, symBinAddr: 0x100028830, symSize: 0x68 }
  - { offset: 0x2924, size: 0x8, addend: 0x0, symName: __ZN7testing11MatcherCastIRKNSt3__13mapINS1_12basic_stringIcNS1_11char_traitsIcEENS1_9allocatorIcEEEENS1_3setIS8_NS1_4lessIS8_EENS6_IS8_EEEESB_NS6_INS1_4pairIKS8_SD_EEEEEENS_18PolymorphicMatcherINS_8internal18ContainerEqMatcherISI_EEEEEENS_7MatcherIT_EERKT0_, symObjAddr: 0x23024, symBinAddr: 0x10002AB44, symSize: 0x68 }
  - { offset: 0x2964, size: 0x8, addend: 0x0, symName: __ZN7testing15SafeMatcherCastIRKiNS_8internal9EqMatcherIiEEEENS_7MatcherIT_EERKT0_, symObjAddr: 0x391A0, symBinAddr: 0x100040CC0, symSize: 0x68 }
  - { offset: 0x2A2D, size: 0x8, addend: 0x0, symName: __ZN7testing11MatcherCastIRKiNS_8internal9EqMatcherIiEEEENS_7MatcherIT_EERKT0_, symObjAddr: 0x3A798, symBinAddr: 0x1000422B8, symSize: 0x68 }
  - { offset: 0xEFB3, size: 0x8, addend: 0x0, symName: __ZNSt3__17advanceB8ne190107INS_21__tree_const_iteratorINS_12basic_stringIcNS_11char_traitsIcEENS_9allocatorIcEEEEPNS_11__tree_nodeIS7_PvEElEEllTnNS_9enable_ifIXsr11is_integralIT1_EE5valueEiE4typeELi0EEEvRT_T0_, symObjAddr: 0xF150, symBinAddr: 0x100016C70, symSize: 0x70 }
  - { offset: 0xF040, size: 0x8, addend: 0x0, symName: __ZNSt3__17advanceB8ne190107INS_21__tree_const_iteratorINS_12__value_typeINS_12basic_stringIcNS_11char_traitsIcEENS_9allocatorIcEEEENS_3setIS8_NS_4lessIS8_EENS6_IS8_EEEEEEPNS_11__tree_nodeISE_PvEElEEllTnNS_9enable_ifIXsr11is_integralIT1_EE5valueEiE4typeELi0EEEvRT_T0_, symObjAddr: 0x1C034, symBinAddr: 0x100023B54, symSize: 0x70 }
  - { offset: 0xF0CC, size: 0x8, addend: 0x0, symName: __ZNSt3__124__put_character_sequenceB8ne190107IcNS_11char_traitsIcEEEERNS_13basic_ostreamIT_T0_EES7_PKS4_m, symObjAddr: 0x24A70, symBinAddr: 0x10002C590, symSize: 0xDC4 }
  - { offset: 0xFCEA, size: 0x8, addend: 0x0, symName: __ZNSt3__118__constexpr_strlenB8ne190107IcEEmPKT_, symObjAddr: 0x10EC, symBinAddr: 0x100008C0C, symSize: 0x24 }
  - { offset: 0xFD1F, size: 0x8, addend: 0x0, symName: __ZNSt3__1plB8ne190107IcNS_11char_traitsIcEENS_9allocatorIcEEEENS_12basic_stringIT_T0_T1_EEOS9_PKS6_, symObjAddr: 0x4D68, symBinAddr: 0x10000C888, symSize: 0xD0 }
  - { offset: 0x1305A, size: 0x8, addend: 0x0, symName: __ZNSt3__1eqB8ne190107ERKNS_21__tree_const_iteratorINS_12basic_stringIcNS_11char_traitsIcEENS_9allocatorIcEEEEPNS_11__tree_nodeIS6_PvEElEESD_, symObjAddr: 0xB870, symBinAddr: 0x100013390, symSize: 0xF8 }
  - { offset: 0x13097, size: 0x8, addend: 0x0, symName: __ZNSt3__14nextB8ne190107INS_21__tree_const_iteratorINS_12basic_stringIcNS_11char_traitsIcEENS_9allocatorIcEEEEPNS_11__tree_nodeIS7_PvEElEETnNS_9enable_ifIXsr29__has_input_iterator_categoryIT_EE5valueEiE4typeELi0EEESE_SE_NS_15iterator_traitsISE_E15difference_typeE, symObjAddr: 0xCEAC, symBinAddr: 0x1000149CC, symSize: 0x1D0 }
  - { offset: 0x130E6, size: 0x8, addend: 0x0, symName: __ZNSt3__1ltB8ne190107ENS_15strong_orderingENS_20_CmpUnspecifiedParamE, symObjAddr: 0xD45C, symBinAddr: 0x100014F7C, symSize: 0x20 }
  - { offset: 0x1311D, size: 0x8, addend: 0x0, symName: __ZNSt3__1ssB8ne190107IcNS_11char_traitsIcEENS_9allocatorIcEEEEDaRKNS_12basic_stringIT_T0_T1_EESB_, symObjAddr: 0xD484, symBinAddr: 0x100014FA4, symSize: 0xAC }
  - { offset: 0x13191, size: 0x8, addend: 0x0, symName: __ZNSt3__1ssB8ne190107IcNS_11char_traitsIcEEEEDaNS_17basic_string_viewIT_T0_EENS_13type_identityIS6_E4typeE, symObjAddr: 0xD590, symBinAddr: 0x1000150B0, symSize: 0x1F4 }
  - { offset: 0x131E5, size: 0x8, addend: 0x0, symName: __ZNSt3__13minB8ne190107ImEERKT_S3_S3_, symObjAddr: 0xDD58, symBinAddr: 0x100015878, symSize: 0xD4 }
  - { offset: 0x13228, size: 0x8, addend: 0x0, symName: __ZNSt3__13minB8ne190107ImNS_6__lessIvvEEEERKT_S5_S5_T0_, symObjAddr: 0xDFAC, symBinAddr: 0x100015ACC, symSize: 0x270 }
  - { offset: 0x132D0, size: 0x8, addend: 0x0, symName: __ZNSt3__112__to_addressB8ne190107IKcEEPT_S3_, symObjAddr: 0xE3C8, symBinAddr: 0x100015EE8, symSize: 0x14 }
  - { offset: 0x13338, size: 0x8, addend: 0x0, symName: __ZNSt3__116__tree_prev_iterB8ne190107IPNS_16__tree_node_baseIPvEEPNS_15__tree_end_nodeIS4_EEEET_T0_, symObjAddr: 0xE890, symBinAddr: 0x1000163B0, symSize: 0x2A8 }
  - { offset: 0x13384, size: 0x8, addend: 0x0, symName: __ZNSt3__110__tree_maxB8ne190107IPNS_16__tree_node_baseIPvEEEET_S5_, symObjAddr: 0xEB40, symBinAddr: 0x100016660, symSize: 0x1AC }
  - { offset: 0x133B9, size: 0x8, addend: 0x0, symName: __ZNSt3__120__tree_is_left_childB8ne190107IPNS_16__tree_node_baseIPvEEEEbT_, symObjAddr: 0xECF4, symBinAddr: 0x100016814, symSize: 0x19C }
  - { offset: 0x133EF, size: 0x8, addend: 0x0, symName: __ZNSt3__121__convert_to_integralB8ne190107El, symObjAddr: 0xF1C8, symBinAddr: 0x100016CE8, symSize: 0x14 }
  - { offset: 0x1341C, size: 0x8, addend: 0x0, symName: __ZNSt3__19__advanceB8ne190107INS_21__tree_const_iteratorINS_12basic_stringIcNS_11char_traitsIcEENS_9allocatorIcEEEEPNS_11__tree_nodeIS7_PvEElEEEEvRT_NS_15iterator_traitsISD_E15difference_typeENS_26bidirectional_iterator_tagE, symObjAddr: 0xF1E4, symBinAddr: 0x100016D04, symSize: 0x160 }
  - { offset: 0x13466, size: 0x8, addend: 0x0, symName: __ZNSt3__116__tree_next_iterB8ne190107IPNS_15__tree_end_nodeIPNS_16__tree_node_baseIPvEEEES5_EET_T0_, symObjAddr: 0xF498, symBinAddr: 0x100016FB8, symSize: 0x2FC }
  - { offset: 0x134A4, size: 0x8, addend: 0x0, symName: __ZNSt3__110__tree_minB8ne190107IPNS_16__tree_node_baseIPvEEEET_S5_, symObjAddr: 0xF79C, symBinAddr: 0x1000172BC, symSize: 0x1EC }
  - { offset: 0x134F7, size: 0x8, addend: 0x0, symName: __ZNSt3__117__libcpp_allocateB8ne190107Emm, symObjAddr: 0x100C0, symBinAddr: 0x100017BE0, symSize: 0x60 }
  - { offset: 0x1373F, size: 0x8, addend: 0x0, symName: __ZNSt3__124__is_overaligned_for_newB8ne190107Em, symObjAddr: 0x10154, symBinAddr: 0x100017C74, symSize: 0x1C }
  - { offset: 0x1376B, size: 0x8, addend: 0x0, symName: __ZNSt3__121__libcpp_operator_newB8ne190107IJmSt11align_val_tEEEPvDpT_, symObjAddr: 0x10178, symBinAddr: 0x100017C98, symSize: 0x68 }
  - { offset: 0x137B8, size: 0x8, addend: 0x0, symName: __ZNSt3__121__libcpp_operator_newB8ne190107IJmEEEPvDpT_, symObjAddr: 0x101E8, symBinAddr: 0x100017D08, symSize: 0x24 }
  - { offset: 0x137F1, size: 0x8, addend: 0x0, symName: __ZNSt3__114__construct_atB8ne190107INS_12basic_stringIcNS_11char_traitsIcEENS_9allocatorIcEEEEJRKS6_EPS6_EEPT_SB_DpOT0_, symObjAddr: 0x10930, symBinAddr: 0x100018450, symSize: 0x6C }
  - { offset: 0x1386B, size: 0x8, addend: 0x0, symName: __ZNSt3__112construct_atB8ne190107INS_12basic_stringIcNS_11char_traitsIcEENS_9allocatorIcEEEEJRKS6_EPS6_EEPT_SB_DpOT0_, symObjAddr: 0x109A4, symBinAddr: 0x1000184C4, symSize: 0xE0 }
  - { offset: 0x138DD, size: 0x8, addend: 0x0, symName: __ZNSt3__127__tree_balance_after_insertB8ne190107IPNS_16__tree_node_baseIPvEEEEvT_S5_, symObjAddr: 0x10D8C, symBinAddr: 0x1000188AC, symSize: 0x13A8 }
  - { offset: 0x13953, size: 0x8, addend: 0x0, symName: __ZNSt3__118__tree_left_rotateB8ne190107IPNS_16__tree_node_baseIPvEEEEvT_, symObjAddr: 0x12214, symBinAddr: 0x100019D34, symSize: 0x958 }
  - { offset: 0x13992, size: 0x8, addend: 0x0, symName: __ZNSt3__119__tree_right_rotateB8ne190107IPNS_16__tree_node_baseIPvEEEEvT_, symObjAddr: 0x12B74, symBinAddr: 0x10001A694, symSize: 0x980 }
  - { offset: 0x139D5, size: 0x8, addend: 0x0, symName: __ZNSt3__112__destroy_atB8ne190107INS_12basic_stringIcNS_11char_traitsIcEENS_9allocatorIcEEEETnNS_9enable_ifIXntsr8is_arrayIT_EE5valueEiE4typeELi0EEEvPS8_, symObjAddr: 0x13E50, symBinAddr: 0x10001B970, symSize: 0x5C }
  - { offset: 0x13A0C, size: 0x8, addend: 0x0, symName: __ZNSt3__119__libcpp_deallocateB8ne190107EPvmm, symObjAddr: 0x13F28, symBinAddr: 0x10001BA48, symSize: 0x60 }
  - { offset: 0x13A71, size: 0x8, addend: 0x0, symName: __ZNSt3__127__do_deallocate_handle_sizeB8ne190107IJSt11align_val_tEEEvPvmDpT_, symObjAddr: 0x13F90, symBinAddr: 0x10001BAB0, symSize: 0x34 }
  - { offset: 0x13AC4, size: 0x8, addend: 0x0, symName: __ZNSt3__127__do_deallocate_handle_sizeB8ne190107IJEEEvPvmDpT_, symObjAddr: 0x13FCC, symBinAddr: 0x10001BAEC, symSize: 0x2C }
  - { offset: 0x13B03, size: 0x8, addend: 0x0, symName: __ZNSt3__124__libcpp_operator_deleteB8ne190107IJPvmSt11align_val_tEEEvDpT_, symObjAddr: 0x14000, symBinAddr: 0x10001BB20, symSize: 0x34 }
  - { offset: 0x13B60, size: 0x8, addend: 0x0, symName: __ZNSt3__124__libcpp_operator_deleteB8ne190107IJPvmEEEvDpT_, symObjAddr: 0x1403C, symBinAddr: 0x10001BB5C, symSize: 0x2C }
  - { offset: 0x13BA9, size: 0x8, addend: 0x0, symName: __ZNSt3__1neB8ne190107ERKNS_21__tree_const_iteratorINS_12basic_stringIcNS_11char_traitsIcEENS_9allocatorIcEEEEPNS_11__tree_nodeIS6_PvEElEESD_, symObjAddr: 0x15804, symBinAddr: 0x10001D324, symSize: 0xA0 }
  - { offset: 0x13BE6, size: 0x8, addend: 0x0, symName: __ZNSt3__1eqB8ne190107ERKNS_21__tree_const_iteratorINS_12__value_typeINS_12basic_stringIcNS_11char_traitsIcEENS_9allocatorIcEEEENS_3setIS7_NS_4lessIS7_EENS5_IS7_EEEEEEPNS_11__tree_nodeISD_PvEElEESK_, symObjAddr: 0x1A15C, symBinAddr: 0x100021C7C, symSize: 0xF8 }
  - { offset: 0x13C23, size: 0x8, addend: 0x0, symName: __ZNSt3__14nextB8ne190107INS_21__tree_const_iteratorINS_12__value_typeINS_12basic_stringIcNS_11char_traitsIcEENS_9allocatorIcEEEENS_3setIS8_NS_4lessIS8_EENS6_IS8_EEEEEEPNS_11__tree_nodeISE_PvEElEETnNS_9enable_ifIXsr29__has_input_iterator_categoryIT_EE5valueEiE4typeELi0EEESL_SL_NS_15iterator_traitsISL_E15difference_typeE, symObjAddr: 0x1B7C8, symBinAddr: 0x1000232E8, symSize: 0x1D0 }
  - { offset: 0x13C71, size: 0x8, addend: 0x0, symName: __ZNSt3__17launderB8ne190107IKNS_4pairIKNS_12basic_stringIcNS_11char_traitsIcEENS_9allocatorIcEEEENS_3setIS7_NS_4lessIS7_EENS5_IS7_EEEEEEEEPT_SH_, symObjAddr: 0x1BE0C, symBinAddr: 0x10002392C, symSize: 0x24 }
  - { offset: 0x13CA8, size: 0x8, addend: 0x0, symName: __ZNSt3__19__launderB8ne190107IKNS_4pairIKNS_12basic_stringIcNS_11char_traitsIcEENS_9allocatorIcEEEENS_3setIS7_NS_4lessIS7_EENS5_IS7_EEEEEEEEPT_SH_, symObjAddr: 0x1BE38, symBinAddr: 0x100023958, symSize: 0x14 }
  - { offset: 0x13CE0, size: 0x8, addend: 0x0, symName: __ZNSt3__19__advanceB8ne190107INS_21__tree_const_iteratorINS_12__value_typeINS_12basic_stringIcNS_11char_traitsIcEENS_9allocatorIcEEEENS_3setIS8_NS_4lessIS8_EENS6_IS8_EEEEEEPNS_11__tree_nodeISE_PvEElEEEEvRT_NS_15iterator_traitsISK_E15difference_typeENS_26bidirectional_iterator_tagE, symObjAddr: 0x1C0AC, symBinAddr: 0x100023BCC, symSize: 0x160 }
  - { offset: 0x13D48, size: 0x8, addend: 0x0, symName: __ZNSt3__114__construct_atB8ne190107INS_4pairIKNS_12basic_stringIcNS_11char_traitsIcEENS_9allocatorIcEEEENS_3setIS7_NS_4lessIS7_EENS5_IS7_EEEEEEJRKSE_EPSE_EEPT_SJ_DpOT0_, symObjAddr: 0x1D170, symBinAddr: 0x100024C90, symSize: 0x6C }
  - { offset: 0x13DC2, size: 0x8, addend: 0x0, symName: __ZNSt3__112construct_atB8ne190107INS_4pairIKNS_12basic_stringIcNS_11char_traitsIcEENS_9allocatorIcEEEENS_3setIS7_NS_4lessIS7_EENS5_IS7_EEEEEEJRKSE_EPSE_EEPT_SJ_DpOT0_, symObjAddr: 0x1D1E4, symBinAddr: 0x100024D04, symSize: 0xE0 }
  - { offset: 0x13E34, size: 0x8, addend: 0x0, symName: __ZNSt3__17launderB8ne190107INS_4pairIKNS_12basic_stringIcNS_11char_traitsIcEENS_9allocatorIcEEEENS_3setIS7_NS_4lessIS7_EENS5_IS7_EEEEEEEEPT_SG_, symObjAddr: 0x1D4F4, symBinAddr: 0x100025014, symSize: 0x24 }
  - { offset: 0x13E6B, size: 0x8, addend: 0x0, symName: __ZNSt3__19__launderB8ne190107INS_4pairIKNS_12basic_stringIcNS_11char_traitsIcEENS_9allocatorIcEEEENS_3setIS7_NS_4lessIS7_EENS5_IS7_EEEEEEEEPT_SG_, symObjAddr: 0x1D520, symBinAddr: 0x100025040, symSize: 0x14 }
  - { offset: 0x13EA3, size: 0x8, addend: 0x0, symName: __ZNSt3__112__destroy_atB8ne190107INS_4pairIKNS_12basic_stringIcNS_11char_traitsIcEENS_9allocatorIcEEEENS_3setIS7_NS_4lessIS7_EENS5_IS7_EEEEEETnNS_9enable_ifIXntsr8is_arrayIT_EE5valueEiE4typeELi0EEEvPSG_, symObjAddr: 0x1E104, symBinAddr: 0x100025C24, symSize: 0x5C }
  - { offset: 0x13EDA, size: 0x8, addend: 0x0, symName: __ZNSt3__1neB8ne190107ERKNS_20__map_const_iteratorINS_21__tree_const_iteratorINS_12__value_typeINS_12basic_stringIcNS_11char_traitsIcEENS_9allocatorIcEEEENS_3setIS8_NS_4lessIS8_EENS6_IS8_EEEEEEPNS_11__tree_nodeISE_PvEElEEEESM_, symObjAddr: 0x2003C, symBinAddr: 0x100027B5C, symSize: 0x9C }
  - { offset: 0x13F17, size: 0x8, addend: 0x0, symName: __ZNSt3__1neB8ne190107ERKNS_21__tree_const_iteratorINS_12__value_typeINS_12basic_stringIcNS_11char_traitsIcEENS_9allocatorIcEEEENS_3setIS7_NS_4lessIS7_EENS5_IS7_EEEEEEPNS_11__tree_nodeISD_PvEElEESK_, symObjAddr: 0x202AC, symBinAddr: 0x100027DCC, symSize: 0xA0 }
  - { offset: 0x13F87, size: 0x8, addend: 0x0, symName: __ZNSt3__1lsB8ne190107INS_11char_traitsIcEEEERNS_13basic_ostreamIcT_EES6_PKc, symObjAddr: 0x2145C, symBinAddr: 0x100028F7C, symSize: 0xB0 }
  - { offset: 0x13FCD, size: 0x8, addend: 0x0, symName: __ZNSt3__1lsB8ne190107IcNS_11char_traitsIcEENS_9allocatorIcEEEERNS_13basic_ostreamIT_T0_EES9_RKNS_12basic_stringIS6_S7_T1_EE, symObjAddr: 0x22758, symBinAddr: 0x10002A278, symSize: 0x104 }
  - { offset: 0x14025, size: 0x8, addend: 0x0, symName: __ZNSt3__1lsB8ne190107INS_11char_traitsIcEEEERNS_13basic_ostreamIcT_EES6_c, symObjAddr: 0x247E0, symBinAddr: 0x10002C300, symSize: 0x21C }
  - { offset: 0x14070, size: 0x8, addend: 0x0, symName: __ZNSt3__116__pad_and_outputB8ne190107IcNS_11char_traitsIcEEEENS_19ostreambuf_iteratorIT_T0_EES6_PKS4_S8_S8_RNS_8ios_baseES4_, symObjAddr: 0x25924, symBinAddr: 0x10002D444, symSize: 0x850 }
  - { offset: 0x1414C, size: 0x8, addend: 0x0, symName: __ZNSt3__112__to_addressB8ne190107IcEEPT_S2_, symObjAddr: 0x26E78, symBinAddr: 0x10002E998, symSize: 0x14 }
  - { offset: 0x14181, size: 0x8, addend: 0x0, symName: __ZNSt3__19use_facetB8ne190107INS_5ctypeIcEEEERKT_RKNS_6localeE, symObjAddr: 0x27DBC, symBinAddr: 0x10002F8DC, symSize: 0x14C }
  - { offset: 0x1464E, size: 0x8, addend: 0x0, symName: __ZNSt3__1eqB8ne190107INS_12basic_stringIcNS_11char_traitsIcEENS_9allocatorIcEEEENS_3setIS6_NS_4lessIS6_EENS4_IS6_EEEES9_NS4_INS_4pairIKS6_SB_EEEEEEbRKNS_3mapIT_T0_T1_T2_EESN_, symObjAddr: 0x298FC, symBinAddr: 0x10003141C, symSize: 0x15C }
  - { offset: 0x146AF, size: 0x8, addend: 0x0, symName: __ZNSt3__1eqB8ne190107ERKNS_20__map_const_iteratorINS_21__tree_const_iteratorINS_12__value_typeINS_12basic_stringIcNS_11char_traitsIcEENS_9allocatorIcEEEENS_3setIS8_NS_4lessIS8_EENS6_IS8_EEEEEEPNS_11__tree_nodeISE_PvEElEEEESM_, symObjAddr: 0x29B6C, symBinAddr: 0x10003168C, symSize: 0x9C }
  - { offset: 0x146EC, size: 0x8, addend: 0x0, symName: __ZNSt3__15equalB8ne190107INS_20__map_const_iteratorINS_21__tree_const_iteratorINS_12__value_typeINS_12basic_stringIcNS_11char_traitsIcEENS_9allocatorIcEEEENS_3setIS9_NS_4lessIS9_EENS7_IS9_EEEEEEPNS_11__tree_nodeISF_PvEElEEEESL_EEbT_SM_T0_, symObjAddr: 0x29FF0, symBinAddr: 0x100031B10, symSize: 0x7C }
  - { offset: 0x14746, size: 0x8, addend: 0x0, symName: __ZNSt3__15equalB8ne190107INS_20__map_const_iteratorINS_21__tree_const_iteratorINS_12__value_typeINS_12basic_stringIcNS_11char_traitsIcEENS_9allocatorIcEEEENS_3setIS9_NS_4lessIS9_EENS7_IS9_EEEEEEPNS_11__tree_nodeISF_PvEElEEEESL_NS_10__equal_toEEEbT_SN_T0_T1_, symObjAddr: 0x2A2C4, symBinAddr: 0x100031DE4, symSize: 0x234 }
  - { offset: 0x147BE, size: 0x8, addend: 0x0, symName: __ZNSt3__117__equal_iter_implB8ne190107INS_20__map_const_iteratorINS_21__tree_const_iteratorINS_12__value_typeINS_12basic_stringIcNS_11char_traitsIcEENS_9allocatorIcEEEENS_3setIS9_NS_4lessIS9_EENS7_IS9_EEEEEEPNS_11__tree_nodeISF_PvEElEEEESL_NS_10__equal_toEEEbT_SN_T0_RT1_, symObjAddr: 0x2A500, symBinAddr: 0x100032020, symSize: 0x334 }
  - { offset: 0x1483C, size: 0x8, addend: 0x0, symName: __ZNSt3__113__unwrap_iterB8ne190107INS_20__map_const_iteratorINS_21__tree_const_iteratorINS_12__value_typeINS_12basic_stringIcNS_11char_traitsIcEENS_9allocatorIcEEEENS_3setIS9_NS_4lessIS9_EENS7_IS9_EEEEEEPNS_11__tree_nodeISF_PvEElEEEENS_18__unwrap_iter_implISL_Lb0EEETnNS_9enable_ifIXsr21is_copy_constructibleIT_EE5valueEiE4typeELi0EEEDTclsrT0_8__unwrapclsr3stdE7declvalISP_EEEESP_, symObjAddr: 0x2A83C, symBinAddr: 0x10003235C, symSize: 0x3C }
  - { offset: 0x148EC, size: 0x8, addend: 0x0, symName: __ZNSt3__1eqB8ne190107IKNS_12basic_stringIcNS_11char_traitsIcEENS_9allocatorIcEEEENS_3setIS6_NS_4lessIS6_EENS4_IS6_EEEES7_SC_EEbRKNS_4pairIT_T0_EERKNSD_IT1_T2_EE, symObjAddr: 0x2A944, symBinAddr: 0x100032464, symSize: 0x150 }
  - { offset: 0x1494D, size: 0x8, addend: 0x0, symName: __ZNSt3__1eqB8ne190107INS_9allocatorIcEEEEbRKNS_12basic_stringIcNS_11char_traitsIcEET_EES9_, symObjAddr: 0x2AA9C, symBinAddr: 0x1000325BC, symSize: 0x150 }
  - { offset: 0x149A2, size: 0x8, addend: 0x0, symName: __ZNSt3__1eqB8ne190107INS_12basic_stringIcNS_11char_traitsIcEENS_9allocatorIcEEEENS_4lessIS6_EENS4_IS6_EEEEbRKNS_3setIT_T0_T1_EESG_, symObjAddr: 0x2ABF4, symBinAddr: 0x100032714, symSize: 0x15C }
  - { offset: 0x149FA, size: 0x8, addend: 0x0, symName: __ZNSt3__15equalB8ne190107INS_21__tree_const_iteratorINS_12basic_stringIcNS_11char_traitsIcEENS_9allocatorIcEEEEPNS_11__tree_nodeIS7_PvEElEESC_EEbT_SD_T0_, symObjAddr: 0x2AE64, symBinAddr: 0x100032984, symSize: 0x7C }
  - { offset: 0x14A54, size: 0x8, addend: 0x0, symName: __ZNSt3__15equalB8ne190107INS_21__tree_const_iteratorINS_12basic_stringIcNS_11char_traitsIcEENS_9allocatorIcEEEEPNS_11__tree_nodeIS7_PvEElEESC_NS_10__equal_toEEEbT_SE_T0_T1_, symObjAddr: 0x2B0AC, symBinAddr: 0x100032BCC, symSize: 0x234 }
  - { offset: 0x14ACC, size: 0x8, addend: 0x0, symName: __ZNSt3__117__equal_iter_implB8ne190107INS_21__tree_const_iteratorINS_12basic_stringIcNS_11char_traitsIcEENS_9allocatorIcEEEEPNS_11__tree_nodeIS7_PvEElEESC_NS_10__equal_toEEEbT_SE_T0_RT1_, symObjAddr: 0x2B2E8, symBinAddr: 0x100032E08, symSize: 0x334 }
  - { offset: 0x14B4A, size: 0x8, addend: 0x0, symName: __ZNSt3__113__unwrap_iterB8ne190107INS_21__tree_const_iteratorINS_12basic_stringIcNS_11char_traitsIcEENS_9allocatorIcEEEEPNS_11__tree_nodeIS7_PvEElEENS_18__unwrap_iter_implISC_Lb0EEETnNS_9enable_ifIXsr21is_copy_constructibleIT_EE5valueEiE4typeELi0EEEDTclsrT0_8__unwrapclsr3stdE7declvalISG_EEEESG_, symObjAddr: 0x2B624, symBinAddr: 0x100033144, symSize: 0x3C }
  - { offset: 0x14C1E, size: 0x8, addend: 0x0, symName: __ZNSt3__13getB8ne190107ILm1EJPKN7testing8internal11MatcherBaseIRKNS_3mapINS_12basic_stringIcNS_11char_traitsIcEENS_9allocatorIcEEEENS_3setISA_NS_4lessISA_EENS8_ISA_EEEESD_NS8_INS_4pairIKSA_SF_EEEEEEEEPKNS1_16MatcherInterfaceISM_EEEEEONS_13tuple_elementIXT_ENS_5tupleIJDpT0_EEEE4typeEOSY_, symObjAddr: 0x2D800, symBinAddr: 0x100035320, symSize: 0xC8 }
  - { offset: 0x14C66, size: 0x8, addend: 0x0, symName: __ZNSt3__110make_tupleB8ne190107IJPKN7testing8internal11MatcherBaseIRKNS_3mapINS_12basic_stringIcNS_11char_traitsIcEENS_9allocatorIcEEEENS_3setISA_NS_4lessISA_EENS8_ISA_EEEESD_NS8_INS_4pairIKSA_SF_EEEEEEEEPKNS1_16MatcherInterfaceISM_EEEEENS_5tupleIJDpNS_18__unwrap_ref_decayIT_E4typeEEEEDpOSW_, symObjAddr: 0x2D8D0, symBinAddr: 0x1000353F0, symSize: 0x230 }
  - { offset: 0x150F5, size: 0x8, addend: 0x0, symName: __ZNSt3__122__cxx_atomic_fetch_subB8ne190107IiEET_PNS_22__cxx_atomic_base_implIS1_EES1_NS_12memory_orderE, symObjAddr: 0x306C8, symBinAddr: 0x1000381E8, symSize: 0x2E4 }
  - { offset: 0x1514A, size: 0x8, addend: 0x0, symName: __ZNSt3__110__str_findB8ne190107IcmNS_11char_traitsIcEETnT0_Lm18446744073709551615EEES3_PKT_S3_S6_S3_S3_, symObjAddr: 0x33568, symBinAddr: 0x10003B088, symSize: 0x388 }
  - { offset: 0x151F1, size: 0x8, addend: 0x0, symName: __ZNSt3__118__search_substringB8ne190107IcNS_11char_traitsIcEEEEPKT_S5_S5_S5_S5_, symObjAddr: 0x338F8, symBinAddr: 0x10003B418, symSize: 0x444 }
  - { offset: 0x15295, size: 0x8, addend: 0x0, symName: __ZNSt3__118__constexpr_memchrB8ne190107IKccEEPT_S3_T0_m, symObjAddr: 0x33E24, symBinAddr: 0x10003B944, symSize: 0x4C }
  - { offset: 0x1530B, size: 0x8, addend: 0x0, symName: __ZNSt3__119__str_find_first_ofB8ne190107IcmNS_11char_traitsIcEETnT0_Lm18446744073709551615EEES3_PKT_S3_S6_S3_S3_, symObjAddr: 0x33F7C, symBinAddr: 0x10003BA9C, symSize: 0x3A0 }
  - { offset: 0x153B2, size: 0x8, addend: 0x0, symName: __ZNSt3__118__find_first_of_ceB8ne190107IPKcS2_RDoFbccEEET_S5_S5_T0_S6_OT1_, symObjAddr: 0x34324, symBinAddr: 0x10003BE44, symSize: 0x308 }
  - { offset: 0x1544D, size: 0x8, addend: 0x0, symName: __ZNSt3__1eqB8ne190107INS_12basic_stringIcNS_11char_traitsIcEENS_9allocatorIcEEEENS_14default_deleteIS6_EEEEbRKNS_10unique_ptrIT_T0_EEDn, symObjAddr: 0x34B48, symBinAddr: 0x10003C668, symSize: 0x54 }
  - { offset: 0x15499, size: 0x8, addend: 0x0, symName: __ZNSt3__111make_uniqueB8ne190107INS_12basic_stringIcNS_11char_traitsIcEENS_9allocatorIcEEEEJEEENS_11__unique_ifIT_E15__unique_singleEDpOT0_, symObjAddr: 0x34BA4, symBinAddr: 0x10003C6C4, symSize: 0xA4 }
  - { offset: 0x154C7, size: 0x8, addend: 0x0, symName: __ZNSt3__110to_addressB8ne190107IcEEDaPT_, symObjAddr: 0x37504, symBinAddr: 0x10003F024, symSize: 0x24 }
  - { offset: 0x154FC, size: 0x8, addend: 0x0, symName: __ZNSt3__13getB8ne190107ILm0EJPKN7testing8internal11MatcherBaseIRKiEEPKNS2_9EqMatcherIiEEEEEONS_13tuple_elementIXT_ENS_5tupleIJDpT0_EEEE4typeEOSH_, symObjAddr: 0x3C7FC, symBinAddr: 0x10004431C, symSize: 0xB8 }
  - { offset: 0x15544, size: 0x8, addend: 0x0, symName: __ZNSt3__110make_tupleB8ne190107IJPKN7testing8internal11MatcherBaseIRKiEEPKNS2_9EqMatcherIiEEEEENS_5tupleIJDpNS_18__unwrap_ref_decayIT_E4typeEEEEDpOSF_, symObjAddr: 0x3C8BC, symBinAddr: 0x1000443DC, symSize: 0x230 }
  - { offset: 0x1683C, size: 0x8, addend: 0x0, symName: __ZSt28__throw_bad_array_new_lengthB8ne190107v, symObjAddr: 0x1004C, symBinAddr: 0x100017B6C, symSize: 0x6C }
  - { offset: 0x17112, size: 0x8, addend: 0x0, symName: _.str.6, symObjAddr: 0x3F220, symBinAddr: 0x1001846C0, symSize: 0x0 }
  - { offset: 0x1712F, size: 0x8, addend: 0x0, symName: _.str.7, symObjAddr: 0x3F240, symBinAddr: 0x1001846E0, symSize: 0x0 }
  - { offset: 0x1714C, size: 0x8, addend: 0x0, symName: _.str.8, symObjAddr: 0x3F260, symBinAddr: 0x100184700, symSize: 0x0 }
  - { offset: 0x1715D, size: 0x8, addend: 0x0, symName: _.str.9, symObjAddr: 0x3F280, symBinAddr: 0x100184720, symSize: 0x0 }
  - { offset: 0x1717A, size: 0x8, addend: 0x0, symName: _.str.10, symObjAddr: 0x3F2C0, symBinAddr: 0x100184760, symSize: 0x0 }
  - { offset: 0x1718B, size: 0x8, addend: 0x0, symName: _.str.11, symObjAddr: 0x3F2E0, symBinAddr: 0x100184780, symSize: 0x0 }
  - { offset: 0x171A8, size: 0x8, addend: 0x0, symName: _.str.12, symObjAddr: 0x3F300, symBinAddr: 0x1001847A0, symSize: 0x0 }
  - { offset: 0x171B9, size: 0x8, addend: 0x0, symName: _.str.13, symObjAddr: 0x3F320, symBinAddr: 0x1001847C0, symSize: 0x0 }
  - { offset: 0x171D6, size: 0x8, addend: 0x0, symName: _.str.14, symObjAddr: 0x3F340, symBinAddr: 0x1001847E0, symSize: 0x0 }
  - { offset: 0x171E7, size: 0x8, addend: 0x0, symName: _.str.15, symObjAddr: 0x3F360, symBinAddr: 0x100184800, symSize: 0x0 }
  - { offset: 0x17204, size: 0x8, addend: 0x0, symName: _.str.16, symObjAddr: 0x3F380, symBinAddr: 0x100184820, symSize: 0x0 }
  - { offset: 0x17221, size: 0x8, addend: 0x0, symName: _.str.17, symObjAddr: 0x3F3C0, symBinAddr: 0x100184860, symSize: 0x0 }
  - { offset: 0x17232, size: 0x8, addend: 0x0, symName: _.str.18, symObjAddr: 0x3F3E0, symBinAddr: 0x100184880, symSize: 0x0 }
  - { offset: 0x1724F, size: 0x8, addend: 0x0, symName: _.str.19, symObjAddr: 0x3F420, symBinAddr: 0x1001848C0, symSize: 0x0 }
  - { offset: 0x1726E, size: 0x8, addend: 0x0, symName: _.str.38, symObjAddr: 0x3F460, symBinAddr: 0x100184900, symSize: 0x0 }
  - { offset: 0x17281, size: 0x8, addend: 0x0, symName: _.str.39, symObjAddr: 0x3F480, symBinAddr: 0x100184920, symSize: 0x0 }
  - { offset: 0x172A0, size: 0x8, addend: 0x0, symName: _.str.40, symObjAddr: 0x3F4A0, symBinAddr: 0x100184940, symSize: 0x0 }
  - { offset: 0x172B3, size: 0x8, addend: 0x0, symName: _.str.41, symObjAddr: 0x3F4C0, symBinAddr: 0x100184960, symSize: 0x0 }
  - { offset: 0x172D2, size: 0x8, addend: 0x0, symName: _.str.42, symObjAddr: 0x3F560, symBinAddr: 0x100184A00, symSize: 0x0 }
  - { offset: 0x172EF, size: 0x8, addend: 0x0, symName: _.str.43, symObjAddr: 0x3F580, symBinAddr: 0x100184A20, symSize: 0x0 }
  - { offset: 0x1730C, size: 0x8, addend: 0x0, symName: _.str.44, symObjAddr: 0x3F5A0, symBinAddr: 0x100184A40, symSize: 0x0 }
  - { offset: 0x1731F, size: 0x8, addend: 0x0, symName: _.str.45, symObjAddr: 0x3F5C0, symBinAddr: 0x100184A60, symSize: 0x0 }
  - { offset: 0x1733C, size: 0x8, addend: 0x0, symName: _.str.47, symObjAddr: 0x3F5E0, symBinAddr: 0x100184A80, symSize: 0x0 }
  - { offset: 0x1734F, size: 0x8, addend: 0x0, symName: _.str.54, symObjAddr: 0x3F600, symBinAddr: 0x100184AA0, symSize: 0x0 }
  - { offset: 0x17362, size: 0x8, addend: 0x0, symName: _.str.55, symObjAddr: 0x3F620, symBinAddr: 0x100184AC0, symSize: 0x0 }
  - { offset: 0x17375, size: 0x8, addend: 0x0, symName: _.str.56, symObjAddr: 0x3F640, symBinAddr: 0x100184AE0, symSize: 0x0 }
  - { offset: 0x17394, size: 0x8, addend: 0x0, symName: _.str.57, symObjAddr: 0x3F6A0, symBinAddr: 0x100184B40, symSize: 0x0 }
  - { offset: 0x173A7, size: 0x8, addend: 0x0, symName: _.str.58, symObjAddr: 0x3F6C0, symBinAddr: 0x100184B60, symSize: 0x0 }
  - { offset: 0x173BA, size: 0x8, addend: 0x0, symName: _.str.59, symObjAddr: 0x3F6E0, symBinAddr: 0x100184B80, symSize: 0x0 }
  - { offset: 0x17FD1, size: 0x8, addend: 0x0, symName: __ZN7testing8internal11MatcherBaseIRKNSt3__13mapINS2_12basic_stringIcNS2_11char_traitsIcEENS2_9allocatorIcEEEENS2_3setIS9_NS2_4lessIS9_EENS7_IS9_EEEESC_NS7_INS2_4pairIKS9_SE_EEEEEEE9GetVTableINSM_11ValuePolicyIPKNS_16MatcherInterfaceISL_EELb1EEEEEPKNSM_6VTableEv, symObjAddr: 0x2C5F8, symBinAddr: 0x100034118, symSize: 0x5C }
  - { offset: 0x17FF6, size: 0x8, addend: 0x0, symName: __ZZN7testing8internal11MatcherBaseIRKNSt3__13mapINS2_12basic_stringIcNS2_11char_traitsIcEENS2_9allocatorIcEEEENS2_3setIS9_NS2_4lessIS9_EENS7_IS9_EEEESC_NS7_INS2_4pairIKS9_SE_EEEEEEE9GetVTableINSM_11ValuePolicyIPKNS_16MatcherInterfaceISL_EELb1EEEEEPKNSM_6VTableEvE7kVTable, symObjAddr: 0x5F108, symBinAddr: 0x100204C68, symSize: 0x0 }
  - { offset: 0x18023, size: 0x8, addend: 0x0, symName: _.str.65, symObjAddr: 0x3F740, symBinAddr: 0x100184BE0, symSize: 0x0 }
  - { offset: 0x18036, size: 0x8, addend: 0x0, symName: _.str.69, symObjAddr: 0x3F7A0, symBinAddr: 0x100184C40, symSize: 0x0 }
  - { offset: 0x18047, size: 0x8, addend: 0x0, symName: _.str.72, symObjAddr: 0x3F7C0, symBinAddr: 0x100184C60, symSize: 0x0 }
  - { offset: 0x1805A, size: 0x8, addend: 0x0, symName: _.str.74, symObjAddr: 0x3F7E0, symBinAddr: 0x100184C80, symSize: 0x0 }
  - { offset: 0x1806B, size: 0x8, addend: 0x0, symName: _.str.78, symObjAddr: 0x4D040, symBinAddr: 0x1001A3260, symSize: 0x0 }
  - { offset: 0x1811E, size: 0x8, addend: 0x0, symName: __ZN7testing8internal11MatcherBaseIRKiE9GetVTableINS4_11ValuePolicyINS0_9EqMatcherIiEELb1EEEEEPKNS4_6VTableEv, symObjAddr: 0x3B578, symBinAddr: 0x100043098, symSize: 0x5C }
  - { offset: 0x18143, size: 0x8, addend: 0x0, symName: __ZZN7testing8internal11MatcherBaseIRKiE9GetVTableINS4_11ValuePolicyINS0_9EqMatcherIiEELb1EEEEEPKNS4_6VTableEvE7kVTable, symObjAddr: 0x5F250, symBinAddr: 0x100204D90, symSize: 0x0 }
  - { offset: 0x1816D, size: 0x8, addend: 0x0, symName: _.str.79, symObjAddr: 0x3F800, symBinAddr: 0x100184CA0, symSize: 0x0 }
  - { offset: 0x18180, size: 0x8, addend: 0x0, symName: _.str.80, symObjAddr: 0x3F820, symBinAddr: 0x100184CC0, symSize: 0x0 }
  - { offset: 0x1819F, size: 0x8, addend: 0x0, symName: _.str.81, symObjAddr: 0x3F840, symBinAddr: 0x100184CE0, symSize: 0x0 }
  - { offset: 0x181B2, size: 0x8, addend: 0x0, symName: _.str.83, symObjAddr: 0x3F860, symBinAddr: 0x100184D00, symSize: 0x0 }
  - { offset: 0x181D1, size: 0x8, addend: 0x0, symName: _.str.84, symObjAddr: 0x3F8C0, symBinAddr: 0x100184D60, symSize: 0x0 }
  - { offset: 0x181F0, size: 0x8, addend: 0x0, symName: _.str.85, symObjAddr: 0x3F960, symBinAddr: 0x100184E00, symSize: 0x0 }
  - { offset: 0x18203, size: 0x8, addend: 0x0, symName: _.str.86, symObjAddr: 0x3F980, symBinAddr: 0x100184E20, symSize: 0x0 }
  - { offset: 0x18414, size: 0x8, addend: 0x0, symName: ___cxx_global_var_init, symObjAddr: 0x3E158, symBinAddr: 0x100045C78, symSize: 0x4A4 }
  - { offset: 0x1842D, size: 0x8, addend: 0x0, symName: __ZNSt3__112basic_stringIcNS_11char_traitsIcEENS_9allocatorIcEEEC1B8ne190107ILi0EEEPKc, symObjAddr: 0x0, symBinAddr: 0x100007B20, symSize: 0x6C }
  - { offset: 0x1846C, size: 0x8, addend: 0x0, symName: __ZN7testing8internal12CodeLocationC1ENSt3__112basic_stringIcNS2_11char_traitsIcEENS2_9allocatorIcEEEEi, symObjAddr: 0x6C, symBinAddr: 0x100007B8C, symSize: 0x78 }
  - { offset: 0x184BC, size: 0x8, addend: 0x0, symName: __ZN7testing8internal16SuiteApiResolverINS_4TestEE19GetSetUpCaseOrSuiteEPKci, symObjAddr: 0xEC, symBinAddr: 0x100007C0C, symSize: 0x4FC }
  - { offset: 0x18511, size: 0x8, addend: 0x0, symName: __ZN7testing8internal16SuiteApiResolverINS_4TestEE22GetTearDownCaseOrSuiteEPKci, symObjAddr: 0x5F0, symBinAddr: 0x100008110, symSize: 0x4FC }
  - { offset: 0x1856B, size: 0x8, addend: 0x0, symName: __ZN7testing8internal15TestFactoryImplIN12_GLOBAL__N_125BuildIndex_TinierTxt_TestEEC1Ev, symObjAddr: 0xAEC, symBinAddr: 0x10000860C, symSize: 0x64 }
  - { offset: 0x18598, size: 0x8, addend: 0x0, symName: __ZN7testing8internal12CodeLocationD1Ev, symObjAddr: 0xB50, symBinAddr: 0x100008670, symSize: 0x64 }
  - { offset: 0x185C5, size: 0x8, addend: 0x0, symName: __ZNSt3__112basic_stringIcNS_11char_traitsIcEENS_9allocatorIcEEEC2B8ne190107ILi0EEEPKc, symObjAddr: 0xBB4, symBinAddr: 0x1000086D4, symSize: 0x244 }
  - { offset: 0x1860C, size: 0x8, addend: 0x0, symName: __ZNSt3__117__compressed_pairINS_12basic_stringIcNS_11char_traitsIcEENS_9allocatorIcEEE5__repES5_EC1B8ne190107INS_18__default_init_tagESA_EEOT_OT0_, symObjAddr: 0xDF8, symBinAddr: 0x100008918, symSize: 0x74 }
  - { offset: 0x18664, size: 0x8, addend: 0x0, symName: __ZNSt3__111char_traitsIcE6lengthB8ne190107EPKc, symObjAddr: 0xE74, symBinAddr: 0x100008994, symSize: 0x24 }
  - { offset: 0x18687, size: 0x8, addend: 0x0, symName: __ZNSt3__117__compressed_pairINS_12basic_stringIcNS_11char_traitsIcEENS_9allocatorIcEEE5__repES5_EC2B8ne190107INS_18__default_init_tagESA_EEOT_OT0_, symObjAddr: 0xE98, symBinAddr: 0x1000089B8, symSize: 0xC8 }
  - { offset: 0x186DF, size: 0x8, addend: 0x0, symName: __ZNSt3__122__compressed_pair_elemINS_12basic_stringIcNS_11char_traitsIcEENS_9allocatorIcEEE5__repELi0ELb0EEC2B8ne190107ENS_18__default_init_tagE, symObjAddr: 0xF60, symBinAddr: 0x100008A80, symSize: 0x5C }
  - { offset: 0x18714, size: 0x8, addend: 0x0, symName: __ZNSt3__122__compressed_pair_elemINS_9allocatorIcEELi1ELb1EEC2B8ne190107ENS_18__default_init_tagE, symObjAddr: 0xFBC, symBinAddr: 0x100008ADC, symSize: 0x70 }
  - { offset: 0x18749, size: 0x8, addend: 0x0, symName: __ZNSt3__19allocatorIcEC2B8ne190107Ev, symObjAddr: 0x102C, symBinAddr: 0x100008B4C, symSize: 0x70 }
  - { offset: 0x18773, size: 0x8, addend: 0x0, symName: __ZNSt3__116__non_trivial_ifILb1ENS_9allocatorIcEEEC2B8ne190107Ev, symObjAddr: 0x109C, symBinAddr: 0x100008BBC, symSize: 0x48 }
  - { offset: 0x1879D, size: 0x8, addend: 0x0, symName: __ZN7testing8internal12CodeLocationC2ENSt3__112basic_stringIcNS2_11char_traitsIcEENS2_9allocatorIcEEEEi, symObjAddr: 0x1110, symBinAddr: 0x100008C30, symSize: 0x128 }
  - { offset: 0x187E6, size: 0x8, addend: 0x0, symName: __ZNSt3__112basic_stringIcNS_11char_traitsIcEENS_9allocatorIcEEEC1B8ne190107EOS5_, symObjAddr: 0x1238, symBinAddr: 0x100008D58, symSize: 0x6C }
  - { offset: 0x1881F, size: 0x8, addend: 0x0, symName: __ZNSt3__112basic_stringIcNS_11char_traitsIcEENS_9allocatorIcEEEC2B8ne190107EOS5_, symObjAddr: 0x12A4, symBinAddr: 0x100008DC4, symSize: 0x334 }
  - { offset: 0x1888B, size: 0x8, addend: 0x0, symName: __ZZNSt3__112basic_stringIcNS_11char_traitsIcEENS_9allocatorIcEEEC1B8ne190107EOS5_ENKUlRS5_E_clES7_, symObjAddr: 0x15D8, symBinAddr: 0x1000090F8, symSize: 0xE8 }
  - { offset: 0x188C4, size: 0x8, addend: 0x0, symName: __ZNSt3__117__compressed_pairINS_12basic_stringIcNS_11char_traitsIcEENS_9allocatorIcEEE5__repES5_E5firstB8ne190107Ev, symObjAddr: 0x16D0, symBinAddr: 0x1000091F0, symSize: 0xEC }
  - { offset: 0x188EA, size: 0x8, addend: 0x0, symName: __ZNKSt3__112basic_stringIcNS_11char_traitsIcEENS_9allocatorIcEEE14__annotate_newB8ne190107Em, symObjAddr: 0x17BC, symBinAddr: 0x1000092DC, symSize: 0x58 }
  - { offset: 0x1891F, size: 0x8, addend: 0x0, symName: __ZNKSt3__112basic_stringIcNS_11char_traitsIcEENS_9allocatorIcEEE9__is_longB8ne190107Ev, symObjAddr: 0x1814, symBinAddr: 0x100009334, symSize: 0x178 }
  - { offset: 0x18945, size: 0x8, addend: 0x0, symName: __ZNKSt3__112basic_stringIcNS_11char_traitsIcEENS_9allocatorIcEEE4sizeB8ne190107Ev, symObjAddr: 0x198C, symBinAddr: 0x1000094AC, symSize: 0x88 }
  - { offset: 0x1896B, size: 0x8, addend: 0x0, symName: __ZNKSt3__112basic_stringIcNS_11char_traitsIcEENS_9allocatorIcEEE17__annotate_deleteB8ne190107Ev, symObjAddr: 0x1A14, symBinAddr: 0x100009534, symSize: 0x54 }
  - { offset: 0x18991, size: 0x8, addend: 0x0, symName: __ZNSt3__122__compressed_pair_elemINS_12basic_stringIcNS_11char_traitsIcEENS_9allocatorIcEEE5__repELi0ELb0EE5__getB8ne190107Ev, symObjAddr: 0x1A68, symBinAddr: 0x100009588, symSize: 0x8C }
  - { offset: 0x189B7, size: 0x8, addend: 0x0, symName: __ZNKSt3__117__compressed_pairINS_12basic_stringIcNS_11char_traitsIcEENS_9allocatorIcEEE5__repES5_E5firstB8ne190107Ev, symObjAddr: 0x1AF4, symBinAddr: 0x100009614, symSize: 0xEC }
  - { offset: 0x189DD, size: 0x8, addend: 0x0, symName: __ZNKSt3__122__compressed_pair_elemINS_12basic_stringIcNS_11char_traitsIcEENS_9allocatorIcEEE5__repELi0ELb0EE5__getB8ne190107Ev, symObjAddr: 0x1BE0, symBinAddr: 0x100009700, symSize: 0x8C }
  - { offset: 0x18A03, size: 0x8, addend: 0x0, symName: __ZNKSt3__112basic_stringIcNS_11char_traitsIcEENS_9allocatorIcEEE15__get_long_sizeB8ne190107Ev, symObjAddr: 0x1C6C, symBinAddr: 0x10000978C, symSize: 0x18C }
  - { offset: 0x18A29, size: 0x8, addend: 0x0, symName: __ZNKSt3__112basic_stringIcNS_11char_traitsIcEENS_9allocatorIcEEE16__get_short_sizeB8ne190107Ev, symObjAddr: 0x1DF8, symBinAddr: 0x100009918, symSize: 0x178 }
  - { offset: 0x18A4F, size: 0x8, addend: 0x0, symName: __ZN7testing8internal15TestFactoryImplIN12_GLOBAL__N_125BuildIndex_TinierTxt_TestEEC2Ev, symObjAddr: 0x1F70, symBinAddr: 0x100009A90, symSize: 0xF8 }
  - { offset: 0x18A7C, size: 0x8, addend: 0x0, symName: __ZN7testing8internal15TestFactoryBaseC2Ev, symObjAddr: 0x2068, symBinAddr: 0x100009B88, symSize: 0xB4 }
  - { offset: 0x18AA6, size: 0x8, addend: 0x0, symName: __ZN7testing8internal15TestFactoryImplIN12_GLOBAL__N_125BuildIndex_TinierTxt_TestEED1Ev, symObjAddr: 0x211C, symBinAddr: 0x100009C3C, symSize: 0x64 }
  - { offset: 0x18AD3, size: 0x8, addend: 0x0, symName: __ZN7testing8internal15TestFactoryImplIN12_GLOBAL__N_125BuildIndex_TinierTxt_TestEED0Ev, symObjAddr: 0x2180, symBinAddr: 0x100009CA0, symSize: 0x68 }
  - { offset: 0x18B00, size: 0x8, addend: 0x0, symName: __ZN7testing8internal15TestFactoryImplIN12_GLOBAL__N_125BuildIndex_TinierTxt_TestEE10CreateTestEv, symObjAddr: 0x21E8, symBinAddr: 0x100009D08, symSize: 0xFC }
  - { offset: 0x18B26, size: 0x8, addend: 0x0, symName: __ZN7testing8internal15TestFactoryBaseD1Ev, symObjAddr: 0x22E4, symBinAddr: 0x100009E04, symSize: 0x54 }
  - { offset: 0x18B50, size: 0x8, addend: 0x0, symName: __ZN7testing8internal15TestFactoryBaseD0Ev, symObjAddr: 0x2338, symBinAddr: 0x100009E58, symSize: 0x50 }
  - { offset: 0x18B7A, size: 0x8, addend: 0x0, symName: __ZN7testing8internal15TestFactoryImplIN12_GLOBAL__N_125BuildIndex_TinierTxt_TestEED2Ev, symObjAddr: 0x2388, symBinAddr: 0x100009EA8, symSize: 0x64 }
  - { offset: 0x18BA7, size: 0x8, addend: 0x0, symName: __ZN7testing8internal15TestFactoryBaseD2Ev, symObjAddr: 0x23EC, symBinAddr: 0x100009F0C, symSize: 0x5C }
  - { offset: 0x18BD1, size: 0x8, addend: 0x0, symName: __ZN12_GLOBAL__N_125BuildIndex_TinierTxt_TestC1Ev, symObjAddr: 0x2448, symBinAddr: 0x100009F68, symSize: 0x64 }
  - { offset: 0x18BFB, size: 0x8, addend: 0x0, symName: __ZN12_GLOBAL__N_125BuildIndex_TinierTxt_TestC2Ev, symObjAddr: 0x24AC, symBinAddr: 0x100009FCC, symSize: 0xF8 }
  - { offset: 0x18C25, size: 0x8, addend: 0x0, symName: __ZN12_GLOBAL__N_125BuildIndex_TinierTxt_TestD1Ev, symObjAddr: 0x25A4, symBinAddr: 0x10000A0C4, symSize: 0x64 }
  - { offset: 0x18C4F, size: 0x8, addend: 0x0, symName: __ZN12_GLOBAL__N_125BuildIndex_TinierTxt_TestD0Ev, symObjAddr: 0x2608, symBinAddr: 0x10000A128, symSize: 0x68 }
  - { offset: 0x18C79, size: 0x8, addend: 0x0, symName: __ZN12_GLOBAL__N_125BuildIndex_TinierTxt_Test8TestBodyEv, symObjAddr: 0x2670, symBinAddr: 0x10000A190, symSize: 0x239C }
  - { offset: 0x18D44, size: 0x8, addend: 0x0, symName: __ZN7testing4Test5SetupEv, symObjAddr: 0x4A0C, symBinAddr: 0x10000C52C, symSize: 0x58 }
  - { offset: 0x18D6A, size: 0x8, addend: 0x0, symName: __ZN12_GLOBAL__N_125BuildIndex_TinierTxt_TestD2Ev, symObjAddr: 0x4A64, symBinAddr: 0x10000C584, symSize: 0x64 }
  - { offset: 0x18D94, size: 0x8, addend: 0x0, symName: __ZNSt3__13setINS_12basic_stringIcNS_11char_traitsIcEENS_9allocatorIcEEEENS_4lessIS6_EENS4_IS6_EEEC1B8ne190107ESt16initializer_listIS6_ERKS8_, symObjAddr: 0x4AC8, symBinAddr: 0x10000C5E8, symSize: 0x7C }
  - { offset: 0x18DDC, size: 0x8, addend: 0x0, symName: __ZNSt3__14pairIKNS_12basic_stringIcNS_11char_traitsIcEENS_9allocatorIcEEEENS_3setIS6_NS_4lessIS6_EENS4_IS6_EEEEEC1B8ne190107ILb1ETnNS_9enable_ifIXclsr13_CheckArgsDepIXT_EEE23__is_pair_constructibleIRS7_RKSC_EEEiE4typeELi0EEESG_SI_, symObjAddr: 0x4B44, symBinAddr: 0x10000C664, symSize: 0x74 }
  - { offset: 0x18E32, size: 0x8, addend: 0x0, symName: __ZNSt3__13mapINS_12basic_stringIcNS_11char_traitsIcEENS_9allocatorIcEEEENS_3setIS6_NS_4lessIS6_EENS4_IS6_EEEES9_NS4_INS_4pairIKS6_SB_EEEEEC1B8ne190107ESt16initializer_listISE_ERKS9_, symObjAddr: 0x4BB8, symBinAddr: 0x10000C6D8, symSize: 0x7C }
  - { offset: 0x18E7A, size: 0x8, addend: 0x0, symName: __ZNSt3__14pairIKNS_12basic_stringIcNS_11char_traitsIcEENS_9allocatorIcEEEENS_3setIS6_NS_4lessIS6_EENS4_IS6_EEEEED1Ev, symObjAddr: 0x4C34, symBinAddr: 0x10000C754, symSize: 0x64 }
  - { offset: 0x18EA6, size: 0x8, addend: 0x0, symName: __ZNSt3__13setINS_12basic_stringIcNS_11char_traitsIcEENS_9allocatorIcEEEENS_4lessIS6_EENS4_IS6_EEED1B8ne190107Ev, symObjAddr: 0x4C98, symBinAddr: 0x10000C7B8, symSize: 0x64 }
  - { offset: 0x18ED0, size: 0x8, addend: 0x0, symName: __ZNSt3__13mapINS_12basic_stringIcNS_11char_traitsIcEENS_9allocatorIcEEEENS_3setIS6_NS_4lessIS6_EENS4_IS6_EEEES9_NS4_INS_4pairIKS6_SB_EEEEEC1B8ne190107Ev, symObjAddr: 0x4CFC, symBinAddr: 0x10000C81C, symSize: 0x64 }
  - { offset: 0x19258, size: 0x8, addend: 0x0, symName: __ZNK7testing8internal29PredicateFormatterFromMatcherINS_18PolymorphicMatcherINS0_18ContainerEqMatcherINSt3__13mapINS4_12basic_stringIcNS4_11char_traitsIcEENS4_9allocatorIcEEEENS4_3setISB_NS4_4lessISB_EENS9_ISB_EEEESE_NS9_INS4_4pairIKSB_SG_EEEEEEEEEEEclISL_EENS_15AssertionResultEPKcRKT_, symObjAddr: 0x540C, symBinAddr: 0x10000CF2C, symSize: 0xCC8 }
  - { offset: 0x192E2, size: 0x8, addend: 0x0, symName: __ZN7testing8internal29PredicateFormatterFromMatcherINS_18PolymorphicMatcherINS0_18ContainerEqMatcherINSt3__13mapINS4_12basic_stringIcNS4_11char_traitsIcEENS4_9allocatorIcEEEENS4_3setISB_NS4_4lessISB_EENS9_ISB_EEEESE_NS9_INS4_4pairIKSB_SG_EEEEEEEEEEED1Ev, symObjAddr: 0x60D4, symBinAddr: 0x10000DBF4, symSize: 0x64 }
  - { offset: 0x1930F, size: 0x8, addend: 0x0, symName: __ZN7testing18PolymorphicMatcherINS_8internal18ContainerEqMatcherINSt3__13mapINS3_12basic_stringIcNS3_11char_traitsIcEENS3_9allocatorIcEEEENS3_3setISA_NS3_4lessISA_EENS8_ISA_EEEESD_NS8_INS3_4pairIKSA_SF_EEEEEEEEED1Ev, symObjAddr: 0x6138, symBinAddr: 0x10000DC58, symSize: 0x64 }
  - { offset: 0x1933C, size: 0x8, addend: 0x0, symName: __ZNK7testing15AssertionResultcvbEv, symObjAddr: 0x619C, symBinAddr: 0x10000DCBC, symSize: 0xE8 }
  - { offset: 0x19362, size: 0x8, addend: 0x0, symName: __ZN7testing7MessagelsINSt3__112basic_stringIcNS2_11char_traitsIcEENS2_9allocatorIcEEEEEERS0_RKT_, symObjAddr: 0x6284, symBinAddr: 0x10000DDA4, symSize: 0x178 }
  - { offset: 0x193A6, size: 0x8, addend: 0x0, symName: __ZNK7testing15AssertionResult15failure_messageEv, symObjAddr: 0x63FC, symBinAddr: 0x10000DF1C, symSize: 0x5C }
  - { offset: 0x193CC, size: 0x8, addend: 0x0, symName: __ZN7testing7MessageD1Ev, symObjAddr: 0x6458, symBinAddr: 0x10000DF78, symSize: 0x64 }
  - { offset: 0x193F8, size: 0x8, addend: 0x0, symName: __ZN7testing15AssertionResultD1Ev, symObjAddr: 0x64BC, symBinAddr: 0x10000DFDC, symSize: 0x64 }
  - { offset: 0x1942E, size: 0x8, addend: 0x0, symName: __ZNK7testing8internal29PredicateFormatterFromMatcherINS0_9EqMatcherIiEEEclIiEENS_15AssertionResultEPKcRKT_, symObjAddr: 0x68A8, symBinAddr: 0x10000E3C8, symSize: 0xCC8 }
  - { offset: 0x194B8, size: 0x8, addend: 0x0, symName: __ZNSt3__13mapINS_12basic_stringIcNS_11char_traitsIcEENS_9allocatorIcEEEENS_3setIS6_NS_4lessIS6_EENS4_IS6_EEEES9_NS4_INS_4pairIKS6_SB_EEEEED1B8ne190107Ev, symObjAddr: 0x7570, symBinAddr: 0x10000F090, symSize: 0x64 }
  - { offset: 0x194E2, size: 0x8, addend: 0x0, symName: __ZNSt3__13setINS_12basic_stringIcNS_11char_traitsIcEENS_9allocatorIcEEEENS_4lessIS6_EENS4_IS6_EEEC2B8ne190107ESt16initializer_listIS6_ERKS8_, symObjAddr: 0x75D4, symBinAddr: 0x10000F0F4, symSize: 0x2D0 }
  - { offset: 0x19530, size: 0x8, addend: 0x0, symName: __ZNSt3__16__treeINS_12basic_stringIcNS_11char_traitsIcEENS_9allocatorIcEEEENS_4lessIS6_EENS4_IS6_EEEC1ERKS8_, symObjAddr: 0x78A4, symBinAddr: 0x10000F3C4, symSize: 0x6C }
  - { offset: 0x19569, size: 0x8, addend: 0x0, symName: __ZNSt3__13setINS_12basic_stringIcNS_11char_traitsIcEENS_9allocatorIcEEEENS_4lessIS6_EENS4_IS6_EEE6insertB8ne190107IPKS6_EEvT_SE_, symObjAddr: 0x7910, symBinAddr: 0x10000F430, symSize: 0x194 }
  - { offset: 0x195D3, size: 0x8, addend: 0x0, symName: __ZNKSt16initializer_listINSt3__112basic_stringIcNS0_11char_traitsIcEENS0_9allocatorIcEEEEE5beginB8ne190107Ev, symObjAddr: 0x7AA4, symBinAddr: 0x10000F5C4, symSize: 0x9C }
  - { offset: 0x195F9, size: 0x8, addend: 0x0, symName: __ZNKSt16initializer_listINSt3__112basic_stringIcNS0_11char_traitsIcEENS0_9allocatorIcEEEEE3endB8ne190107Ev, symObjAddr: 0x7B40, symBinAddr: 0x10000F660, symSize: 0x184 }
  - { offset: 0x1961F, size: 0x8, addend: 0x0, symName: __ZNSt3__16__treeINS_12basic_stringIcNS_11char_traitsIcEENS_9allocatorIcEEEENS_4lessIS6_EENS4_IS6_EEED1Ev, symObjAddr: 0x7CC4, symBinAddr: 0x10000F7E4, symSize: 0x64 }
  - { offset: 0x19649, size: 0x8, addend: 0x0, symName: __ZNSt3__16__treeINS_12basic_stringIcNS_11char_traitsIcEENS_9allocatorIcEEEENS_4lessIS6_EENS4_IS6_EEEC2ERKS8_, symObjAddr: 0x7D28, symBinAddr: 0x10000F848, symSize: 0x2F0 }
  - { offset: 0x19684, size: 0x8, addend: 0x0, symName: __ZNSt3__117__compressed_pairINS_15__tree_end_nodeIPNS_16__tree_node_baseIPvEEEENS_9allocatorINS_11__tree_nodeINS_12basic_stringIcNS_11char_traitsIcEENS7_IcEEEES3_EEEEEC1B8ne190107ILb1ETnNS_9enable_ifIXaasr16__dependent_typeINS_24is_default_constructibleIS6_EEXT_EEE5valuesr16__dependent_typeINSJ_ISF_EEXT_EEE5valueEiE4typeELi0EEEv, symObjAddr: 0x8018, symBinAddr: 0x10000FB38, symSize: 0x64 }
  - { offset: 0x196C4, size: 0x8, addend: 0x0, symName: __ZNSt3__117__compressed_pairImNS_4lessINS_12basic_stringIcNS_11char_traitsIcEENS_9allocatorIcEEEEEEEC1B8ne190107IiRKS8_EEOT_OT0_, symObjAddr: 0x807C, symBinAddr: 0x10000FB9C, symSize: 0x74 }
  - { offset: 0x1971C, size: 0x8, addend: 0x0, symName: __ZNSt3__16__treeINS_12basic_stringIcNS_11char_traitsIcEENS_9allocatorIcEEEENS_4lessIS6_EENS4_IS6_EEE10__end_nodeB8ne190107Ev, symObjAddr: 0x80F0, symBinAddr: 0x10000FC10, symSize: 0xDC }
  - { offset: 0x19742, size: 0x8, addend: 0x0, symName: __ZNSt3__16__treeINS_12basic_stringIcNS_11char_traitsIcEENS_9allocatorIcEEEENS_4lessIS6_EENS4_IS6_EEE12__begin_nodeB8ne190107Ev, symObjAddr: 0x81CC, symBinAddr: 0x10000FCEC, symSize: 0x8C }
  - { offset: 0x19768, size: 0x8, addend: 0x0, symName: __ZNSt3__117__compressed_pairINS_15__tree_end_nodeIPNS_16__tree_node_baseIPvEEEENS_9allocatorINS_11__tree_nodeINS_12basic_stringIcNS_11char_traitsIcEENS7_IcEEEES3_EEEEEC2B8ne190107ILb1ETnNS_9enable_ifIXaasr16__dependent_typeINS_24is_default_constructibleIS6_EEXT_EEE5valuesr16__dependent_typeINSJ_ISF_EEXT_EEE5valueEiE4typeELi0EEEv, symObjAddr: 0x8258, symBinAddr: 0x10000FD78, symSize: 0xC0 }
  - { offset: 0x197A2, size: 0x8, addend: 0x0, symName: __ZNSt3__122__compressed_pair_elemINS_15__tree_end_nodeIPNS_16__tree_node_baseIPvEEEELi0ELb0EEC2B8ne190107ENS_16__value_init_tagE, symObjAddr: 0x8318, symBinAddr: 0x10000FE38, symSize: 0x64 }
  - { offset: 0x197D7, size: 0x8, addend: 0x0, symName: __ZNSt3__122__compressed_pair_elemINS_9allocatorINS_11__tree_nodeINS_12basic_stringIcNS_11char_traitsIcEENS1_IcEEEEPvEEEELi1ELb1EEC2B8ne190107ENS_16__value_init_tagE, symObjAddr: 0x837C, symBinAddr: 0x10000FE9C, symSize: 0x70 }
  - { offset: 0x1980C, size: 0x8, addend: 0x0, symName: __ZNSt3__115__tree_end_nodeIPNS_16__tree_node_baseIPvEEEC1B8ne190107Ev, symObjAddr: 0x83EC, symBinAddr: 0x10000FF0C, symSize: 0x64 }
  - { offset: 0x19836, size: 0x8, addend: 0x0, symName: __ZNSt3__115__tree_end_nodeIPNS_16__tree_node_baseIPvEEEC2B8ne190107Ev, symObjAddr: 0x8450, symBinAddr: 0x10000FF70, symSize: 0xA8 }
  - { offset: 0x19860, size: 0x8, addend: 0x0, symName: __ZNSt3__19allocatorINS_11__tree_nodeINS_12basic_stringIcNS_11char_traitsIcEENS0_IcEEEEPvEEEC2B8ne190107Ev, symObjAddr: 0x84F8, symBinAddr: 0x100010018, symSize: 0x70 }
  - { offset: 0x1988A, size: 0x8, addend: 0x0, symName: __ZNSt3__116__non_trivial_ifILb1ENS_9allocatorINS_11__tree_nodeINS_12basic_stringIcNS_11char_traitsIcEENS1_IcEEEEPvEEEEEC2B8ne190107Ev, symObjAddr: 0x8568, symBinAddr: 0x100010088, symSize: 0x48 }
  - { offset: 0x198B4, size: 0x8, addend: 0x0, symName: __ZNSt3__117__compressed_pairImNS_4lessINS_12basic_stringIcNS_11char_traitsIcEENS_9allocatorIcEEEEEEEC2B8ne190107IiRKS8_EEOT_OT0_, symObjAddr: 0x85B0, symBinAddr: 0x1000100D0, symSize: 0x12C }
  - { offset: 0x1990C, size: 0x8, addend: 0x0, symName: __ZNSt3__122__compressed_pair_elemImLi0ELb0EEC2B8ne190107IiTnNS_9enable_ifIXntsr7is_sameIS1_u7__decayIT_EEE5valueEiE4typeELi0EEEOS4_, symObjAddr: 0x86DC, symBinAddr: 0x1000101FC, symSize: 0x148 }
  - { offset: 0x19953, size: 0x8, addend: 0x0, symName: __ZNSt3__122__compressed_pair_elemINS_4lessINS_12basic_stringIcNS_11char_traitsIcEENS_9allocatorIcEEEEEELi1ELb1EEC2B8ne190107IRKS8_TnNS_9enable_ifIXntsr7is_sameIS9_u7__decayIT_EEE5valueEiE4typeELi0EEEOSE_, symObjAddr: 0x8824, symBinAddr: 0x100010344, symSize: 0x4C }
  - { offset: 0x1999A, size: 0x8, addend: 0x0, symName: __ZNSt3__114pointer_traitsIPNS_15__tree_end_nodeIPNS_16__tree_node_baseIPvEEEEE10pointer_toB8ne190107ERS6_, symObjAddr: 0x8878, symBinAddr: 0x100010398, symSize: 0x14 }
  - { offset: 0x199BD, size: 0x8, addend: 0x0, symName: __ZNSt3__117__compressed_pairINS_15__tree_end_nodeIPNS_16__tree_node_baseIPvEEEENS_9allocatorINS_11__tree_nodeINS_12basic_stringIcNS_11char_traitsIcEENS7_IcEEEES3_EEEEE5firstB8ne190107Ev, symObjAddr: 0x888C, symBinAddr: 0x1000103AC, symSize: 0xEC }
  - { offset: 0x199E3, size: 0x8, addend: 0x0, symName: __ZNSt3__122__compressed_pair_elemINS_15__tree_end_nodeIPNS_16__tree_node_baseIPvEEEELi0ELb0EE5__getB8ne190107Ev, symObjAddr: 0x8978, symBinAddr: 0x100010498, symSize: 0x8C }
  - { offset: 0x19A09, size: 0x8, addend: 0x0, symName: __ZNKSt3__13setINS_12basic_stringIcNS_11char_traitsIcEENS_9allocatorIcEEEENS_4lessIS6_EENS4_IS6_EEE4cendB8ne190107Ev, symObjAddr: 0x8A04, symBinAddr: 0x100010524, symSize: 0x64 }
  - { offset: 0x19A2F, size: 0x8, addend: 0x0, symName: __ZNSt3__16__treeINS_12basic_stringIcNS_11char_traitsIcEENS_9allocatorIcEEEENS_4lessIS6_EENS4_IS6_EEE15__insert_uniqueB8ne190107ENS_21__tree_const_iteratorIS6_PNS_11__tree_nodeIS6_PvEElEERKS6_, symObjAddr: 0x8A68, symBinAddr: 0x100010588, symSize: 0x198 }
  - { offset: 0x19A73, size: 0x8, addend: 0x0, symName: __ZNKSt3__13setINS_12basic_stringIcNS_11char_traitsIcEENS_9allocatorIcEEEENS_4lessIS6_EENS4_IS6_EEE3endB8ne190107Ev, symObjAddr: 0x8C00, symBinAddr: 0x100010720, symSize: 0x98 }
  - { offset: 0x19A99, size: 0x8, addend: 0x0, symName: __ZNKSt3__16__treeINS_12basic_stringIcNS_11char_traitsIcEENS_9allocatorIcEEEENS_4lessIS6_EENS4_IS6_EEE3endB8ne190107Ev, symObjAddr: 0x8C98, symBinAddr: 0x1000107B8, symSize: 0x1EC }
  - { offset: 0x19AC0, size: 0x8, addend: 0x0, symName: __ZNKSt3__16__treeINS_12basic_stringIcNS_11char_traitsIcEENS_9allocatorIcEEEENS_4lessIS6_EENS4_IS6_EEE10__end_nodeB8ne190107Ev, symObjAddr: 0x8E84, symBinAddr: 0x1000109A4, symSize: 0xDC }
  - { offset: 0x19AE6, size: 0x8, addend: 0x0, symName: __ZNSt3__121__tree_const_iteratorINS_12basic_stringIcNS_11char_traitsIcEENS_9allocatorIcEEEEPNS_11__tree_nodeIS6_PvEElEC1B8ne190107EPNS_15__tree_end_nodeIPNS_16__tree_node_baseIS8_EEEE, symObjAddr: 0x8F60, symBinAddr: 0x100010A80, symSize: 0x6C }
  - { offset: 0x19B1F, size: 0x8, addend: 0x0, symName: __ZNKSt3__117__compressed_pairINS_15__tree_end_nodeIPNS_16__tree_node_baseIPvEEEENS_9allocatorINS_11__tree_nodeINS_12basic_stringIcNS_11char_traitsIcEENS7_IcEEEES3_EEEEE5firstB8ne190107Ev, symObjAddr: 0x8FCC, symBinAddr: 0x100010AEC, symSize: 0xEC }
  - { offset: 0x19B45, size: 0x8, addend: 0x0, symName: __ZNKSt3__122__compressed_pair_elemINS_15__tree_end_nodeIPNS_16__tree_node_baseIPvEEEELi0ELb0EE5__getB8ne190107Ev, symObjAddr: 0x90B8, symBinAddr: 0x100010BD8, symSize: 0x8C }
  - { offset: 0x19B6B, size: 0x8, addend: 0x0, symName: __ZNSt3__121__tree_const_iteratorINS_12basic_stringIcNS_11char_traitsIcEENS_9allocatorIcEEEEPNS_11__tree_nodeIS6_PvEElEC2B8ne190107EPNS_15__tree_end_nodeIPNS_16__tree_node_baseIS8_EEEE, symObjAddr: 0x9144, symBinAddr: 0x100010C64, symSize: 0xB8 }
  - { offset: 0x19BA4, size: 0x8, addend: 0x0, symName: __ZNSt3__16__treeINS_12basic_stringIcNS_11char_traitsIcEENS_9allocatorIcEEEENS_4lessIS6_EENS4_IS6_EEE30__emplace_hint_unique_key_argsIS6_JRKS6_EEENS_4pairINS_15__tree_iteratorIS6_PNS_11__tree_nodeIS6_PvEElEEbEENS_21__tree_const_iteratorIS6_SJ_lEERKT_DpOT0_, symObjAddr: 0x91FC, symBinAddr: 0x100010D1C, symSize: 0x5AC }
  - { offset: 0x19C84, size: 0x8, addend: 0x0, symName: __ZNSt3__122__tree_key_value_typesINS_12basic_stringIcNS_11char_traitsIcEENS_9allocatorIcEEEEE9__get_keyB8ne190107ERKS6_, symObjAddr: 0x97B0, symBinAddr: 0x1000112D0, symSize: 0x58 }
  - { offset: 0x19CA8, size: 0x8, addend: 0x0, symName: __ZNSt3__16__treeINS_12basic_stringIcNS_11char_traitsIcEENS_9allocatorIcEEEENS_4lessIS6_EENS4_IS6_EEE12__find_equalIS6_EERPNS_16__tree_node_baseIPvEENS_21__tree_const_iteratorIS6_PNS_11__tree_nodeIS6_SD_EElEERPNS_15__tree_end_nodeISF_EESG_RKT_, symObjAddr: 0x9808, symBinAddr: 0x100011328, symSize: 0xF78 }
  - { offset: 0x19D5E, size: 0x8, addend: 0x0, symName: __ZNSt3__16__treeINS_12basic_stringIcNS_11char_traitsIcEENS_9allocatorIcEEEENS_4lessIS6_EENS4_IS6_EEE16__construct_nodeIJRKS6_EEENS_10unique_ptrINS_11__tree_nodeIS6_PvEENS_22__tree_node_destructorINS4_ISH_EEEEEEDpOT_, symObjAddr: 0xA780, symBinAddr: 0x1000122A0, symSize: 0x5BC }
  - { offset: 0x19DC1, size: 0x8, addend: 0x0, symName: __ZNSt3__16__treeINS_12basic_stringIcNS_11char_traitsIcEENS_9allocatorIcEEEENS_4lessIS6_EENS4_IS6_EEE16__insert_node_atEPNS_15__tree_end_nodeIPNS_16__tree_node_baseIPvEEEERSF_SF_, symObjAddr: 0xAD3C, symBinAddr: 0x10001285C, symSize: 0x720 }
  - { offset: 0x19E14, size: 0x8, addend: 0x0, symName: __ZNKSt3__110unique_ptrINS_11__tree_nodeINS_12basic_stringIcNS_11char_traitsIcEENS_9allocatorIcEEEEPvEENS_22__tree_node_destructorINS5_IS9_EEEEE3getB8ne190107Ev, symObjAddr: 0xB45C, symBinAddr: 0x100012F7C, symSize: 0x10C }
  - { offset: 0x19E3A, size: 0x8, addend: 0x0, symName: __ZNSt3__110unique_ptrINS_11__tree_nodeINS_12basic_stringIcNS_11char_traitsIcEENS_9allocatorIcEEEEPvEENS_22__tree_node_destructorINS5_IS9_EEEEE7releaseB8ne190107Ev, symObjAddr: 0xB568, symBinAddr: 0x100013088, symSize: 0x1BC }
  - { offset: 0x19E6F, size: 0x8, addend: 0x0, symName: __ZNSt3__110unique_ptrINS_11__tree_nodeINS_12basic_stringIcNS_11char_traitsIcEENS_9allocatorIcEEEEPvEENS_22__tree_node_destructorINS5_IS9_EEEEED1B8ne190107Ev, symObjAddr: 0xB724, symBinAddr: 0x100013244, symSize: 0x64 }
  - { offset: 0x19E99, size: 0x8, addend: 0x0, symName: __ZNSt3__115__tree_iteratorINS_12basic_stringIcNS_11char_traitsIcEENS_9allocatorIcEEEEPNS_11__tree_nodeIS6_PvEElEC1B8ne190107ESA_, symObjAddr: 0xB788, symBinAddr: 0x1000132A8, symSize: 0x6C }
  - { offset: 0x19ED8, size: 0x8, addend: 0x0, symName: __ZNSt3__14pairINS_15__tree_iteratorINS_12basic_stringIcNS_11char_traitsIcEENS_9allocatorIcEEEEPNS_11__tree_nodeIS7_PvEElEEbEC1B8ne190107ISC_RbTnNS_9enable_ifIXclsr10_CheckArgsE23__is_pair_constructibleIT_T0_EEEiE4typeELi0EEEOSH_OSI_, symObjAddr: 0xB7F4, symBinAddr: 0x100013314, symSize: 0x74 }
  - { offset: 0x19F36, size: 0x8, addend: 0x0, symName: __ZNSt3__16__treeINS_12basic_stringIcNS_11char_traitsIcEENS_9allocatorIcEEEENS_4lessIS6_EENS4_IS6_EEE3endB8ne190107Ev, symObjAddr: 0xB968, symBinAddr: 0x100013488, symSize: 0x1EC }
  - { offset: 0x19F5D, size: 0x8, addend: 0x0, symName: __ZNSt3__121__tree_const_iteratorINS_12basic_stringIcNS_11char_traitsIcEENS_9allocatorIcEEEEPNS_11__tree_nodeIS6_PvEElEC1B8ne190107ENS_15__tree_iteratorIS6_SA_lEE, symObjAddr: 0xBB54, symBinAddr: 0x100013674, symSize: 0x6C }
  - { offset: 0x19F96, size: 0x8, addend: 0x0, symName: __ZNSt3__16__treeINS_12basic_stringIcNS_11char_traitsIcEENS_9allocatorIcEEEENS_4lessIS6_EENS4_IS6_EEE10value_compB8ne190107Ev, symObjAddr: 0xBBC0, symBinAddr: 0x1000136E0, symSize: 0xC4 }
  - { offset: 0x19FBC, size: 0x8, addend: 0x0, symName: __ZNKSt3__14lessINS_12basic_stringIcNS_11char_traitsIcEENS_9allocatorIcEEEEEclB8ne190107ERKS6_S9_, symObjAddr: 0xBC84, symBinAddr: 0x1000137A4, symSize: 0x260 }
  - { offset: 0x1A003, size: 0x8, addend: 0x0, symName: __ZNKSt3__121__tree_const_iteratorINS_12basic_stringIcNS_11char_traitsIcEENS_9allocatorIcEEEEPNS_11__tree_nodeIS6_PvEElEdeB8ne190107Ev, symObjAddr: 0xBEE4, symBinAddr: 0x100013A04, symSize: 0xD8 }
  - { offset: 0x1A029, size: 0x8, addend: 0x0, symName: __ZNSt3__16__treeINS_12basic_stringIcNS_11char_traitsIcEENS_9allocatorIcEEEENS_4lessIS6_EENS4_IS6_EEE5beginB8ne190107Ev, symObjAddr: 0xBFBC, symBinAddr: 0x100013ADC, symSize: 0x254 }
  - { offset: 0x1A050, size: 0x8, addend: 0x0, symName: __ZNSt3__121__tree_const_iteratorINS_12basic_stringIcNS_11char_traitsIcEENS_9allocatorIcEEEEPNS_11__tree_nodeIS6_PvEElEmmB8ne190107Ev, symObjAddr: 0xC210, symBinAddr: 0x100013D30, symSize: 0x144 }
  - { offset: 0x1A076, size: 0x8, addend: 0x0, symName: __ZNSt3__16__treeINS_12basic_stringIcNS_11char_traitsIcEENS_9allocatorIcEEEENS_4lessIS6_EENS4_IS6_EEE12__find_equalIS6_EERPNS_16__tree_node_baseIPvEERPNS_15__tree_end_nodeISF_EERKT_, symObjAddr: 0xC354, symBinAddr: 0x100013E74, symSize: 0xB50 }
  - { offset: 0x1A0E1, size: 0x8, addend: 0x0, symName: __ZNKSt3__121__tree_const_iteratorINS_12basic_stringIcNS_11char_traitsIcEENS_9allocatorIcEEEEPNS_11__tree_nodeIS6_PvEElE8__get_npB8ne190107Ev, symObjAddr: 0xD07C, symBinAddr: 0x100014B9C, symSize: 0xD4 }
  - { offset: 0x1A107, size: 0x8, addend: 0x0, symName: __ZNSt3__115__tree_iteratorINS_12basic_stringIcNS_11char_traitsIcEENS_9allocatorIcEEEEPNS_11__tree_nodeIS6_PvEElEC1B8ne190107EPNS_15__tree_end_nodeIPNS_16__tree_node_baseIS8_EEEE, symObjAddr: 0xD150, symBinAddr: 0x100014C70, symSize: 0x6C }
  - { offset: 0x1A140, size: 0x8, addend: 0x0, symName: __ZNSt3__115__tree_iteratorINS_12basic_stringIcNS_11char_traitsIcEENS_9allocatorIcEEEEPNS_11__tree_nodeIS6_PvEElEC2B8ne190107EPNS_15__tree_end_nodeIPNS_16__tree_node_baseIS8_EEEE, symObjAddr: 0xD1BC, symBinAddr: 0x100014CDC, symSize: 0xB8 }
  - { offset: 0x1A179, size: 0x8, addend: 0x0, symName: __ZNSt3__121__tree_const_iteratorINS_12basic_stringIcNS_11char_traitsIcEENS_9allocatorIcEEEEPNS_11__tree_nodeIS6_PvEElEC2B8ne190107ENS_15__tree_iteratorIS6_SA_lEE, symObjAddr: 0xD274, symBinAddr: 0x100014D94, symSize: 0xB8 }
  - { offset: 0x1A1B2, size: 0x8, addend: 0x0, symName: __ZNSt3__117__compressed_pairImNS_4lessINS_12basic_stringIcNS_11char_traitsIcEENS_9allocatorIcEEEEEEE6secondB8ne190107Ev, symObjAddr: 0xD32C, symBinAddr: 0x100014E4C, symSize: 0xC4 }
  - { offset: 0x1A1D8, size: 0x8, addend: 0x0, symName: __ZNSt3__122__compressed_pair_elemINS_4lessINS_12basic_stringIcNS_11char_traitsIcEENS_9allocatorIcEEEEEELi1ELb1EE5__getB8ne190107Ev, symObjAddr: 0xD3F0, symBinAddr: 0x100014F10, symSize: 0x64 }
  - { offset: 0x1A20D, size: 0x8, addend: 0x0, symName: __ZNSt3__120_CmpUnspecifiedParamC1B8ne190107EMS0_i, symObjAddr: 0xD530, symBinAddr: 0x100015050, symSize: 0x58 }
  - { offset: 0x1A242, size: 0x8, addend: 0x0, symName: __ZNKSt3__112basic_stringIcNS_11char_traitsIcEENS_9allocatorIcEEEcvNS_17basic_string_viewIcS2_EEB8ne190107Ev, symObjAddr: 0xD784, symBinAddr: 0x1000152A4, symSize: 0x20C }
  - { offset: 0x1A269, size: 0x8, addend: 0x0, symName: __ZNKSt3__117basic_string_viewIcNS_11char_traitsIcEEE7compareES3_, symObjAddr: 0xD990, symBinAddr: 0x1000154B0, symSize: 0x3C0 }
  - { offset: 0x1A2C3, size: 0x8, addend: 0x0, symName: __ZNKSt3__117basic_string_viewIcNS_11char_traitsIcEEE4sizeB8ne190107Ev, symObjAddr: 0xDE2C, symBinAddr: 0x10001594C, symSize: 0xA0 }
  - { offset: 0x1A2E9, size: 0x8, addend: 0x0, symName: __ZNSt3__111char_traitsIcE7compareB8ne190107EPKcS3_m, symObjAddr: 0xDED4, symBinAddr: 0x1000159F4, symSize: 0x34 }
  - { offset: 0x1A328, size: 0x8, addend: 0x0, symName: __ZNKSt3__117basic_string_viewIcNS_11char_traitsIcEEE4dataB8ne190107Ev, symObjAddr: 0xDF08, symBinAddr: 0x100015A28, symSize: 0x9C }
  - { offset: 0x1A358, size: 0x8, addend: 0x0, symName: __ZNKSt3__16__lessIvvEclB8ne190107ImmEEbRKT_RKT0_, symObjAddr: 0xE21C, symBinAddr: 0x100015D3C, symSize: 0xD0 }
  - { offset: 0x1A3AC, size: 0x8, addend: 0x0, symName: __ZNKSt3__112basic_stringIcNS_11char_traitsIcEENS_9allocatorIcEEE4dataB8ne190107Ev, symObjAddr: 0xE2EC, symBinAddr: 0x100015E0C, symSize: 0x60 }
  - { offset: 0x1A3D2, size: 0x8, addend: 0x0, symName: __ZNSt3__117basic_string_viewIcNS_11char_traitsIcEEEC1B8ne190107EPKcm, symObjAddr: 0xE34C, symBinAddr: 0x100015E6C, symSize: 0x74 }
  - { offset: 0x1A41A, size: 0x8, addend: 0x0, symName: __ZNKSt3__112basic_stringIcNS_11char_traitsIcEENS_9allocatorIcEEE13__get_pointerB8ne190107Ev, symObjAddr: 0xE3DC, symBinAddr: 0x100015EFC, symSize: 0x88 }
  - { offset: 0x1A440, size: 0x8, addend: 0x0, symName: __ZNKSt3__112basic_stringIcNS_11char_traitsIcEENS_9allocatorIcEEE18__get_long_pointerB8ne190107Ev, symObjAddr: 0xE464, symBinAddr: 0x100015F84, symSize: 0x184 }
  - { offset: 0x1A466, size: 0x8, addend: 0x0, symName: __ZNKSt3__112basic_stringIcNS_11char_traitsIcEENS_9allocatorIcEEE19__get_short_pointerB8ne190107Ev, symObjAddr: 0xE5E8, symBinAddr: 0x100016108, symSize: 0x140 }
  - { offset: 0x1A48C, size: 0x8, addend: 0x0, symName: __ZNSt3__114pointer_traitsIPKcE10pointer_toB8ne190107ERS1_, symObjAddr: 0xE730, symBinAddr: 0x100016250, symSize: 0x14 }
  - { offset: 0x1A4AF, size: 0x8, addend: 0x0, symName: __ZNSt3__117basic_string_viewIcNS_11char_traitsIcEEEC2B8ne190107EPKcm, symObjAddr: 0xE744, symBinAddr: 0x100016264, symSize: 0xF8 }
  - { offset: 0x1A4F7, size: 0x8, addend: 0x0, symName: __ZNSt3__120_CmpUnspecifiedParamC2B8ne190107EMS0_i, symObjAddr: 0xE83C, symBinAddr: 0x10001635C, symSize: 0x4C }
  - { offset: 0x1A52C, size: 0x8, addend: 0x0, symName: __ZNKSt3__116__tree_node_baseIPvE15__parent_unsafeB8ne190107Ev, symObjAddr: 0xEE90, symBinAddr: 0x1000169B0, symSize: 0xD8 }
  - { offset: 0x1A552, size: 0x8, addend: 0x0, symName: __ZNKSt3__16__treeINS_12basic_stringIcNS_11char_traitsIcEENS_9allocatorIcEEEENS_4lessIS6_EENS4_IS6_EEE6__rootB8ne190107Ev, symObjAddr: 0xEF68, symBinAddr: 0x100016A88, symSize: 0x14C }
  - { offset: 0x1A578, size: 0x8, addend: 0x0, symName: __ZNKSt3__16__treeINS_12basic_stringIcNS_11char_traitsIcEENS_9allocatorIcEEEENS_4lessIS6_EENS4_IS6_EEE10__root_ptrB8ne190107Ev, symObjAddr: 0xF0B4, symBinAddr: 0x100016BD4, symSize: 0x94 }
  - { offset: 0x1A59E, size: 0x8, addend: 0x0, symName: __ZNSt3__121__tree_const_iteratorINS_12basic_stringIcNS_11char_traitsIcEENS_9allocatorIcEEEEPNS_11__tree_nodeIS6_PvEElEppB8ne190107Ev, symObjAddr: 0xF344, symBinAddr: 0x100016E64, symSize: 0x14C }
  - { offset: 0x1A5C4, size: 0x8, addend: 0x0, symName: __ZNSt3__16__treeINS_12basic_stringIcNS_11char_traitsIcEENS_9allocatorIcEEEENS_4lessIS6_EENS4_IS6_EEE12__node_allocB8ne190107Ev, symObjAddr: 0xF988, symBinAddr: 0x1000174A8, symSize: 0xC4 }
  - { offset: 0x1A5EA, size: 0x8, addend: 0x0, symName: __ZNSt3__116allocator_traitsINS_9allocatorINS_11__tree_nodeINS_12basic_stringIcNS_11char_traitsIcEENS1_IcEEEEPvEEEEE8allocateB8ne190107ERSA_m, symObjAddr: 0xFA54, symBinAddr: 0x100017574, symSize: 0x2C }
  - { offset: 0x1A61D, size: 0x8, addend: 0x0, symName: __ZNSt3__122__tree_node_destructorINS_9allocatorINS_11__tree_nodeINS_12basic_stringIcNS_11char_traitsIcEENS1_IcEEEEPvEEEEEC1B8ne190107ERSA_b, symObjAddr: 0xFA80, symBinAddr: 0x1000175A0, symSize: 0xA8 }
  - { offset: 0x1A66B, size: 0x8, addend: 0x0, symName: __ZNSt3__110unique_ptrINS_11__tree_nodeINS_12basic_stringIcNS_11char_traitsIcEENS_9allocatorIcEEEEPvEENS_22__tree_node_destructorINS5_IS9_EEEEEC1B8ne190107ILb1EvEEPS9_NS_16__dependent_typeINS_27__unique_ptr_deleter_sfinaeISC_EEXT_EE20__good_rval_ref_typeE, symObjAddr: 0xFB28, symBinAddr: 0x100017648, symSize: 0x74 }
  - { offset: 0x1A6BC, size: 0x8, addend: 0x0, symName: __ZNSt3__116allocator_traitsINS_9allocatorINS_11__tree_nodeINS_12basic_stringIcNS_11char_traitsIcEENS1_IcEEEEPvEEEEE9constructB8ne190107IS7_JRKS7_EvTnNS_9enable_ifIXntsr15__has_constructISA_PT_DpT0_EE5valueEiE4typeELi0EEEvRSA_SH_DpOSI_, symObjAddr: 0xFBA4, symBinAddr: 0x1000176C4, symSize: 0x70 }
  - { offset: 0x1A716, size: 0x8, addend: 0x0, symName: __ZNSt3__122__tree_key_value_typesINS_12basic_stringIcNS_11char_traitsIcEENS_9allocatorIcEEEEE9__get_ptrB8ne190107ERS6_, symObjAddr: 0xFC1C, symBinAddr: 0x10001773C, symSize: 0x14 }
  - { offset: 0x1A73A, size: 0x8, addend: 0x0, symName: __ZNKSt3__110unique_ptrINS_11__tree_nodeINS_12basic_stringIcNS_11char_traitsIcEENS_9allocatorIcEEEEPvEENS_22__tree_node_destructorINS5_IS9_EEEEEptB8ne190107Ev, symObjAddr: 0xFC30, symBinAddr: 0x100017750, symSize: 0x10C }
  - { offset: 0x1A760, size: 0x8, addend: 0x0, symName: __ZNSt3__110unique_ptrINS_11__tree_nodeINS_12basic_stringIcNS_11char_traitsIcEENS_9allocatorIcEEEEPvEENS_22__tree_node_destructorINS5_IS9_EEEEE11get_deleterB8ne190107Ev, symObjAddr: 0xFD3C, symBinAddr: 0x10001785C, symSize: 0xC8 }
  - { offset: 0x1A786, size: 0x8, addend: 0x0, symName: __ZNSt3__117__compressed_pairINS_15__tree_end_nodeIPNS_16__tree_node_baseIPvEEEENS_9allocatorINS_11__tree_nodeINS_12basic_stringIcNS_11char_traitsIcEENS7_IcEEEES3_EEEEE6secondB8ne190107Ev, symObjAddr: 0xFE04, symBinAddr: 0x100017924, symSize: 0xC4 }
  - { offset: 0x1A7AC, size: 0x8, addend: 0x0, symName: __ZNSt3__122__compressed_pair_elemINS_9allocatorINS_11__tree_nodeINS_12basic_stringIcNS_11char_traitsIcEENS1_IcEEEEPvEEEELi1ELb1EE5__getB8ne190107Ev, symObjAddr: 0xFEC8, symBinAddr: 0x1000179E8, symSize: 0x64 }
  - { offset: 0x1A7D2, size: 0x8, addend: 0x0, symName: __ZNSt3__19allocatorINS_11__tree_nodeINS_12basic_stringIcNS_11char_traitsIcEENS0_IcEEEEPvEEE8allocateB8ne190107Em, symObjAddr: 0xFF2C, symBinAddr: 0x100017A4C, symSize: 0xBC }
  - { offset: 0x1A811, size: 0x8, addend: 0x0, symName: __ZNSt3__116allocator_traitsINS_9allocatorINS_11__tree_nodeINS_12basic_stringIcNS_11char_traitsIcEENS1_IcEEEEPvEEEEE8max_sizeB8ne190107ISA_vTnNS_9enable_ifIXntsr14__has_max_sizeIKT_EE5valueEiE4typeELi0EEEmRKSA_, symObjAddr: 0xFFF0, symBinAddr: 0x100017B10, symSize: 0x54 }
  - { offset: 0x1A842, size: 0x8, addend: 0x0, symName: __ZNSt3__114numeric_limitsImE3maxB8ne190107Ev, symObjAddr: 0x10128, symBinAddr: 0x100017C48, symSize: 0x14 }
  - { offset: 0x1A856, size: 0x8, addend: 0x0, symName: __ZNSt3__123__libcpp_numeric_limitsImLb1EE3maxB8ne190107Ev, symObjAddr: 0x10144, symBinAddr: 0x100017C64, symSize: 0x8 }
  - { offset: 0x1A86A, size: 0x8, addend: 0x0, symName: __ZNSt3__122__tree_node_destructorINS_9allocatorINS_11__tree_nodeINS_12basic_stringIcNS_11char_traitsIcEENS1_IcEEEEPvEEEEEC2B8ne190107ERSA_b, symObjAddr: 0x1020C, symBinAddr: 0x100017D2C, symSize: 0x168 }
  - { offset: 0x1A8B2, size: 0x8, addend: 0x0, symName: __ZNSt3__110unique_ptrINS_11__tree_nodeINS_12basic_stringIcNS_11char_traitsIcEENS_9allocatorIcEEEEPvEENS_22__tree_node_destructorINS5_IS9_EEEEEC2B8ne190107ILb1EvEEPS9_NS_16__dependent_typeINS_27__unique_ptr_deleter_sfinaeISC_EEXT_EE20__good_rval_ref_typeE, symObjAddr: 0x10374, symBinAddr: 0x100017E94, symSize: 0x244 }
  - { offset: 0x1A909, size: 0x8, addend: 0x0, symName: __ZNSt3__117__compressed_pairIPNS_11__tree_nodeINS_12basic_stringIcNS_11char_traitsIcEENS_9allocatorIcEEEEPvEENS_22__tree_node_destructorINS5_IS9_EEEEEC1B8ne190107IRSA_SD_EEOT_OT0_, symObjAddr: 0x105B8, symBinAddr: 0x1000180D8, symSize: 0x74 }
  - { offset: 0x1A961, size: 0x8, addend: 0x0, symName: __ZNSt3__117__compressed_pairIPNS_11__tree_nodeINS_12basic_stringIcNS_11char_traitsIcEENS_9allocatorIcEEEEPvEENS_22__tree_node_destructorINS5_IS9_EEEEEC2B8ne190107IRSA_SD_EEOT_OT0_, symObjAddr: 0x1062C, symBinAddr: 0x10001814C, symSize: 0x168 }
  - { offset: 0x1A9B9, size: 0x8, addend: 0x0, symName: __ZNSt3__122__compressed_pair_elemIPNS_11__tree_nodeINS_12basic_stringIcNS_11char_traitsIcEENS_9allocatorIcEEEEPvEELi0ELb0EEC2B8ne190107IRSA_TnNS_9enable_ifIXntsr7is_sameISB_u7__decayIT_EEE5valueEiE4typeELi0EEEOSF_, symObjAddr: 0x10794, symBinAddr: 0x1000182B4, symSize: 0x124 }
  - { offset: 0x1AA00, size: 0x8, addend: 0x0, symName: __ZNSt3__122__compressed_pair_elemINS_22__tree_node_destructorINS_9allocatorINS_11__tree_nodeINS_12basic_stringIcNS_11char_traitsIcEENS2_IcEEEEPvEEEEEELi1ELb0EEC2B8ne190107ISC_TnNS_9enable_ifIXntsr7is_sameISD_u7__decayIT_EEE5valueEiE4typeELi0EEEOSG_, symObjAddr: 0x108B8, symBinAddr: 0x1000183D8, symSize: 0x70 }
  - { offset: 0x1AA47, size: 0x8, addend: 0x0, symName: __ZNKSt3__117__compressed_pairIPNS_11__tree_nodeINS_12basic_stringIcNS_11char_traitsIcEENS_9allocatorIcEEEEPvEENS_22__tree_node_destructorINS5_IS9_EEEEE5firstB8ne190107Ev, symObjAddr: 0x10A84, symBinAddr: 0x1000185A4, symSize: 0xEC }
  - { offset: 0x1AA6D, size: 0x8, addend: 0x0, symName: __ZNKSt3__122__compressed_pair_elemIPNS_11__tree_nodeINS_12basic_stringIcNS_11char_traitsIcEENS_9allocatorIcEEEEPvEELi0ELb0EE5__getB8ne190107Ev, symObjAddr: 0x10B70, symBinAddr: 0x100018690, symSize: 0x8C }
  - { offset: 0x1AA93, size: 0x8, addend: 0x0, symName: __ZNSt3__117__compressed_pairIPNS_11__tree_nodeINS_12basic_stringIcNS_11char_traitsIcEENS_9allocatorIcEEEEPvEENS_22__tree_node_destructorINS5_IS9_EEEEE6secondB8ne190107Ev, symObjAddr: 0x10BFC, symBinAddr: 0x10001871C, symSize: 0xFC }
  - { offset: 0x1AAB9, size: 0x8, addend: 0x0, symName: __ZNSt3__122__compressed_pair_elemINS_22__tree_node_destructorINS_9allocatorINS_11__tree_nodeINS_12basic_stringIcNS_11char_traitsIcEENS2_IcEEEEPvEEEEEELi1ELb0EE5__getB8ne190107Ev, symObjAddr: 0x10CF8, symBinAddr: 0x100018818, symSize: 0x8C }
  - { offset: 0x1AADF, size: 0x8, addend: 0x0, symName: __ZNSt3__16__treeINS_12basic_stringIcNS_11char_traitsIcEENS_9allocatorIcEEEENS_4lessIS6_EENS4_IS6_EEE4sizeB8ne190107Ev, symObjAddr: 0x12134, symBinAddr: 0x100019C54, symSize: 0xD8 }
  - { offset: 0x1AB05, size: 0x8, addend: 0x0, symName: __ZNSt3__116__tree_node_baseIPvE12__set_parentB8ne190107EPS2_, symObjAddr: 0x134F4, symBinAddr: 0x10001B014, symSize: 0xE0 }
  - { offset: 0x1AB3A, size: 0x8, addend: 0x0, symName: __ZNSt3__117__compressed_pairImNS_4lessINS_12basic_stringIcNS_11char_traitsIcEENS_9allocatorIcEEEEEEE5firstB8ne190107Ev, symObjAddr: 0x135D4, symBinAddr: 0x10001B0F4, symSize: 0xEC }
  - { offset: 0x1AB60, size: 0x8, addend: 0x0, symName: __ZNSt3__122__compressed_pair_elemImLi0ELb0EE5__getB8ne190107Ev, symObjAddr: 0x136C0, symBinAddr: 0x10001B1E0, symSize: 0x8C }
  - { offset: 0x1AB86, size: 0x8, addend: 0x0, symName: __ZNSt3__117__compressed_pairIPNS_11__tree_nodeINS_12basic_stringIcNS_11char_traitsIcEENS_9allocatorIcEEEEPvEENS_22__tree_node_destructorINS5_IS9_EEEEE5firstB8ne190107Ev, symObjAddr: 0x1374C, symBinAddr: 0x10001B26C, symSize: 0xEC }
  - { offset: 0x1ABAC, size: 0x8, addend: 0x0, symName: __ZNSt3__122__compressed_pair_elemIPNS_11__tree_nodeINS_12basic_stringIcNS_11char_traitsIcEENS_9allocatorIcEEEEPvEELi0ELb0EE5__getB8ne190107Ev, symObjAddr: 0x13838, symBinAddr: 0x10001B358, symSize: 0x8C }
  - { offset: 0x1ABD2, size: 0x8, addend: 0x0, symName: __ZNSt3__110unique_ptrINS_11__tree_nodeINS_12basic_stringIcNS_11char_traitsIcEENS_9allocatorIcEEEEPvEENS_22__tree_node_destructorINS5_IS9_EEEEED2B8ne190107Ev, symObjAddr: 0x138C4, symBinAddr: 0x10001B3E4, symSize: 0x68 }
  - { offset: 0x1ABFC, size: 0x8, addend: 0x0, symName: __ZNSt3__110unique_ptrINS_11__tree_nodeINS_12basic_stringIcNS_11char_traitsIcEENS_9allocatorIcEEEEPvEENS_22__tree_node_destructorINS5_IS9_EEEEE5resetB8ne190107EPS9_, symObjAddr: 0x1392C, symBinAddr: 0x10001B44C, symSize: 0x254 }
  - { offset: 0x1AC40, size: 0x8, addend: 0x0, symName: __ZNSt3__122__tree_node_destructorINS_9allocatorINS_11__tree_nodeINS_12basic_stringIcNS_11char_traitsIcEENS1_IcEEEEPvEEEEEclB8ne190107EPS9_, symObjAddr: 0x13B80, symBinAddr: 0x10001B6A0, symSize: 0x25C }
  - { offset: 0x1AC75, size: 0x8, addend: 0x0, symName: __ZNSt3__116allocator_traitsINS_9allocatorINS_11__tree_nodeINS_12basic_stringIcNS_11char_traitsIcEENS1_IcEEEEPvEEEEE7destroyB8ne190107IS7_vTnNS_9enable_ifIXntsr13__has_destroyISA_PT_EE5valueEiE4typeELi0EEEvRSA_SF_, symObjAddr: 0x13DE4, symBinAddr: 0x10001B904, symSize: 0x28 }
  - { offset: 0x1ACB5, size: 0x8, addend: 0x0, symName: __ZNSt3__116allocator_traitsINS_9allocatorINS_11__tree_nodeINS_12basic_stringIcNS_11char_traitsIcEENS1_IcEEEEPvEEEEE10deallocateB8ne190107ERSA_PS9_m, symObjAddr: 0x13E14, symBinAddr: 0x10001B934, symSize: 0x34 }
  - { offset: 0x1ACF7, size: 0x8, addend: 0x0, symName: __ZNSt3__19allocatorINS_11__tree_nodeINS_12basic_stringIcNS_11char_traitsIcEENS0_IcEEEEPvEEE10deallocateB8ne190107EPS8_m, symObjAddr: 0x13EAC, symBinAddr: 0x10001B9CC, symSize: 0x74 }
  - { offset: 0x1AD39, size: 0x8, addend: 0x0, symName: __ZNSt3__115__tree_iteratorINS_12basic_stringIcNS_11char_traitsIcEENS_9allocatorIcEEEEPNS_11__tree_nodeIS6_PvEElEC2B8ne190107ESA_, symObjAddr: 0x14068, symBinAddr: 0x10001BB88, symSize: 0xE8 }
  - { offset: 0x1AD72, size: 0x8, addend: 0x0, symName: __ZNSt3__14pairINS_15__tree_iteratorINS_12basic_stringIcNS_11char_traitsIcEENS_9allocatorIcEEEEPNS_11__tree_nodeIS7_PvEElEEbEC2B8ne190107ISC_RbTnNS_9enable_ifIXclsr10_CheckArgsE23__is_pair_constructibleIT_T0_EEEiE4typeELi0EEEOSH_OSI_, symObjAddr: 0x14150, symBinAddr: 0x10001BC70, symSize: 0x194 }
  - { offset: 0x1ADD0, size: 0x8, addend: 0x0, symName: __ZNSt3__16__treeINS_12basic_stringIcNS_11char_traitsIcEENS_9allocatorIcEEEENS_4lessIS6_EENS4_IS6_EEED2Ev, symObjAddr: 0x142E4, symBinAddr: 0x10001BE04, symSize: 0x70 }
  - { offset: 0x1ADFA, size: 0x8, addend: 0x0, symName: __ZNSt3__16__treeINS_12basic_stringIcNS_11char_traitsIcEENS_9allocatorIcEEEENS_4lessIS6_EENS4_IS6_EEE7destroyEPNS_11__tree_nodeIS6_PvEE, symObjAddr: 0x14354, symBinAddr: 0x10001BE74, symSize: 0x3DC }
  - { offset: 0x1AE45, size: 0x8, addend: 0x0, symName: __ZNSt3__14pairIKNS_12basic_stringIcNS_11char_traitsIcEENS_9allocatorIcEEEENS_3setIS6_NS_4lessIS6_EENS4_IS6_EEEEEC2B8ne190107ILb1ETnNS_9enable_ifIXclsr13_CheckArgsDepIXT_EEE23__is_pair_constructibleIRS7_RKSC_EEEiE4typeELi0EEESG_SI_, symObjAddr: 0x14730, symBinAddr: 0x10001C250, symSize: 0x120 }
  - { offset: 0x1AE9B, size: 0x8, addend: 0x0, symName: __ZNSt3__13setINS_12basic_stringIcNS_11char_traitsIcEENS_9allocatorIcEEEENS_4lessIS6_EENS4_IS6_EEEC1B8ne190107ERKSA_, symObjAddr: 0x14850, symBinAddr: 0x10001C370, symSize: 0x6C }
  - { offset: 0x1AED4, size: 0x8, addend: 0x0, symName: __ZNSt3__13setINS_12basic_stringIcNS_11char_traitsIcEENS_9allocatorIcEEEENS_4lessIS6_EENS4_IS6_EEEC2B8ne190107ERKSA_, symObjAddr: 0x148BC, symBinAddr: 0x10001C3DC, symSize: 0x148 }
  - { offset: 0x1AF0D, size: 0x8, addend: 0x0, symName: __ZNSt3__16__treeINS_12basic_stringIcNS_11char_traitsIcEENS_9allocatorIcEEEENS_4lessIS6_EENS4_IS6_EEEC1ERKSA_, symObjAddr: 0x14A04, symBinAddr: 0x10001C524, symSize: 0x6C }
  - { offset: 0x1AF46, size: 0x8, addend: 0x0, symName: __ZNSt3__13setINS_12basic_stringIcNS_11char_traitsIcEENS_9allocatorIcEEEENS_4lessIS6_EENS4_IS6_EEE6insertB8ne190107INS_21__tree_const_iteratorIS6_PNS_11__tree_nodeIS6_PvEElEEEEvT_SI_, symObjAddr: 0x14A70, symBinAddr: 0x10001C590, symSize: 0x2EC }
  - { offset: 0x1AFBA, size: 0x8, addend: 0x0, symName: __ZNKSt3__13setINS_12basic_stringIcNS_11char_traitsIcEENS_9allocatorIcEEEENS_4lessIS6_EENS4_IS6_EEE5beginB8ne190107Ev, symObjAddr: 0x14D5C, symBinAddr: 0x10001C87C, symSize: 0x98 }
  - { offset: 0x1AFE0, size: 0x8, addend: 0x0, symName: __ZNSt3__16__treeINS_12basic_stringIcNS_11char_traitsIcEENS_9allocatorIcEEEENS_4lessIS6_EENS4_IS6_EEEC2ERKSA_, symObjAddr: 0x14DF4, symBinAddr: 0x10001C914, symSize: 0x404 }
  - { offset: 0x1B01B, size: 0x8, addend: 0x0, symName: __ZNSt3__116allocator_traitsINS_9allocatorINS_11__tree_nodeINS_12basic_stringIcNS_11char_traitsIcEENS1_IcEEEEPvEEEEE37select_on_container_copy_constructionB8ne190107ISA_vTnNS_9enable_ifIXntsr43__has_select_on_container_copy_constructionIKT_EE5valueEiE4typeELi0EEESA_RKSA_, symObjAddr: 0x15200, symBinAddr: 0x10001CD20, symSize: 0x10 }
  - { offset: 0x1B04F, size: 0x8, addend: 0x0, symName: __ZNKSt3__16__treeINS_12basic_stringIcNS_11char_traitsIcEENS_9allocatorIcEEEENS_4lessIS6_EENS4_IS6_EEE12__node_allocB8ne190107Ev, symObjAddr: 0x15210, symBinAddr: 0x10001CD30, symSize: 0xC4 }
  - { offset: 0x1B07B, size: 0x8, addend: 0x0, symName: __ZNSt3__117__compressed_pairINS_15__tree_end_nodeIPNS_16__tree_node_baseIPvEEEENS_9allocatorINS_11__tree_nodeINS_12basic_stringIcNS_11char_traitsIcEENS7_IcEEEES3_EEEEEC1B8ne190107INS_18__default_init_tagESF_EEOT_OT0_, symObjAddr: 0x152D4, symBinAddr: 0x10001CDF4, symSize: 0x74 }
  - { offset: 0x1B0D3, size: 0x8, addend: 0x0, symName: __ZNKSt3__16__treeINS_12basic_stringIcNS_11char_traitsIcEENS_9allocatorIcEEEENS_4lessIS6_EENS4_IS6_EEE10value_compB8ne190107Ev, symObjAddr: 0x15348, symBinAddr: 0x10001CE68, symSize: 0xC4 }
  - { offset: 0x1B0F9, size: 0x8, addend: 0x0, symName: __ZNKSt3__117__compressed_pairINS_15__tree_end_nodeIPNS_16__tree_node_baseIPvEEEENS_9allocatorINS_11__tree_nodeINS_12basic_stringIcNS_11char_traitsIcEENS7_IcEEEES3_EEEEE6secondB8ne190107Ev, symObjAddr: 0x1540C, symBinAddr: 0x10001CF2C, symSize: 0xC4 }
  - { offset: 0x1B11F, size: 0x8, addend: 0x0, symName: __ZNKSt3__122__compressed_pair_elemINS_9allocatorINS_11__tree_nodeINS_12basic_stringIcNS_11char_traitsIcEENS1_IcEEEEPvEEEELi1ELb1EE5__getB8ne190107Ev, symObjAddr: 0x154D0, symBinAddr: 0x10001CFF0, symSize: 0x64 }
  - { offset: 0x1B145, size: 0x8, addend: 0x0, symName: __ZNSt3__117__compressed_pairINS_15__tree_end_nodeIPNS_16__tree_node_baseIPvEEEENS_9allocatorINS_11__tree_nodeINS_12basic_stringIcNS_11char_traitsIcEENS7_IcEEEES3_EEEEEC2B8ne190107INS_18__default_init_tagESF_EEOT_OT0_, symObjAddr: 0x15534, symBinAddr: 0x10001D054, symSize: 0xF0 }
  - { offset: 0x1B19D, size: 0x8, addend: 0x0, symName: __ZNSt3__122__compressed_pair_elemINS_15__tree_end_nodeIPNS_16__tree_node_baseIPvEEEELi0ELb0EEC2B8ne190107ENS_18__default_init_tagE, symObjAddr: 0x15624, symBinAddr: 0x10001D144, symSize: 0x64 }
  - { offset: 0x1B1D2, size: 0x8, addend: 0x0, symName: __ZNSt3__122__compressed_pair_elemINS_9allocatorINS_11__tree_nodeINS_12basic_stringIcNS_11char_traitsIcEENS1_IcEEEEPvEEEELi1ELb1EEC2B8ne190107ISA_TnNS_9enable_ifIXntsr7is_sameISB_u7__decayIT_EEE5valueEiE4typeELi0EEEOSE_, symObjAddr: 0x15688, symBinAddr: 0x10001D1A8, symSize: 0x4C }
  - { offset: 0x1B219, size: 0x8, addend: 0x0, symName: __ZNKSt3__117__compressed_pairImNS_4lessINS_12basic_stringIcNS_11char_traitsIcEENS_9allocatorIcEEEEEEE6secondB8ne190107Ev, symObjAddr: 0x156D4, symBinAddr: 0x10001D1F4, symSize: 0xC4 }
  - { offset: 0x1B23F, size: 0x8, addend: 0x0, symName: __ZNKSt3__122__compressed_pair_elemINS_4lessINS_12basic_stringIcNS_11char_traitsIcEENS_9allocatorIcEEEEEELi1ELb1EE5__getB8ne190107Ev, symObjAddr: 0x15798, symBinAddr: 0x10001D2B8, symSize: 0x64 }
  - { offset: 0x1B265, size: 0x8, addend: 0x0, symName: __ZNKSt3__16__treeINS_12basic_stringIcNS_11char_traitsIcEENS_9allocatorIcEEEENS_4lessIS6_EENS4_IS6_EEE5beginB8ne190107Ev, symObjAddr: 0x158A4, symBinAddr: 0x10001D3C4, symSize: 0x254 }
  - { offset: 0x1B28C, size: 0x8, addend: 0x0, symName: __ZNKSt3__16__treeINS_12basic_stringIcNS_11char_traitsIcEENS_9allocatorIcEEEENS_4lessIS6_EENS4_IS6_EEE12__begin_nodeB8ne190107Ev, symObjAddr: 0x15AF8, symBinAddr: 0x10001D618, symSize: 0x8C }
  - { offset: 0x1B2B2, size: 0x8, addend: 0x0, symName: __ZNSt3__13mapINS_12basic_stringIcNS_11char_traitsIcEENS_9allocatorIcEEEENS_3setIS6_NS_4lessIS6_EENS4_IS6_EEEES9_NS4_INS_4pairIKS6_SB_EEEEEC2B8ne190107ESt16initializer_listISE_ERKS9_, symObjAddr: 0x15B84, symBinAddr: 0x10001D6A4, symSize: 0x310 }
  - { offset: 0x1B300, size: 0x8, addend: 0x0, symName: __ZNSt3__119__map_value_compareINS_12basic_stringIcNS_11char_traitsIcEENS_9allocatorIcEEEENS_12__value_typeIS6_NS_3setIS6_NS_4lessIS6_EENS4_IS6_EEEEEESA_Lb1EEC1B8ne190107ESA_, symObjAddr: 0x15E94, symBinAddr: 0x10001D9B4, symSize: 0x50 }
  - { offset: 0x1B339, size: 0x8, addend: 0x0, symName: __ZNSt3__16__treeINS_12__value_typeINS_12basic_stringIcNS_11char_traitsIcEENS_9allocatorIcEEEENS_3setIS7_NS_4lessIS7_EENS5_IS7_EEEEEENS_19__map_value_compareIS7_SD_SA_Lb1EEENS5_ISD_EEEC1ERKSF_, symObjAddr: 0x15EE4, symBinAddr: 0x10001DA04, symSize: 0x6C }
  - { offset: 0x1B372, size: 0x8, addend: 0x0, symName: __ZNSt3__13mapINS_12basic_stringIcNS_11char_traitsIcEENS_9allocatorIcEEEENS_3setIS6_NS_4lessIS6_EENS4_IS6_EEEES9_NS4_INS_4pairIKS6_SB_EEEEE6insertB8ne190107IPKSE_EEvT_SK_, symObjAddr: 0x15F50, symBinAddr: 0x10001DA70, symSize: 0x2E4 }
  - { offset: 0x1B3E0, size: 0x8, addend: 0x0, symName: __ZNKSt16initializer_listINSt3__14pairIKNS0_12basic_stringIcNS0_11char_traitsIcEENS0_9allocatorIcEEEENS0_3setIS7_NS0_4lessIS7_EENS5_IS7_EEEEEEE5beginB8ne190107Ev, symObjAddr: 0x16234, symBinAddr: 0x10001DD54, symSize: 0x9C }
  - { offset: 0x1B406, size: 0x8, addend: 0x0, symName: __ZNKSt16initializer_listINSt3__14pairIKNS0_12basic_stringIcNS0_11char_traitsIcEENS0_9allocatorIcEEEENS0_3setIS7_NS0_4lessIS7_EENS5_IS7_EEEEEEE3endB8ne190107Ev, symObjAddr: 0x162D0, symBinAddr: 0x10001DDF0, symSize: 0x184 }
  - { offset: 0x1B42C, size: 0x8, addend: 0x0, symName: __ZNSt3__16__treeINS_12__value_typeINS_12basic_stringIcNS_11char_traitsIcEENS_9allocatorIcEEEENS_3setIS7_NS_4lessIS7_EENS5_IS7_EEEEEENS_19__map_value_compareIS7_SD_SA_Lb1EEENS5_ISD_EEED1Ev, symObjAddr: 0x16454, symBinAddr: 0x10001DF74, symSize: 0x64 }
  - { offset: 0x1B456, size: 0x8, addend: 0x0, symName: __ZNSt3__119__map_value_compareINS_12basic_stringIcNS_11char_traitsIcEENS_9allocatorIcEEEENS_12__value_typeIS6_NS_3setIS6_NS_4lessIS6_EENS4_IS6_EEEEEESA_Lb1EEC2B8ne190107ESA_, symObjAddr: 0x164B8, symBinAddr: 0x10001DFD8, symSize: 0x48 }
  - { offset: 0x1B48F, size: 0x8, addend: 0x0, symName: __ZNSt3__16__treeINS_12__value_typeINS_12basic_stringIcNS_11char_traitsIcEENS_9allocatorIcEEEENS_3setIS7_NS_4lessIS7_EENS5_IS7_EEEEEENS_19__map_value_compareIS7_SD_SA_Lb1EEENS5_ISD_EEEC2ERKSF_, symObjAddr: 0x16500, symBinAddr: 0x10001E020, symSize: 0x2F0 }
  - { offset: 0x1B4CA, size: 0x8, addend: 0x0, symName: __ZNSt3__117__compressed_pairINS_15__tree_end_nodeIPNS_16__tree_node_baseIPvEEEENS_9allocatorINS_11__tree_nodeINS_12__value_typeINS_12basic_stringIcNS_11char_traitsIcEENS7_IcEEEENS_3setISE_NS_4lessISE_EENS7_ISE_EEEEEES3_EEEEEC1B8ne190107ILb1ETnNS_9enable_ifIXaasr16__dependent_typeINS_24is_default_constructibleIS6_EEXT_EEE5valuesr16__dependent_typeINSQ_ISM_EEXT_EEE5valueEiE4typeELi0EEEv, symObjAddr: 0x167F0, symBinAddr: 0x10001E310, symSize: 0x64 }
  - { offset: 0x1B504, size: 0x8, addend: 0x0, symName: __ZNSt3__117__compressed_pairImNS_19__map_value_compareINS_12basic_stringIcNS_11char_traitsIcEENS_9allocatorIcEEEENS_12__value_typeIS7_NS_3setIS7_NS_4lessIS7_EENS5_IS7_EEEEEESB_Lb1EEEEC1B8ne190107IiRKSF_EEOT_OT0_, symObjAddr: 0x16854, symBinAddr: 0x10001E374, symSize: 0x74 }
  - { offset: 0x1B55C, size: 0x8, addend: 0x0, symName: __ZNSt3__16__treeINS_12__value_typeINS_12basic_stringIcNS_11char_traitsIcEENS_9allocatorIcEEEENS_3setIS7_NS_4lessIS7_EENS5_IS7_EEEEEENS_19__map_value_compareIS7_SD_SA_Lb1EEENS5_ISD_EEE10__end_nodeB8ne190107Ev, symObjAddr: 0x168C8, symBinAddr: 0x10001E3E8, symSize: 0xDC }
  - { offset: 0x1B582, size: 0x8, addend: 0x0, symName: __ZNSt3__16__treeINS_12__value_typeINS_12basic_stringIcNS_11char_traitsIcEENS_9allocatorIcEEEENS_3setIS7_NS_4lessIS7_EENS5_IS7_EEEEEENS_19__map_value_compareIS7_SD_SA_Lb1EEENS5_ISD_EEE12__begin_nodeB8ne190107Ev, symObjAddr: 0x169A4, symBinAddr: 0x10001E4C4, symSize: 0x8C }
  - { offset: 0x1B5A8, size: 0x8, addend: 0x0, symName: __ZNSt3__117__compressed_pairINS_15__tree_end_nodeIPNS_16__tree_node_baseIPvEEEENS_9allocatorINS_11__tree_nodeINS_12__value_typeINS_12basic_stringIcNS_11char_traitsIcEENS7_IcEEEENS_3setISE_NS_4lessISE_EENS7_ISE_EEEEEES3_EEEEEC2B8ne190107ILb1ETnNS_9enable_ifIXaasr16__dependent_typeINS_24is_default_constructibleIS6_EEXT_EEE5valuesr16__dependent_typeINSQ_ISM_EEXT_EEE5valueEiE4typeELi0EEEv, symObjAddr: 0x16A30, symBinAddr: 0x10001E550, symSize: 0xC0 }
  - { offset: 0x1B5E2, size: 0x8, addend: 0x0, symName: __ZNSt3__122__compressed_pair_elemINS_9allocatorINS_11__tree_nodeINS_12__value_typeINS_12basic_stringIcNS_11char_traitsIcEENS1_IcEEEENS_3setIS8_NS_4lessIS8_EENS1_IS8_EEEEEEPvEEEELi1ELb1EEC2B8ne190107ENS_16__value_init_tagE, symObjAddr: 0x16AF0, symBinAddr: 0x10001E610, symSize: 0x70 }
  - { offset: 0x1B617, size: 0x8, addend: 0x0, symName: __ZNSt3__19allocatorINS_11__tree_nodeINS_12__value_typeINS_12basic_stringIcNS_11char_traitsIcEENS0_IcEEEENS_3setIS7_NS_4lessIS7_EENS0_IS7_EEEEEEPvEEEC2B8ne190107Ev, symObjAddr: 0x16B60, symBinAddr: 0x10001E680, symSize: 0x70 }
  - { offset: 0x1B641, size: 0x8, addend: 0x0, symName: __ZNSt3__116__non_trivial_ifILb1ENS_9allocatorINS_11__tree_nodeINS_12__value_typeINS_12basic_stringIcNS_11char_traitsIcEENS1_IcEEEENS_3setIS8_NS_4lessIS8_EENS1_IS8_EEEEEEPvEEEEEC2B8ne190107Ev, symObjAddr: 0x16BD0, symBinAddr: 0x10001E6F0, symSize: 0x48 }
  - { offset: 0x1B66B, size: 0x8, addend: 0x0, symName: __ZNSt3__117__compressed_pairImNS_19__map_value_compareINS_12basic_stringIcNS_11char_traitsIcEENS_9allocatorIcEEEENS_12__value_typeIS7_NS_3setIS7_NS_4lessIS7_EENS5_IS7_EEEEEESB_Lb1EEEEC2B8ne190107IiRKSF_EEOT_OT0_, symObjAddr: 0x16C18, symBinAddr: 0x10001E738, symSize: 0x12C }
  - { offset: 0x1B6C3, size: 0x8, addend: 0x0, symName: __ZNSt3__122__compressed_pair_elemINS_19__map_value_compareINS_12basic_stringIcNS_11char_traitsIcEENS_9allocatorIcEEEENS_12__value_typeIS7_NS_3setIS7_NS_4lessIS7_EENS5_IS7_EEEEEESB_Lb1EEELi1ELb1EEC2B8ne190107IRKSF_TnNS_9enable_ifIXntsr7is_sameISG_u7__decayIT_EEE5valueEiE4typeELi0EEEOSL_, symObjAddr: 0x16D44, symBinAddr: 0x10001E864, symSize: 0x4C }
  - { offset: 0x1B70A, size: 0x8, addend: 0x0, symName: __ZNSt3__117__compressed_pairINS_15__tree_end_nodeIPNS_16__tree_node_baseIPvEEEENS_9allocatorINS_11__tree_nodeINS_12__value_typeINS_12basic_stringIcNS_11char_traitsIcEENS7_IcEEEENS_3setISE_NS_4lessISE_EENS7_ISE_EEEEEES3_EEEEE5firstB8ne190107Ev, symObjAddr: 0x16D90, symBinAddr: 0x10001E8B0, symSize: 0xEC }
  - { offset: 0x1B730, size: 0x8, addend: 0x0, symName: __ZNKSt3__13mapINS_12basic_stringIcNS_11char_traitsIcEENS_9allocatorIcEEEENS_3setIS6_NS_4lessIS6_EENS4_IS6_EEEES9_NS4_INS_4pairIKS6_SB_EEEEE4cendB8ne190107Ev, symObjAddr: 0x16E7C, symBinAddr: 0x10001E99C, symSize: 0x64 }
  - { offset: 0x1B756, size: 0x8, addend: 0x0, symName: __ZNSt3__13mapINS_12basic_stringIcNS_11char_traitsIcEENS_9allocatorIcEEEENS_3setIS6_NS_4lessIS6_EENS4_IS6_EEEES9_NS4_INS_4pairIKS6_SB_EEEEE6insertB8ne190107ENS_20__map_const_iteratorINS_21__tree_const_iteratorINS_12__value_typeIS6_SB_EEPNS_11__tree_nodeISK_PvEElEEEERKSE_, symObjAddr: 0x16EE0, symBinAddr: 0x10001EA00, symSize: 0x298 }
  - { offset: 0x1B79D, size: 0x8, addend: 0x0, symName: __ZNSt3__120__map_const_iteratorINS_21__tree_const_iteratorINS_12__value_typeINS_12basic_stringIcNS_11char_traitsIcEENS_9allocatorIcEEEENS_3setIS8_NS_4lessIS8_EENS6_IS8_EEEEEEPNS_11__tree_nodeISE_PvEElEEEC1B8ne190107ESJ_, symObjAddr: 0x17178, symBinAddr: 0x10001EC98, symSize: 0x6C }
  - { offset: 0x1B7D6, size: 0x8, addend: 0x0, symName: __ZNKSt3__13mapINS_12basic_stringIcNS_11char_traitsIcEENS_9allocatorIcEEEENS_3setIS6_NS_4lessIS6_EENS4_IS6_EEEES9_NS4_INS_4pairIKS6_SB_EEEEE3endB8ne190107Ev, symObjAddr: 0x171E4, symBinAddr: 0x10001ED04, symSize: 0x228 }
  - { offset: 0x1B7FD, size: 0x8, addend: 0x0, symName: __ZNKSt3__16__treeINS_12__value_typeINS_12basic_stringIcNS_11char_traitsIcEENS_9allocatorIcEEEENS_3setIS7_NS_4lessIS7_EENS5_IS7_EEEEEENS_19__map_value_compareIS7_SD_SA_Lb1EEENS5_ISD_EEE3endB8ne190107Ev, symObjAddr: 0x1740C, symBinAddr: 0x10001EF2C, symSize: 0x1EC }
  - { offset: 0x1B824, size: 0x8, addend: 0x0, symName: __ZNKSt3__16__treeINS_12__value_typeINS_12basic_stringIcNS_11char_traitsIcEENS_9allocatorIcEEEENS_3setIS7_NS_4lessIS7_EENS5_IS7_EEEEEENS_19__map_value_compareIS7_SD_SA_Lb1EEENS5_ISD_EEE10__end_nodeB8ne190107Ev, symObjAddr: 0x175F8, symBinAddr: 0x10001F118, symSize: 0xDC }
  - { offset: 0x1B84A, size: 0x8, addend: 0x0, symName: __ZNSt3__121__tree_const_iteratorINS_12__value_typeINS_12basic_stringIcNS_11char_traitsIcEENS_9allocatorIcEEEENS_3setIS7_NS_4lessIS7_EENS5_IS7_EEEEEEPNS_11__tree_nodeISD_PvEElEC1B8ne190107EPNS_15__tree_end_nodeIPNS_16__tree_node_baseISF_EEEE, symObjAddr: 0x176D4, symBinAddr: 0x10001F1F4, symSize: 0x6C }
  - { offset: 0x1B883, size: 0x8, addend: 0x0, symName: __ZNKSt3__117__compressed_pairINS_15__tree_end_nodeIPNS_16__tree_node_baseIPvEEEENS_9allocatorINS_11__tree_nodeINS_12__value_typeINS_12basic_stringIcNS_11char_traitsIcEENS7_IcEEEENS_3setISE_NS_4lessISE_EENS7_ISE_EEEEEES3_EEEEE5firstB8ne190107Ev, symObjAddr: 0x17740, symBinAddr: 0x10001F260, symSize: 0xEC }
  - { offset: 0x1B8A9, size: 0x8, addend: 0x0, symName: __ZNSt3__121__tree_const_iteratorINS_12__value_typeINS_12basic_stringIcNS_11char_traitsIcEENS_9allocatorIcEEEENS_3setIS7_NS_4lessIS7_EENS5_IS7_EEEEEEPNS_11__tree_nodeISD_PvEElEC2B8ne190107EPNS_15__tree_end_nodeIPNS_16__tree_node_baseISF_EEEE, symObjAddr: 0x1782C, symBinAddr: 0x10001F34C, symSize: 0xB8 }
  - { offset: 0x1B8E2, size: 0x8, addend: 0x0, symName: __ZNSt3__16__treeINS_12__value_typeINS_12basic_stringIcNS_11char_traitsIcEENS_9allocatorIcEEEENS_3setIS7_NS_4lessIS7_EENS5_IS7_EEEEEENS_19__map_value_compareIS7_SD_SA_Lb1EEENS5_ISD_EEE15__insert_uniqueB8ne190107ENS_21__tree_const_iteratorISD_PNS_11__tree_nodeISD_PvEElEERKNS_4pairIKS7_SC_EE, symObjAddr: 0x178E4, symBinAddr: 0x10001F404, symSize: 0x198 }
  - { offset: 0x1B926, size: 0x8, addend: 0x0, symName: __ZNSt3__114__map_iteratorINS_15__tree_iteratorINS_12__value_typeINS_12basic_stringIcNS_11char_traitsIcEENS_9allocatorIcEEEENS_3setIS8_NS_4lessIS8_EENS6_IS8_EEEEEEPNS_11__tree_nodeISE_PvEElEEEC1B8ne190107ESJ_, symObjAddr: 0x17A7C, symBinAddr: 0x10001F59C, symSize: 0x6C }
  - { offset: 0x1B95F, size: 0x8, addend: 0x0, symName: __ZNSt3__16__treeINS_12__value_typeINS_12basic_stringIcNS_11char_traitsIcEENS_9allocatorIcEEEENS_3setIS7_NS_4lessIS7_EENS5_IS7_EEEEEENS_19__map_value_compareIS7_SD_SA_Lb1EEENS5_ISD_EEE30__emplace_hint_unique_key_argsIS7_JRKNS_4pairIKS7_SC_EEEEENSJ_INS_15__tree_iteratorISD_PNS_11__tree_nodeISD_PvEElEEbEENS_21__tree_const_iteratorISD_SS_lEERKT_DpOT0_, symObjAddr: 0x17AE8, symBinAddr: 0x10001F608, symSize: 0x5AC }
  - { offset: 0x1BA3F, size: 0x8, addend: 0x0, symName: __ZNSt3__122__tree_key_value_typesINS_12__value_typeINS_12basic_stringIcNS_11char_traitsIcEENS_9allocatorIcEEEENS_3setIS7_NS_4lessIS7_EENS5_IS7_EEEEEEE9__get_keyB8ne190107IKNS_4pairIKS7_SC_EETnNS_9enable_ifIXsr17__is_same_uncvrefIT_SI_EE5valueEiE4typeELi0EEERSH_RSL_, symObjAddr: 0x1809C, symBinAddr: 0x10001FBBC, symSize: 0x58 }
  - { offset: 0x1BA72, size: 0x8, addend: 0x0, symName: __ZNSt3__16__treeINS_12__value_typeINS_12basic_stringIcNS_11char_traitsIcEENS_9allocatorIcEEEENS_3setIS7_NS_4lessIS7_EENS5_IS7_EEEEEENS_19__map_value_compareIS7_SD_SA_Lb1EEENS5_ISD_EEE12__find_equalIS7_EERPNS_16__tree_node_baseIPvEENS_21__tree_const_iteratorISD_PNS_11__tree_nodeISD_SK_EElEERPNS_15__tree_end_nodeISM_EESN_RKT_, symObjAddr: 0x180F4, symBinAddr: 0x10001FC14, symSize: 0xF78 }
  - { offset: 0x1BB28, size: 0x8, addend: 0x0, symName: __ZNSt3__16__treeINS_12__value_typeINS_12basic_stringIcNS_11char_traitsIcEENS_9allocatorIcEEEENS_3setIS7_NS_4lessIS7_EENS5_IS7_EEEEEENS_19__map_value_compareIS7_SD_SA_Lb1EEENS5_ISD_EEE16__construct_nodeIJRKNS_4pairIKS7_SC_EEEEENS_10unique_ptrINS_11__tree_nodeISD_PvEENS_22__tree_node_destructorINS5_ISR_EEEEEEDpOT_, symObjAddr: 0x1906C, symBinAddr: 0x100020B8C, symSize: 0x5BC }
  - { offset: 0x1BB8B, size: 0x8, addend: 0x0, symName: __ZNSt3__16__treeINS_12__value_typeINS_12basic_stringIcNS_11char_traitsIcEENS_9allocatorIcEEEENS_3setIS7_NS_4lessIS7_EENS5_IS7_EEEEEENS_19__map_value_compareIS7_SD_SA_Lb1EEENS5_ISD_EEE16__insert_node_atEPNS_15__tree_end_nodeIPNS_16__tree_node_baseIPvEEEERSM_SM_, symObjAddr: 0x19628, symBinAddr: 0x100021148, symSize: 0x720 }
  - { offset: 0x1BBDE, size: 0x8, addend: 0x0, symName: __ZNKSt3__110unique_ptrINS_11__tree_nodeINS_12__value_typeINS_12basic_stringIcNS_11char_traitsIcEENS_9allocatorIcEEEENS_3setIS8_NS_4lessIS8_EENS6_IS8_EEEEEEPvEENS_22__tree_node_destructorINS6_ISG_EEEEE3getB8ne190107Ev, symObjAddr: 0x19D48, symBinAddr: 0x100021868, symSize: 0x10C }
  - { offset: 0x1BC04, size: 0x8, addend: 0x0, symName: __ZNSt3__110unique_ptrINS_11__tree_nodeINS_12__value_typeINS_12basic_stringIcNS_11char_traitsIcEENS_9allocatorIcEEEENS_3setIS8_NS_4lessIS8_EENS6_IS8_EEEEEEPvEENS_22__tree_node_destructorINS6_ISG_EEEEE7releaseB8ne190107Ev, symObjAddr: 0x19E54, symBinAddr: 0x100021974, symSize: 0x1BC }
  - { offset: 0x1BC39, size: 0x8, addend: 0x0, symName: __ZNSt3__110unique_ptrINS_11__tree_nodeINS_12__value_typeINS_12basic_stringIcNS_11char_traitsIcEENS_9allocatorIcEEEENS_3setIS8_NS_4lessIS8_EENS6_IS8_EEEEEEPvEENS_22__tree_node_destructorINS6_ISG_EEEEED1B8ne190107Ev, symObjAddr: 0x1A010, symBinAddr: 0x100021B30, symSize: 0x64 }
  - { offset: 0x1BC63, size: 0x8, addend: 0x0, symName: __ZNSt3__115__tree_iteratorINS_12__value_typeINS_12basic_stringIcNS_11char_traitsIcEENS_9allocatorIcEEEENS_3setIS7_NS_4lessIS7_EENS5_IS7_EEEEEEPNS_11__tree_nodeISD_PvEElEC1B8ne190107ESH_, symObjAddr: 0x1A074, symBinAddr: 0x100021B94, symSize: 0x6C }
  - { offset: 0x1BCA2, size: 0x8, addend: 0x0, symName: __ZNSt3__14pairINS_15__tree_iteratorINS_12__value_typeINS_12basic_stringIcNS_11char_traitsIcEENS_9allocatorIcEEEENS_3setIS8_NS_4lessIS8_EENS6_IS8_EEEEEEPNS_11__tree_nodeISE_PvEElEEbEC1B8ne190107ISJ_RbTnNS_9enable_ifIXclsr10_CheckArgsE23__is_pair_constructibleIT_T0_EEEiE4typeELi0EEEOSO_OSP_, symObjAddr: 0x1A0E0, symBinAddr: 0x100021C00, symSize: 0x74 }
  - { offset: 0x1BD00, size: 0x8, addend: 0x0, symName: __ZNSt3__16__treeINS_12__value_typeINS_12basic_stringIcNS_11char_traitsIcEENS_9allocatorIcEEEENS_3setIS7_NS_4lessIS7_EENS5_IS7_EEEEEENS_19__map_value_compareIS7_SD_SA_Lb1EEENS5_ISD_EEE3endB8ne190107Ev, symObjAddr: 0x1A254, symBinAddr: 0x100021D74, symSize: 0x1EC }
  - { offset: 0x1BD27, size: 0x8, addend: 0x0, symName: __ZNSt3__121__tree_const_iteratorINS_12__value_typeINS_12basic_stringIcNS_11char_traitsIcEENS_9allocatorIcEEEENS_3setIS7_NS_4lessIS7_EENS5_IS7_EEEEEEPNS_11__tree_nodeISD_PvEElEC1B8ne190107ENS_15__tree_iteratorISD_SH_lEE, symObjAddr: 0x1A440, symBinAddr: 0x100021F60, symSize: 0x6C }
  - { offset: 0x1BD60, size: 0x8, addend: 0x0, symName: __ZNSt3__16__treeINS_12__value_typeINS_12basic_stringIcNS_11char_traitsIcEENS_9allocatorIcEEEENS_3setIS7_NS_4lessIS7_EENS5_IS7_EEEEEENS_19__map_value_compareIS7_SD_SA_Lb1EEENS5_ISD_EEE10value_compB8ne190107Ev, symObjAddr: 0x1A4AC, symBinAddr: 0x100021FCC, symSize: 0xC4 }
  - { offset: 0x1BD86, size: 0x8, addend: 0x0, symName: __ZNKSt3__119__map_value_compareINS_12basic_stringIcNS_11char_traitsIcEENS_9allocatorIcEEEENS_12__value_typeIS6_NS_3setIS6_NS_4lessIS6_EENS4_IS6_EEEEEESA_Lb1EEclB8ne190107ERKS6_RKSD_, symObjAddr: 0x1A570, symBinAddr: 0x100022090, symSize: 0x148 }
  - { offset: 0x1BDCA, size: 0x8, addend: 0x0, symName: __ZNKSt3__121__tree_const_iteratorINS_12__value_typeINS_12basic_stringIcNS_11char_traitsIcEENS_9allocatorIcEEEENS_3setIS7_NS_4lessIS7_EENS5_IS7_EEEEEEPNS_11__tree_nodeISD_PvEElEdeB8ne190107Ev, symObjAddr: 0x1A6B8, symBinAddr: 0x1000221D8, symSize: 0xD8 }
  - { offset: 0x1BDF0, size: 0x8, addend: 0x0, symName: __ZNSt3__16__treeINS_12__value_typeINS_12basic_stringIcNS_11char_traitsIcEENS_9allocatorIcEEEENS_3setIS7_NS_4lessIS7_EENS5_IS7_EEEEEENS_19__map_value_compareIS7_SD_SA_Lb1EEENS5_ISD_EEE5beginB8ne190107Ev, symObjAddr: 0x1A790, symBinAddr: 0x1000222B0, symSize: 0x254 }
  - { offset: 0x1BE17, size: 0x8, addend: 0x0, symName: __ZNKSt3__119__map_value_compareINS_12basic_stringIcNS_11char_traitsIcEENS_9allocatorIcEEEENS_12__value_typeIS6_NS_3setIS6_NS_4lessIS6_EENS4_IS6_EEEEEESA_Lb1EEclB8ne190107ERKSD_RKS6_, symObjAddr: 0x1A9E4, symBinAddr: 0x100022504, symSize: 0x148 }
  - { offset: 0x1BE5B, size: 0x8, addend: 0x0, symName: __ZNSt3__121__tree_const_iteratorINS_12__value_typeINS_12basic_stringIcNS_11char_traitsIcEENS_9allocatorIcEEEENS_3setIS7_NS_4lessIS7_EENS5_IS7_EEEEEEPNS_11__tree_nodeISD_PvEElEmmB8ne190107Ev, symObjAddr: 0x1AB2C, symBinAddr: 0x10002264C, symSize: 0x144 }
  - { offset: 0x1BE81, size: 0x8, addend: 0x0, symName: __ZNSt3__16__treeINS_12__value_typeINS_12basic_stringIcNS_11char_traitsIcEENS_9allocatorIcEEEENS_3setIS7_NS_4lessIS7_EENS5_IS7_EEEEEENS_19__map_value_compareIS7_SD_SA_Lb1EEENS5_ISD_EEE12__find_equalIS7_EERPNS_16__tree_node_baseIPvEERPNS_15__tree_end_nodeISM_EERKT_, symObjAddr: 0x1AC70, symBinAddr: 0x100022790, symSize: 0xB50 }
  - { offset: 0x1BEEC, size: 0x8, addend: 0x0, symName: __ZNKSt3__121__tree_const_iteratorINS_12__value_typeINS_12basic_stringIcNS_11char_traitsIcEENS_9allocatorIcEEEENS_3setIS7_NS_4lessIS7_EENS5_IS7_EEEEEEPNS_11__tree_nodeISD_PvEElE8__get_npB8ne190107Ev, symObjAddr: 0x1B998, symBinAddr: 0x1000234B8, symSize: 0xD4 }
  - { offset: 0x1BF12, size: 0x8, addend: 0x0, symName: __ZNSt3__115__tree_iteratorINS_12__value_typeINS_12basic_stringIcNS_11char_traitsIcEENS_9allocatorIcEEEENS_3setIS7_NS_4lessIS7_EENS5_IS7_EEEEEEPNS_11__tree_nodeISD_PvEElEC1B8ne190107EPNS_15__tree_end_nodeIPNS_16__tree_node_baseISF_EEEE, symObjAddr: 0x1BA6C, symBinAddr: 0x10002358C, symSize: 0x6C }
  - { offset: 0x1BF4B, size: 0x8, addend: 0x0, symName: __ZNSt3__115__tree_iteratorINS_12__value_typeINS_12basic_stringIcNS_11char_traitsIcEENS_9allocatorIcEEEENS_3setIS7_NS_4lessIS7_EENS5_IS7_EEEEEEPNS_11__tree_nodeISD_PvEElEC2B8ne190107EPNS_15__tree_end_nodeIPNS_16__tree_node_baseISF_EEEE, symObjAddr: 0x1BAD8, symBinAddr: 0x1000235F8, symSize: 0xB8 }
  - { offset: 0x1BF84, size: 0x8, addend: 0x0, symName: __ZNSt3__121__tree_const_iteratorINS_12__value_typeINS_12basic_stringIcNS_11char_traitsIcEENS_9allocatorIcEEEENS_3setIS7_NS_4lessIS7_EENS5_IS7_EEEEEEPNS_11__tree_nodeISD_PvEElEC2B8ne190107ENS_15__tree_iteratorISD_SH_lEE, symObjAddr: 0x1BB90, symBinAddr: 0x1000236B0, symSize: 0xB8 }
  - { offset: 0x1BFBD, size: 0x8, addend: 0x0, symName: __ZNSt3__117__compressed_pairImNS_19__map_value_compareINS_12basic_stringIcNS_11char_traitsIcEENS_9allocatorIcEEEENS_12__value_typeIS7_NS_3setIS7_NS_4lessIS7_EENS5_IS7_EEEEEESB_Lb1EEEE6secondB8ne190107Ev, symObjAddr: 0x1BC48, symBinAddr: 0x100023768, symSize: 0xC4 }
  - { offset: 0x1BFE3, size: 0x8, addend: 0x0, symName: __ZNSt3__122__compressed_pair_elemINS_19__map_value_compareINS_12basic_stringIcNS_11char_traitsIcEENS_9allocatorIcEEEENS_12__value_typeIS7_NS_3setIS7_NS_4lessIS7_EENS5_IS7_EEEEEESB_Lb1EEELi1ELb1EE5__getB8ne190107Ev, symObjAddr: 0x1BD0C, symBinAddr: 0x10002382C, symSize: 0x64 }
  - { offset: 0x1C009, size: 0x8, addend: 0x0, symName: __ZNKSt3__112__value_typeINS_12basic_stringIcNS_11char_traitsIcEENS_9allocatorIcEEEENS_3setIS6_NS_4lessIS6_EENS4_IS6_EEEEE11__get_valueB8ne190107Ev, symObjAddr: 0x1BD70, symBinAddr: 0x100023890, symSize: 0x94 }
  - { offset: 0x1C02F, size: 0x8, addend: 0x0, symName: __ZNKSt3__16__treeINS_12__value_typeINS_12basic_stringIcNS_11char_traitsIcEENS_9allocatorIcEEEENS_3setIS7_NS_4lessIS7_EENS5_IS7_EEEEEENS_19__map_value_compareIS7_SD_SA_Lb1EEENS5_ISD_EEE6__rootB8ne190107Ev, symObjAddr: 0x1BE4C, symBinAddr: 0x10002396C, symSize: 0x14C }
  - { offset: 0x1C055, size: 0x8, addend: 0x0, symName: __ZNKSt3__16__treeINS_12__value_typeINS_12basic_stringIcNS_11char_traitsIcEENS_9allocatorIcEEEENS_3setIS7_NS_4lessIS7_EENS5_IS7_EEEEEENS_19__map_value_compareIS7_SD_SA_Lb1EEENS5_ISD_EEE10__root_ptrB8ne190107Ev, symObjAddr: 0x1BF98, symBinAddr: 0x100023AB8, symSize: 0x94 }
  - { offset: 0x1C07B, size: 0x8, addend: 0x0, symName: __ZNSt3__121__tree_const_iteratorINS_12__value_typeINS_12basic_stringIcNS_11char_traitsIcEENS_9allocatorIcEEEENS_3setIS7_NS_4lessIS7_EENS5_IS7_EEEEEEPNS_11__tree_nodeISD_PvEElEppB8ne190107Ev, symObjAddr: 0x1C20C, symBinAddr: 0x100023D2C, symSize: 0x14C }
  - { offset: 0x1C0A1, size: 0x8, addend: 0x0, symName: __ZNSt3__16__treeINS_12__value_typeINS_12basic_stringIcNS_11char_traitsIcEENS_9allocatorIcEEEENS_3setIS7_NS_4lessIS7_EENS5_IS7_EEEEEENS_19__map_value_compareIS7_SD_SA_Lb1EEENS5_ISD_EEE12__node_allocB8ne190107Ev, symObjAddr: 0x1C358, symBinAddr: 0x100023E78, symSize: 0xC4 }
  - { offset: 0x1C0C7, size: 0x8, addend: 0x0, symName: __ZNSt3__116allocator_traitsINS_9allocatorINS_11__tree_nodeINS_12__value_typeINS_12basic_stringIcNS_11char_traitsIcEENS1_IcEEEENS_3setIS8_NS_4lessIS8_EENS1_IS8_EEEEEEPvEEEEE8allocateB8ne190107ERSH_m, symObjAddr: 0x1C424, symBinAddr: 0x100023F44, symSize: 0x2C }
  - { offset: 0x1C0FA, size: 0x8, addend: 0x0, symName: __ZNSt3__122__tree_node_destructorINS_9allocatorINS_11__tree_nodeINS_12__value_typeINS_12basic_stringIcNS_11char_traitsIcEENS1_IcEEEENS_3setIS8_NS_4lessIS8_EENS1_IS8_EEEEEEPvEEEEEC1B8ne190107ERSH_b, symObjAddr: 0x1C450, symBinAddr: 0x100023F70, symSize: 0xA8 }
  - { offset: 0x1C148, size: 0x8, addend: 0x0, symName: __ZNSt3__110unique_ptrINS_11__tree_nodeINS_12__value_typeINS_12basic_stringIcNS_11char_traitsIcEENS_9allocatorIcEEEENS_3setIS8_NS_4lessIS8_EENS6_IS8_EEEEEEPvEENS_22__tree_node_destructorINS6_ISG_EEEEEC1B8ne190107ILb1EvEEPSG_NS_16__dependent_typeINS_27__unique_ptr_deleter_sfinaeISJ_EEXT_EE20__good_rval_ref_typeE, symObjAddr: 0x1C4F8, symBinAddr: 0x100024018, symSize: 0x74 }
  - { offset: 0x1C199, size: 0x8, addend: 0x0, symName: __ZNSt3__116allocator_traitsINS_9allocatorINS_11__tree_nodeINS_12__value_typeINS_12basic_stringIcNS_11char_traitsIcEENS1_IcEEEENS_3setIS8_NS_4lessIS8_EENS1_IS8_EEEEEEPvEEEEE9constructB8ne190107INS_4pairIKS8_SD_EEJRKSM_EvTnNS_9enable_ifIXntsr15__has_constructISH_PT_DpT0_EE5valueEiE4typeELi0EEEvRSH_SR_DpOSS_, symObjAddr: 0x1C574, symBinAddr: 0x100024094, symSize: 0x70 }
  - { offset: 0x1C1F3, size: 0x8, addend: 0x0, symName: __ZNSt3__122__tree_key_value_typesINS_12__value_typeINS_12basic_stringIcNS_11char_traitsIcEENS_9allocatorIcEEEENS_3setIS7_NS_4lessIS7_EENS5_IS7_EEEEEEE9__get_ptrB8ne190107ERSD_, symObjAddr: 0x1C5EC, symBinAddr: 0x10002410C, symSize: 0x4C }
  - { offset: 0x1C217, size: 0x8, addend: 0x0, symName: __ZNKSt3__110unique_ptrINS_11__tree_nodeINS_12__value_typeINS_12basic_stringIcNS_11char_traitsIcEENS_9allocatorIcEEEENS_3setIS8_NS_4lessIS8_EENS6_IS8_EEEEEEPvEENS_22__tree_node_destructorINS6_ISG_EEEEEptB8ne190107Ev, symObjAddr: 0x1C638, symBinAddr: 0x100024158, symSize: 0x10C }
  - { offset: 0x1C23D, size: 0x8, addend: 0x0, symName: __ZNSt3__110unique_ptrINS_11__tree_nodeINS_12__value_typeINS_12basic_stringIcNS_11char_traitsIcEENS_9allocatorIcEEEENS_3setIS8_NS_4lessIS8_EENS6_IS8_EEEEEEPvEENS_22__tree_node_destructorINS6_ISG_EEEEE11get_deleterB8ne190107Ev, symObjAddr: 0x1C744, symBinAddr: 0x100024264, symSize: 0xC8 }
  - { offset: 0x1C263, size: 0x8, addend: 0x0, symName: __ZNSt3__117__compressed_pairINS_15__tree_end_nodeIPNS_16__tree_node_baseIPvEEEENS_9allocatorINS_11__tree_nodeINS_12__value_typeINS_12basic_stringIcNS_11char_traitsIcEENS7_IcEEEENS_3setISE_NS_4lessISE_EENS7_ISE_EEEEEES3_EEEEE6secondB8ne190107Ev, symObjAddr: 0x1C80C, symBinAddr: 0x10002432C, symSize: 0xC4 }
  - { offset: 0x1C289, size: 0x8, addend: 0x0, symName: __ZNSt3__122__compressed_pair_elemINS_9allocatorINS_11__tree_nodeINS_12__value_typeINS_12basic_stringIcNS_11char_traitsIcEENS1_IcEEEENS_3setIS8_NS_4lessIS8_EENS1_IS8_EEEEEEPvEEEELi1ELb1EE5__getB8ne190107Ev, symObjAddr: 0x1C8D0, symBinAddr: 0x1000243F0, symSize: 0x64 }
  - { offset: 0x1C2AF, size: 0x8, addend: 0x0, symName: __ZNSt3__19allocatorINS_11__tree_nodeINS_12__value_typeINS_12basic_stringIcNS_11char_traitsIcEENS0_IcEEEENS_3setIS7_NS_4lessIS7_EENS0_IS7_EEEEEEPvEEE8allocateB8ne190107Em, symObjAddr: 0x1C934, symBinAddr: 0x100024454, symSize: 0xBC }
  - { offset: 0x1C2EE, size: 0x8, addend: 0x0, symName: __ZNSt3__116allocator_traitsINS_9allocatorINS_11__tree_nodeINS_12__value_typeINS_12basic_stringIcNS_11char_traitsIcEENS1_IcEEEENS_3setIS8_NS_4lessIS8_EENS1_IS8_EEEEEEPvEEEEE8max_sizeB8ne190107ISH_vTnNS_9enable_ifIXntsr14__has_max_sizeIKT_EE5valueEiE4typeELi0EEEmRKSH_, symObjAddr: 0x1C9F8, symBinAddr: 0x100024518, symSize: 0x54 }
  - { offset: 0x1C31F, size: 0x8, addend: 0x0, symName: __ZNSt3__122__tree_node_destructorINS_9allocatorINS_11__tree_nodeINS_12__value_typeINS_12basic_stringIcNS_11char_traitsIcEENS1_IcEEEENS_3setIS8_NS_4lessIS8_EENS1_IS8_EEEEEEPvEEEEEC2B8ne190107ERSH_b, symObjAddr: 0x1CA4C, symBinAddr: 0x10002456C, symSize: 0x168 }
  - { offset: 0x1C367, size: 0x8, addend: 0x0, symName: __ZNSt3__110unique_ptrINS_11__tree_nodeINS_12__value_typeINS_12basic_stringIcNS_11char_traitsIcEENS_9allocatorIcEEEENS_3setIS8_NS_4lessIS8_EENS6_IS8_EEEEEEPvEENS_22__tree_node_destructorINS6_ISG_EEEEEC2B8ne190107ILb1EvEEPSG_NS_16__dependent_typeINS_27__unique_ptr_deleter_sfinaeISJ_EEXT_EE20__good_rval_ref_typeE, symObjAddr: 0x1CBB4, symBinAddr: 0x1000246D4, symSize: 0x244 }
  - { offset: 0x1C3BE, size: 0x8, addend: 0x0, symName: __ZNSt3__117__compressed_pairIPNS_11__tree_nodeINS_12__value_typeINS_12basic_stringIcNS_11char_traitsIcEENS_9allocatorIcEEEENS_3setIS8_NS_4lessIS8_EENS6_IS8_EEEEEEPvEENS_22__tree_node_destructorINS6_ISG_EEEEEC1B8ne190107IRSH_SK_EEOT_OT0_, symObjAddr: 0x1CDF8, symBinAddr: 0x100024918, symSize: 0x74 }
  - { offset: 0x1C416, size: 0x8, addend: 0x0, symName: __ZNSt3__117__compressed_pairIPNS_11__tree_nodeINS_12__value_typeINS_12basic_stringIcNS_11char_traitsIcEENS_9allocatorIcEEEENS_3setIS8_NS_4lessIS8_EENS6_IS8_EEEEEEPvEENS_22__tree_node_destructorINS6_ISG_EEEEEC2B8ne190107IRSH_SK_EEOT_OT0_, symObjAddr: 0x1CE6C, symBinAddr: 0x10002498C, symSize: 0x168 }
  - { offset: 0x1C46E, size: 0x8, addend: 0x0, symName: __ZNSt3__122__compressed_pair_elemIPNS_11__tree_nodeINS_12__value_typeINS_12basic_stringIcNS_11char_traitsIcEENS_9allocatorIcEEEENS_3setIS8_NS_4lessIS8_EENS6_IS8_EEEEEEPvEELi0ELb0EEC2B8ne190107IRSH_TnNS_9enable_ifIXntsr7is_sameISI_u7__decayIT_EEE5valueEiE4typeELi0EEEOSM_, symObjAddr: 0x1CFD4, symBinAddr: 0x100024AF4, symSize: 0x124 }
  - { offset: 0x1C4B5, size: 0x8, addend: 0x0, symName: __ZNSt3__122__compressed_pair_elemINS_22__tree_node_destructorINS_9allocatorINS_11__tree_nodeINS_12__value_typeINS_12basic_stringIcNS_11char_traitsIcEENS2_IcEEEENS_3setIS9_NS_4lessIS9_EENS2_IS9_EEEEEEPvEEEEEELi1ELb0EEC2B8ne190107ISJ_TnNS_9enable_ifIXntsr7is_sameISK_u7__decayIT_EEE5valueEiE4typeELi0EEEOSN_, symObjAddr: 0x1D0F8, symBinAddr: 0x100024C18, symSize: 0x70 }
  - { offset: 0x1C4FC, size: 0x8, addend: 0x0, symName: __ZNSt3__14pairIKNS_12basic_stringIcNS_11char_traitsIcEENS_9allocatorIcEEEENS_3setIS6_NS_4lessIS6_EENS4_IS6_EEEEEC1B8ne190107ERKSD_, symObjAddr: 0x1D2C4, symBinAddr: 0x100024DE4, symSize: 0x6C }
  - { offset: 0x1C531, size: 0x8, addend: 0x0, symName: __ZNSt3__14pairIKNS_12basic_stringIcNS_11char_traitsIcEENS_9allocatorIcEEEENS_3setIS6_NS_4lessIS6_EENS4_IS6_EEEEEC2B8ne190107ERKSD_, symObjAddr: 0x1D330, symBinAddr: 0x100024E50, symSize: 0x128 }
  - { offset: 0x1C566, size: 0x8, addend: 0x0, symName: __ZNSt3__112__value_typeINS_12basic_stringIcNS_11char_traitsIcEENS_9allocatorIcEEEENS_3setIS6_NS_4lessIS6_EENS4_IS6_EEEEE11__get_valueB8ne190107Ev, symObjAddr: 0x1D458, symBinAddr: 0x100024F78, symSize: 0x94 }
  - { offset: 0x1C58C, size: 0x8, addend: 0x0, symName: __ZNKSt3__117__compressed_pairIPNS_11__tree_nodeINS_12__value_typeINS_12basic_stringIcNS_11char_traitsIcEENS_9allocatorIcEEEENS_3setIS8_NS_4lessIS8_EENS6_IS8_EEEEEEPvEENS_22__tree_node_destructorINS6_ISG_EEEEE5firstB8ne190107Ev, symObjAddr: 0x1D534, symBinAddr: 0x100025054, symSize: 0xEC }
  - { offset: 0x1C5B2, size: 0x8, addend: 0x0, symName: __ZNKSt3__122__compressed_pair_elemIPNS_11__tree_nodeINS_12__value_typeINS_12basic_stringIcNS_11char_traitsIcEENS_9allocatorIcEEEENS_3setIS8_NS_4lessIS8_EENS6_IS8_EEEEEEPvEELi0ELb0EE5__getB8ne190107Ev, symObjAddr: 0x1D620, symBinAddr: 0x100025140, symSize: 0x8C }
  - { offset: 0x1C5D8, size: 0x8, addend: 0x0, symName: __ZNSt3__117__compressed_pairIPNS_11__tree_nodeINS_12__value_typeINS_12basic_stringIcNS_11char_traitsIcEENS_9allocatorIcEEEENS_3setIS8_NS_4lessIS8_EENS6_IS8_EEEEEEPvEENS_22__tree_node_destructorINS6_ISG_EEEEE6secondB8ne190107Ev, symObjAddr: 0x1D6AC, symBinAddr: 0x1000251CC, symSize: 0xFC }
  - { offset: 0x1C5FE, size: 0x8, addend: 0x0, symName: __ZNSt3__122__compressed_pair_elemINS_22__tree_node_destructorINS_9allocatorINS_11__tree_nodeINS_12__value_typeINS_12basic_stringIcNS_11char_traitsIcEENS2_IcEEEENS_3setIS9_NS_4lessIS9_EENS2_IS9_EEEEEEPvEEEEEELi1ELb0EE5__getB8ne190107Ev, symObjAddr: 0x1D7A8, symBinAddr: 0x1000252C8, symSize: 0x8C }
  - { offset: 0x1C624, size: 0x8, addend: 0x0, symName: __ZNSt3__16__treeINS_12__value_typeINS_12basic_stringIcNS_11char_traitsIcEENS_9allocatorIcEEEENS_3setIS7_NS_4lessIS7_EENS5_IS7_EEEEEENS_19__map_value_compareIS7_SD_SA_Lb1EEENS5_ISD_EEE4sizeB8ne190107Ev, symObjAddr: 0x1D834, symBinAddr: 0x100025354, symSize: 0xD8 }
  - { offset: 0x1C64A, size: 0x8, addend: 0x0, symName: __ZNSt3__117__compressed_pairImNS_19__map_value_compareINS_12basic_stringIcNS_11char_traitsIcEENS_9allocatorIcEEEENS_12__value_typeIS7_NS_3setIS7_NS_4lessIS7_EENS5_IS7_EEEEEESB_Lb1EEEE5firstB8ne190107Ev, symObjAddr: 0x1D90C, symBinAddr: 0x10002542C, symSize: 0xEC }
  - { offset: 0x1C670, size: 0x8, addend: 0x0, symName: __ZNSt3__117__compressed_pairIPNS_11__tree_nodeINS_12__value_typeINS_12basic_stringIcNS_11char_traitsIcEENS_9allocatorIcEEEENS_3setIS8_NS_4lessIS8_EENS6_IS8_EEEEEEPvEENS_22__tree_node_destructorINS6_ISG_EEEEE5firstB8ne190107Ev, symObjAddr: 0x1D9F8, symBinAddr: 0x100025518, symSize: 0xEC }
  - { offset: 0x1C696, size: 0x8, addend: 0x0, symName: __ZNSt3__122__compressed_pair_elemIPNS_11__tree_nodeINS_12__value_typeINS_12basic_stringIcNS_11char_traitsIcEENS_9allocatorIcEEEENS_3setIS8_NS_4lessIS8_EENS6_IS8_EEEEEEPvEELi0ELb0EE5__getB8ne190107Ev, symObjAddr: 0x1DAE4, symBinAddr: 0x100025604, symSize: 0x8C }
  - { offset: 0x1C6BC, size: 0x8, addend: 0x0, symName: __ZNSt3__110unique_ptrINS_11__tree_nodeINS_12__value_typeINS_12basic_stringIcNS_11char_traitsIcEENS_9allocatorIcEEEENS_3setIS8_NS_4lessIS8_EENS6_IS8_EEEEEEPvEENS_22__tree_node_destructorINS6_ISG_EEEEED2B8ne190107Ev, symObjAddr: 0x1DB70, symBinAddr: 0x100025690, symSize: 0x68 }
  - { offset: 0x1C6E6, size: 0x8, addend: 0x0, symName: __ZNSt3__110unique_ptrINS_11__tree_nodeINS_12__value_typeINS_12basic_stringIcNS_11char_traitsIcEENS_9allocatorIcEEEENS_3setIS8_NS_4lessIS8_EENS6_IS8_EEEEEEPvEENS_22__tree_node_destructorINS6_ISG_EEEEE5resetB8ne190107EPSG_, symObjAddr: 0x1DBD8, symBinAddr: 0x1000256F8, symSize: 0x254 }
  - { offset: 0x1C72A, size: 0x8, addend: 0x0, symName: __ZNSt3__122__tree_node_destructorINS_9allocatorINS_11__tree_nodeINS_12__value_typeINS_12basic_stringIcNS_11char_traitsIcEENS1_IcEEEENS_3setIS8_NS_4lessIS8_EENS1_IS8_EEEEEEPvEEEEEclB8ne190107EPSG_, symObjAddr: 0x1DE2C, symBinAddr: 0x10002594C, symSize: 0x264 }
  - { offset: 0x1C75F, size: 0x8, addend: 0x0, symName: __ZNSt3__116allocator_traitsINS_9allocatorINS_11__tree_nodeINS_12__value_typeINS_12basic_stringIcNS_11char_traitsIcEENS1_IcEEEENS_3setIS8_NS_4lessIS8_EENS1_IS8_EEEEEEPvEEEEE7destroyB8ne190107INS_4pairIKS8_SD_EEvTnNS_9enable_ifIXntsr13__has_destroyISH_PT_EE5valueEiE4typeELi0EEEvRSH_SP_, symObjAddr: 0x1E098, symBinAddr: 0x100025BB8, symSize: 0x28 }
  - { offset: 0x1C79F, size: 0x8, addend: 0x0, symName: __ZNSt3__116allocator_traitsINS_9allocatorINS_11__tree_nodeINS_12__value_typeINS_12basic_stringIcNS_11char_traitsIcEENS1_IcEEEENS_3setIS8_NS_4lessIS8_EENS1_IS8_EEEEEEPvEEEEE10deallocateB8ne190107ERSH_PSG_m, symObjAddr: 0x1E0C8, symBinAddr: 0x100025BE8, symSize: 0x34 }
  - { offset: 0x1C7E1, size: 0x8, addend: 0x0, symName: __ZNSt3__19allocatorINS_11__tree_nodeINS_12__value_typeINS_12basic_stringIcNS_11char_traitsIcEENS0_IcEEEENS_3setIS7_NS_4lessIS7_EENS0_IS7_EEEEEEPvEEE10deallocateB8ne190107EPSF_m, symObjAddr: 0x1E160, symBinAddr: 0x100025C80, symSize: 0x74 }
  - { offset: 0x1C823, size: 0x8, addend: 0x0, symName: __ZNSt3__115__tree_iteratorINS_12__value_typeINS_12basic_stringIcNS_11char_traitsIcEENS_9allocatorIcEEEENS_3setIS7_NS_4lessIS7_EENS5_IS7_EEEEEEPNS_11__tree_nodeISD_PvEElEC2B8ne190107ESH_, symObjAddr: 0x1E1D4, symBinAddr: 0x100025CF4, symSize: 0xE8 }
  - { offset: 0x1C85C, size: 0x8, addend: 0x0, symName: __ZNSt3__14pairINS_15__tree_iteratorINS_12__value_typeINS_12basic_stringIcNS_11char_traitsIcEENS_9allocatorIcEEEENS_3setIS8_NS_4lessIS8_EENS6_IS8_EEEEEEPNS_11__tree_nodeISE_PvEElEEbEC2B8ne190107ISJ_RbTnNS_9enable_ifIXclsr10_CheckArgsE23__is_pair_constructibleIT_T0_EEEiE4typeELi0EEEOSO_OSP_, symObjAddr: 0x1E2BC, symBinAddr: 0x100025DDC, symSize: 0x194 }
  - { offset: 0x1C8BA, size: 0x8, addend: 0x0, symName: __ZNSt3__114__map_iteratorINS_15__tree_iteratorINS_12__value_typeINS_12basic_stringIcNS_11char_traitsIcEENS_9allocatorIcEEEENS_3setIS8_NS_4lessIS8_EENS6_IS8_EEEEEEPNS_11__tree_nodeISE_PvEElEEEC2B8ne190107ESJ_, symObjAddr: 0x1E450, symBinAddr: 0x100025F70, symSize: 0x70 }
  - { offset: 0x1C8F3, size: 0x8, addend: 0x0, symName: __ZNSt3__120__map_const_iteratorINS_21__tree_const_iteratorINS_12__value_typeINS_12basic_stringIcNS_11char_traitsIcEENS_9allocatorIcEEEENS_3setIS8_NS_4lessIS8_EENS6_IS8_EEEEEEPNS_11__tree_nodeISE_PvEElEEEC2B8ne190107ESJ_, symObjAddr: 0x1E4C0, symBinAddr: 0x100025FE0, symSize: 0x70 }
  - { offset: 0x1C92C, size: 0x8, addend: 0x0, symName: __ZNSt3__16__treeINS_12__value_typeINS_12basic_stringIcNS_11char_traitsIcEENS_9allocatorIcEEEENS_3setIS7_NS_4lessIS7_EENS5_IS7_EEEEEENS_19__map_value_compareIS7_SD_SA_Lb1EEENS5_ISD_EEED2Ev, symObjAddr: 0x1E530, symBinAddr: 0x100026050, symSize: 0x70 }
  - { offset: 0x1C956, size: 0x8, addend: 0x0, symName: __ZNSt3__16__treeINS_12__value_typeINS_12basic_stringIcNS_11char_traitsIcEENS_9allocatorIcEEEENS_3setIS7_NS_4lessIS7_EENS5_IS7_EEEEEENS_19__map_value_compareIS7_SD_SA_Lb1EEENS5_ISD_EEE7destroyEPNS_11__tree_nodeISD_PvEE, symObjAddr: 0x1E5A0, symBinAddr: 0x1000260C0, symSize: 0x3E4 }
  - { offset: 0x1C9A1, size: 0x8, addend: 0x0, symName: __ZNSt3__14pairIKNS_12basic_stringIcNS_11char_traitsIcEENS_9allocatorIcEEEENS_3setIS6_NS_4lessIS6_EENS4_IS6_EEEEED2Ev, symObjAddr: 0x1E984, symBinAddr: 0x1000264A4, symSize: 0x70 }
  - { offset: 0x1C9CD, size: 0x8, addend: 0x0, symName: __ZNSt3__13setINS_12basic_stringIcNS_11char_traitsIcEENS_9allocatorIcEEEENS_4lessIS6_EENS4_IS6_EEED2B8ne190107Ev, symObjAddr: 0x1E9F4, symBinAddr: 0x100026514, symSize: 0x64 }
  - { offset: 0x1C9F7, size: 0x8, addend: 0x0, symName: __ZNSt3__13mapINS_12basic_stringIcNS_11char_traitsIcEENS_9allocatorIcEEEENS_3setIS6_NS_4lessIS6_EENS4_IS6_EEEES9_NS4_INS_4pairIKS6_SB_EEEEEC2B8ne190107Ev, symObjAddr: 0x1EA58, symBinAddr: 0x100026578, symSize: 0x20C }
  - { offset: 0x1CA28, size: 0x8, addend: 0x0, symName: __ZN7testing18PolymorphicMatcherINS_8internal18ContainerEqMatcherINSt3__13mapINS3_12basic_stringIcNS3_11char_traitsIcEENS3_9allocatorIcEEEENS3_3setISA_NS3_4lessISA_EENS8_ISA_EEEESD_NS8_INS3_4pairIKSA_SF_EEEEEEEEEC1EOSM_, symObjAddr: 0x1EC64, symBinAddr: 0x100026784, symSize: 0x6C }
  - { offset: 0x1CA5E, size: 0x8, addend: 0x0, symName: __ZN7testing8internal29PredicateFormatterFromMatcherINS_18PolymorphicMatcherINS0_18ContainerEqMatcherINSt3__13mapINS4_12basic_stringIcNS4_11char_traitsIcEENS4_9allocatorIcEEEENS4_3setISB_NS4_4lessISB_EENS9_ISB_EEEESE_NS9_INS4_4pairIKSB_SG_EEEEEEEEEEEC1ESN_, symObjAddr: 0x1ECD0, symBinAddr: 0x1000267F0, symSize: 0x70 }
  - { offset: 0x1CA98, size: 0x8, addend: 0x0, symName: __ZN7testing18PolymorphicMatcherINS_8internal18ContainerEqMatcherINSt3__13mapINS3_12basic_stringIcNS3_11char_traitsIcEENS3_9allocatorIcEEEENS3_3setISA_NS3_4lessISA_EENS8_ISA_EEEESD_NS8_INS3_4pairIKSA_SF_EEEEEEEEEC2EOSM_, symObjAddr: 0x1ED40, symBinAddr: 0x100026860, symSize: 0xD8 }
  - { offset: 0x1CAD4, size: 0x8, addend: 0x0, symName: __ZN7testing8internal18ContainerEqMatcherINSt3__13mapINS2_12basic_stringIcNS2_11char_traitsIcEENS2_9allocatorIcEEEENS2_3setIS9_NS2_4lessIS9_EENS7_IS9_EEEESC_NS7_INS2_4pairIKS9_SE_EEEEEEEC1EOSK_, symObjAddr: 0x1EE18, symBinAddr: 0x100026938, symSize: 0x6C }
  - { offset: 0x1CB0A, size: 0x8, addend: 0x0, symName: __ZN7testing8internal18ContainerEqMatcherINSt3__13mapINS2_12basic_stringIcNS2_11char_traitsIcEENS2_9allocatorIcEEEENS2_3setIS9_NS2_4lessIS9_EENS7_IS9_EEEESC_NS7_INS2_4pairIKS9_SE_EEEEEEEC2EOSK_, symObjAddr: 0x1EE84, symBinAddr: 0x1000269A4, symSize: 0xD8 }
  - { offset: 0x1CB40, size: 0x8, addend: 0x0, symName: __ZNSt3__13mapINS_12basic_stringIcNS_11char_traitsIcEENS_9allocatorIcEEEENS_3setIS6_NS_4lessIS6_EENS4_IS6_EEEES9_NS4_INS_4pairIKS6_SB_EEEEEC1B8ne190107ERKSG_, symObjAddr: 0x1EF5C, symBinAddr: 0x100026A7C, symSize: 0x6C }
  - { offset: 0x1CB79, size: 0x8, addend: 0x0, symName: __ZNSt3__13mapINS_12basic_stringIcNS_11char_traitsIcEENS_9allocatorIcEEEENS_3setIS6_NS_4lessIS6_EENS4_IS6_EEEES9_NS4_INS_4pairIKS6_SB_EEEEEC2B8ne190107ERKSG_, symObjAddr: 0x1EFC8, symBinAddr: 0x100026AE8, symSize: 0x148 }
  - { offset: 0x1CBB2, size: 0x8, addend: 0x0, symName: __ZNSt3__16__treeINS_12__value_typeINS_12basic_stringIcNS_11char_traitsIcEENS_9allocatorIcEEEENS_3setIS7_NS_4lessIS7_EENS5_IS7_EEEEEENS_19__map_value_compareIS7_SD_SA_Lb1EEENS5_ISD_EEEC1ERKSH_, symObjAddr: 0x1F110, symBinAddr: 0x100026C30, symSize: 0x6C }
  - { offset: 0x1CBEB, size: 0x8, addend: 0x0, symName: __ZNSt3__13mapINS_12basic_stringIcNS_11char_traitsIcEENS_9allocatorIcEEEENS_3setIS6_NS_4lessIS6_EENS4_IS6_EEEES9_NS4_INS_4pairIKS6_SB_EEEEE6insertB8ne190107INS_20__map_const_iteratorINS_21__tree_const_iteratorINS_12__value_typeIS6_SB_EEPNS_11__tree_nodeISL_PvEElEEEEEEvT_SS_, symObjAddr: 0x1F17C, symBinAddr: 0x100026C9C, symSize: 0x2EC }
  - { offset: 0x1CC5F, size: 0x8, addend: 0x0, symName: __ZNKSt3__13mapINS_12basic_stringIcNS_11char_traitsIcEENS_9allocatorIcEEEENS_3setIS6_NS_4lessIS6_EENS4_IS6_EEEES9_NS4_INS_4pairIKS6_SB_EEEEE5beginB8ne190107Ev, symObjAddr: 0x1F468, symBinAddr: 0x100026F88, symSize: 0x228 }
  - { offset: 0x1CC86, size: 0x8, addend: 0x0, symName: __ZNSt3__16__treeINS_12__value_typeINS_12basic_stringIcNS_11char_traitsIcEENS_9allocatorIcEEEENS_3setIS7_NS_4lessIS7_EENS5_IS7_EEEEEENS_19__map_value_compareIS7_SD_SA_Lb1EEENS5_ISD_EEEC2ERKSH_, symObjAddr: 0x1F690, symBinAddr: 0x1000271B0, symSize: 0x404 }
  - { offset: 0x1CCC1, size: 0x8, addend: 0x0, symName: __ZNSt3__116allocator_traitsINS_9allocatorINS_11__tree_nodeINS_12__value_typeINS_12basic_stringIcNS_11char_traitsIcEENS1_IcEEEENS_3setIS8_NS_4lessIS8_EENS1_IS8_EEEEEEPvEEEEE37select_on_container_copy_constructionB8ne190107ISH_vTnNS_9enable_ifIXntsr43__has_select_on_container_copy_constructionIKT_EE5valueEiE4typeELi0EEESH_RKSH_, symObjAddr: 0x1FA9C, symBinAddr: 0x1000275BC, symSize: 0x10 }
  - { offset: 0x1CCF5, size: 0x8, addend: 0x0, symName: __ZNKSt3__16__treeINS_12__value_typeINS_12basic_stringIcNS_11char_traitsIcEENS_9allocatorIcEEEENS_3setIS7_NS_4lessIS7_EENS5_IS7_EEEEEENS_19__map_value_compareIS7_SD_SA_Lb1EEENS5_ISD_EEE12__node_allocB8ne190107Ev, symObjAddr: 0x1FAAC, symBinAddr: 0x1000275CC, symSize: 0xC4 }
  - { offset: 0x1CD21, size: 0x8, addend: 0x0, symName: __ZNSt3__117__compressed_pairINS_15__tree_end_nodeIPNS_16__tree_node_baseIPvEEEENS_9allocatorINS_11__tree_nodeINS_12__value_typeINS_12basic_stringIcNS_11char_traitsIcEENS7_IcEEEENS_3setISE_NS_4lessISE_EENS7_ISE_EEEEEES3_EEEEEC1B8ne190107INS_18__default_init_tagESM_EEOT_OT0_, symObjAddr: 0x1FB70, symBinAddr: 0x100027690, symSize: 0x74 }
  - { offset: 0x1CD79, size: 0x8, addend: 0x0, symName: __ZNKSt3__16__treeINS_12__value_typeINS_12basic_stringIcNS_11char_traitsIcEENS_9allocatorIcEEEENS_3setIS7_NS_4lessIS7_EENS5_IS7_EEEEEENS_19__map_value_compareIS7_SD_SA_Lb1EEENS5_ISD_EEE10value_compB8ne190107Ev, symObjAddr: 0x1FBE4, symBinAddr: 0x100027704, symSize: 0xC4 }
  - { offset: 0x1CD9F, size: 0x8, addend: 0x0, symName: __ZNKSt3__117__compressed_pairINS_15__tree_end_nodeIPNS_16__tree_node_baseIPvEEEENS_9allocatorINS_11__tree_nodeINS_12__value_typeINS_12basic_stringIcNS_11char_traitsIcEENS7_IcEEEENS_3setISE_NS_4lessISE_EENS7_ISE_EEEEEES3_EEEEE6secondB8ne190107Ev, symObjAddr: 0x1FCA8, symBinAddr: 0x1000277C8, symSize: 0xC4 }
  - { offset: 0x1CDC5, size: 0x8, addend: 0x0, symName: __ZNKSt3__122__compressed_pair_elemINS_9allocatorINS_11__tree_nodeINS_12__value_typeINS_12basic_stringIcNS_11char_traitsIcEENS1_IcEEEENS_3setIS8_NS_4lessIS8_EENS1_IS8_EEEEEEPvEEEELi1ELb1EE5__getB8ne190107Ev, symObjAddr: 0x1FD6C, symBinAddr: 0x10002788C, symSize: 0x64 }
  - { offset: 0x1CDEB, size: 0x8, addend: 0x0, symName: __ZNSt3__117__compressed_pairINS_15__tree_end_nodeIPNS_16__tree_node_baseIPvEEEENS_9allocatorINS_11__tree_nodeINS_12__value_typeINS_12basic_stringIcNS_11char_traitsIcEENS7_IcEEEENS_3setISE_NS_4lessISE_EENS7_ISE_EEEEEES3_EEEEEC2B8ne190107INS_18__default_init_tagESM_EEOT_OT0_, symObjAddr: 0x1FDD0, symBinAddr: 0x1000278F0, symSize: 0xF0 }
  - { offset: 0x1CE43, size: 0x8, addend: 0x0, symName: __ZNSt3__122__compressed_pair_elemINS_9allocatorINS_11__tree_nodeINS_12__value_typeINS_12basic_stringIcNS_11char_traitsIcEENS1_IcEEEENS_3setIS8_NS_4lessIS8_EENS1_IS8_EEEEEEPvEEEELi1ELb1EEC2B8ne190107ISH_TnNS_9enable_ifIXntsr7is_sameISI_u7__decayIT_EEE5valueEiE4typeELi0EEEOSL_, symObjAddr: 0x1FEC0, symBinAddr: 0x1000279E0, symSize: 0x4C }
  - { offset: 0x1CE8A, size: 0x8, addend: 0x0, symName: __ZNKSt3__117__compressed_pairImNS_19__map_value_compareINS_12basic_stringIcNS_11char_traitsIcEENS_9allocatorIcEEEENS_12__value_typeIS7_NS_3setIS7_NS_4lessIS7_EENS5_IS7_EEEEEESB_Lb1EEEE6secondB8ne190107Ev, symObjAddr: 0x1FF0C, symBinAddr: 0x100027A2C, symSize: 0xC4 }
  - { offset: 0x1CEB0, size: 0x8, addend: 0x0, symName: __ZNKSt3__122__compressed_pair_elemINS_19__map_value_compareINS_12basic_stringIcNS_11char_traitsIcEENS_9allocatorIcEEEENS_12__value_typeIS7_NS_3setIS7_NS_4lessIS7_EENS5_IS7_EEEEEESB_Lb1EEELi1ELb1EE5__getB8ne190107Ev, symObjAddr: 0x1FFD0, symBinAddr: 0x100027AF0, symSize: 0x64 }
  - { offset: 0x1CED6, size: 0x8, addend: 0x0, symName: __ZNKSt3__120__map_const_iteratorINS_21__tree_const_iteratorINS_12__value_typeINS_12basic_stringIcNS_11char_traitsIcEENS_9allocatorIcEEEENS_3setIS8_NS_4lessIS8_EENS6_IS8_EEEEEEPNS_11__tree_nodeISE_PvEElEEEdeB8ne190107Ev, symObjAddr: 0x200D8, symBinAddr: 0x100027BF8, symSize: 0x104 }
  - { offset: 0x1CEFC, size: 0x8, addend: 0x0, symName: __ZNSt3__120__map_const_iteratorINS_21__tree_const_iteratorINS_12__value_typeINS_12basic_stringIcNS_11char_traitsIcEENS_9allocatorIcEEEENS_3setIS8_NS_4lessIS8_EENS6_IS8_EEEEEEPNS_11__tree_nodeISE_PvEElEEEppB8ne190107Ev, symObjAddr: 0x201DC, symBinAddr: 0x100027CFC, symSize: 0xC8 }
  - { offset: 0x1CF22, size: 0x8, addend: 0x0, symName: __ZNKSt3__121__tree_const_iteratorINS_12__value_typeINS_12basic_stringIcNS_11char_traitsIcEENS_9allocatorIcEEEENS_3setIS7_NS_4lessIS7_EENS5_IS7_EEEEEEPNS_11__tree_nodeISD_PvEElEptB8ne190107Ev, symObjAddr: 0x2034C, symBinAddr: 0x100027E6C, symSize: 0xDC }
  - { offset: 0x1CF48, size: 0x8, addend: 0x0, symName: __ZNSt3__114pointer_traitsIPKNS_12__value_typeINS_12basic_stringIcNS_11char_traitsIcEENS_9allocatorIcEEEENS_3setIS7_NS_4lessIS7_EENS5_IS7_EEEEEEE10pointer_toB8ne190107ERSE_, symObjAddr: 0x20430, symBinAddr: 0x100027F50, symSize: 0x14 }
  - { offset: 0x1CF6B, size: 0x8, addend: 0x0, symName: __ZNKSt3__16__treeINS_12__value_typeINS_12basic_stringIcNS_11char_traitsIcEENS_9allocatorIcEEEENS_3setIS7_NS_4lessIS7_EENS5_IS7_EEEEEENS_19__map_value_compareIS7_SD_SA_Lb1EEENS5_ISD_EEE5beginB8ne190107Ev, symObjAddr: 0x20444, symBinAddr: 0x100027F64, symSize: 0x254 }
  - { offset: 0x1CF92, size: 0x8, addend: 0x0, symName: __ZNKSt3__16__treeINS_12__value_typeINS_12basic_stringIcNS_11char_traitsIcEENS_9allocatorIcEEEENS_3setIS7_NS_4lessIS7_EENS5_IS7_EEEEEENS_19__map_value_compareIS7_SD_SA_Lb1EEENS5_ISD_EEE12__begin_nodeB8ne190107Ev, symObjAddr: 0x20698, symBinAddr: 0x1000281B8, symSize: 0x8C }
  - { offset: 0x1CFB8, size: 0x8, addend: 0x0, symName: __ZN7testing8internal29PredicateFormatterFromMatcherINS_18PolymorphicMatcherINS0_18ContainerEqMatcherINSt3__13mapINS4_12basic_stringIcNS4_11char_traitsIcEENS4_9allocatorIcEEEENS4_3setISB_NS4_4lessISB_EENS9_ISB_EEEESE_NS9_INS4_4pairIKSB_SG_EEEEEEEEEEEC2ESN_, symObjAddr: 0x20724, symBinAddr: 0x100028244, symSize: 0xA4 }
  - { offset: 0x1CFF2, size: 0x8, addend: 0x0, symName: __ZN7testing8internal18ContainerEqMatcherINSt3__13mapINS2_12basic_stringIcNS2_11char_traitsIcEENS2_9allocatorIcEEEENS2_3setIS9_NS2_4lessIS9_EENS7_IS9_EEEESC_NS7_INS2_4pairIKS9_SE_EEEEEEEC1ERKSJ_, symObjAddr: 0x2086C, symBinAddr: 0x10002838C, symSize: 0x6C }
  - { offset: 0x1D02B, size: 0x8, addend: 0x0, symName: __ZN7testing8internal18ContainerEqMatcherINSt3__13mapINS2_12basic_stringIcNS2_11char_traitsIcEENS2_9allocatorIcEEEENS2_3setIS9_NS2_4lessIS9_EENS7_IS9_EEEESC_NS7_INS2_4pairIKS9_SE_EEEEEEED1Ev, symObjAddr: 0x208D8, symBinAddr: 0x1000283F8, symSize: 0x64 }
  - { offset: 0x1D058, size: 0x8, addend: 0x0, symName: __ZN7testing18PolymorphicMatcherINS_8internal18ContainerEqMatcherINSt3__13mapINS3_12basic_stringIcNS3_11char_traitsIcEENS3_9allocatorIcEEEENS3_3setISA_NS3_4lessISA_EENS8_ISA_EEEESD_NS8_INS3_4pairIKSA_SF_EEEEEEEEEC1ERKSL_, symObjAddr: 0x2093C, symBinAddr: 0x10002845C, symSize: 0x6C }
  - { offset: 0x1D091, size: 0x8, addend: 0x0, symName: __ZN7testing18PolymorphicMatcherINS_8internal18ContainerEqMatcherINSt3__13mapINS3_12basic_stringIcNS3_11char_traitsIcEENS3_9allocatorIcEEEENS3_3setISA_NS3_4lessISA_EENS8_ISA_EEEESD_NS8_INS3_4pairIKSA_SF_EEEEEEEEEC2ERKSL_, symObjAddr: 0x209A8, symBinAddr: 0x1000284C8, symSize: 0xA4 }
  - { offset: 0x1D0CA, size: 0x8, addend: 0x0, symName: __ZN7testing8internal18ContainerEqMatcherINSt3__13mapINS2_12basic_stringIcNS2_11char_traitsIcEENS2_9allocatorIcEEEENS2_3setIS9_NS2_4lessIS9_EENS7_IS9_EEEESC_NS7_INS2_4pairIKS9_SE_EEEEEEEC1ERKSK_, symObjAddr: 0x20A4C, symBinAddr: 0x10002856C, symSize: 0x6C }
  - { offset: 0x1D100, size: 0x8, addend: 0x0, symName: __ZN7testing8internal18ContainerEqMatcherINSt3__13mapINS2_12basic_stringIcNS2_11char_traitsIcEENS2_9allocatorIcEEEENS2_3setIS9_NS2_4lessIS9_EENS7_IS9_EEEESC_NS7_INS2_4pairIKS9_SE_EEEEEEEC2ERKSK_, symObjAddr: 0x20AB8, symBinAddr: 0x1000285D8, symSize: 0xA4 }
  - { offset: 0x1D136, size: 0x8, addend: 0x0, symName: __ZN7testing8internal18ContainerEqMatcherINSt3__13mapINS2_12basic_stringIcNS2_11char_traitsIcEENS2_9allocatorIcEEEENS2_3setIS9_NS2_4lessIS9_EENS7_IS9_EEEESC_NS7_INS2_4pairIKS9_SE_EEEEEEEC2ERKSJ_, symObjAddr: 0x20B5C, symBinAddr: 0x10002867C, symSize: 0xA4 }
  - { offset: 0x1D16F, size: 0x8, addend: 0x0, symName: __ZN7testing8internal16StlContainerViewINSt3__13mapINS2_12basic_stringIcNS2_11char_traitsIcEENS2_9allocatorIcEEEENS2_3setIS9_NS2_4lessIS9_EENS7_IS9_EEEESC_NS7_INS2_4pairIKS9_SE_EEEEEEE4CopyERKSJ_, symObjAddr: 0x20C08, symBinAddr: 0x100028728, symSize: 0x9C }
  - { offset: 0x1D193, size: 0x8, addend: 0x0, symName: __ZN7testing8internal18ContainerEqMatcherINSt3__13mapINS2_12basic_stringIcNS2_11char_traitsIcEENS2_9allocatorIcEEEENS2_3setIS9_NS2_4lessIS9_EENS7_IS9_EEEESC_NS7_INS2_4pairIKS9_SE_EEEEEEED2Ev, symObjAddr: 0x20CA4, symBinAddr: 0x1000287C4, symSize: 0x64 }
  - { offset: 0x1D1C0, size: 0x8, addend: 0x0, symName: __ZNK7testing8internal11MatcherBaseIRKNSt3__13mapINS2_12basic_stringIcNS2_11char_traitsIcEENS2_9allocatorIcEEEENS2_3setIS9_NS2_4lessIS9_EENS7_IS9_EEEESC_NS7_INS2_4pairIKS9_SE_EEEEEEE7MatchesESL_, symObjAddr: 0x20D78, symBinAddr: 0x100028898, symSize: 0x350 }
  - { offset: 0x1D208, size: 0x8, addend: 0x0, symName: __ZNSt3__118basic_stringstreamIcNS_11char_traitsIcEENS_9allocatorIcEEEC1B8ne190107Ev, symObjAddr: 0x210C8, symBinAddr: 0x100028BE8, symSize: 0x38C }
  - { offset: 0x1D232, size: 0x8, addend: 0x0, symName: __ZNK7testing8internal11MatcherBaseIRKNSt3__13mapINS2_12basic_stringIcNS2_11char_traitsIcEENS2_9allocatorIcEEEENS2_3setIS9_NS2_4lessIS9_EENS7_IS9_EEEESC_NS7_INS2_4pairIKS9_SE_EEEEEEE10DescribeToEPNS2_13basic_ostreamIcS6_EE, symObjAddr: 0x2150C, symBinAddr: 0x10002902C, symSize: 0x59C }
  - { offset: 0x1D283, size: 0x8, addend: 0x0, symName: __ZN7testing25StringMatchResultListenerC1Ev, symObjAddr: 0x21AA8, symBinAddr: 0x1000295C8, symSize: 0x64 }
  - { offset: 0x1D2AD, size: 0x8, addend: 0x0, symName: __ZNK7testing25StringMatchResultListener3strEv, symObjAddr: 0x2285C, symBinAddr: 0x10002A37C, symSize: 0x198 }
  - { offset: 0x1D2D3, size: 0x8, addend: 0x0, symName: __ZN7testing15AssertionResultlsINSt3__112basic_stringIcNS2_11char_traitsIcEENS2_9allocatorIcEEEEEERS0_RKT_, symObjAddr: 0x229F4, symBinAddr: 0x10002A514, symSize: 0x350 }
  - { offset: 0x1D312, size: 0x8, addend: 0x0, symName: __ZNKRSt3__118basic_stringstreamIcNS_11char_traitsIcEENS_9allocatorIcEEE3strB8ne190107Ev, symObjAddr: 0x22D44, symBinAddr: 0x10002A864, symSize: 0x198 }
  - { offset: 0x1D338, size: 0x8, addend: 0x0, symName: __ZN7testing25StringMatchResultListenerD1Ev, symObjAddr: 0x22EDC, symBinAddr: 0x10002A9FC, symSize: 0x64 }
  - { offset: 0x1D36A, size: 0x8, addend: 0x0, symName: __ZNSt3__118basic_stringstreamIcNS_11char_traitsIcEENS_9allocatorIcEEED1Ev, symObjAddr: 0x22F40, symBinAddr: 0x10002AA60, symSize: 0x78 }
  - { offset: 0x1D397, size: 0x8, addend: 0x0, symName: __ZN7testing7MatcherIRKNSt3__13mapINS1_12basic_stringIcNS1_11char_traitsIcEENS1_9allocatorIcEEEENS1_3setIS8_NS1_4lessIS8_EENS6_IS8_EEEESB_NS6_INS1_4pairIKS8_SD_EEEEEEED1Ev, symObjAddr: 0x22FB8, symBinAddr: 0x10002AAD8, symSize: 0x64 }
  - { offset: 0x1D3C9, size: 0x8, addend: 0x0, symName: __ZN7testing8internal15MatcherCastImplIRKNSt3__13mapINS2_12basic_stringIcNS2_11char_traitsIcEENS2_9allocatorIcEEEENS2_3setIS9_NS2_4lessIS9_EENS7_IS9_EEEESC_NS7_INS2_4pairIKS9_SE_EEEEEENS_18PolymorphicMatcherINS0_18ContainerEqMatcherISJ_EEEEE4CastERKSP_, symObjAddr: 0x23094, symBinAddr: 0x10002ABB4, symSize: 0x68 }
  - { offset: 0x1D3ED, size: 0x8, addend: 0x0, symName: __ZN7testing8internal15MatcherCastImplIRKNSt3__13mapINS2_12basic_stringIcNS2_11char_traitsIcEENS2_9allocatorIcEEEENS2_3setIS9_NS2_4lessIS9_EENS7_IS9_EEEESC_NS7_INS2_4pairIKS9_SE_EEEEEENS_18PolymorphicMatcherINS0_18ContainerEqMatcherISJ_EEEEE8CastImplILb0EEENS_7MatcherISL_EERKSP_NS2_17integral_constantIbLb1EEENSW_IbXT_EEE, symObjAddr: 0x23104, symBinAddr: 0x10002AC24, symSize: 0x58 }
  - { offset: 0x1D433, size: 0x8, addend: 0x0, symName: __ZNK7testing18PolymorphicMatcherINS_8internal18ContainerEqMatcherINSt3__13mapINS3_12basic_stringIcNS3_11char_traitsIcEENS3_9allocatorIcEEEENS3_3setISA_NS3_4lessISA_EENS8_ISA_EEEESD_NS8_INS3_4pairIKSA_SF_EEEEEEEEEcvNS_7MatcherIT_EEIRKSK_EEv, symObjAddr: 0x2315C, symBinAddr: 0x10002AC7C, symSize: 0x178 }
  - { offset: 0x1D471, size: 0x8, addend: 0x0, symName: __ZN7testing18PolymorphicMatcherINS_8internal18ContainerEqMatcherINSt3__13mapINS3_12basic_stringIcNS3_11char_traitsIcEENS3_9allocatorIcEEEENS3_3setISA_NS3_4lessISA_EENS8_ISA_EEEESD_NS8_INS3_4pairIKSA_SF_EEEEEEEEE15MonomorphicImplIRKSK_EC1ERKSL_, symObjAddr: 0x232D4, symBinAddr: 0x10002ADF4, symSize: 0x6C }
  - { offset: 0x1D4AA, size: 0x8, addend: 0x0, symName: __ZN7testing7MatcherIRKNSt3__13mapINS1_12basic_stringIcNS1_11char_traitsIcEENS1_9allocatorIcEEEENS1_3setIS8_NS1_4lessIS8_EENS6_IS8_EEEESB_NS6_INS1_4pairIKS8_SD_EEEEEEEC1EPKNS_16MatcherInterfaceISK_EE, symObjAddr: 0x23340, symBinAddr: 0x10002AE60, symSize: 0x6C }
  - { offset: 0x1D4E3, size: 0x8, addend: 0x0, symName: __ZN7testing18PolymorphicMatcherINS_8internal18ContainerEqMatcherINSt3__13mapINS3_12basic_stringIcNS3_11char_traitsIcEENS3_9allocatorIcEEEENS3_3setISA_NS3_4lessISA_EENS8_ISA_EEEESD_NS8_INS3_4pairIKSA_SF_EEEEEEEEE15MonomorphicImplIRKSK_EC2ERKSL_, symObjAddr: 0x233AC, symBinAddr: 0x10002AECC, symSize: 0x170 }
  - { offset: 0x1D521, size: 0x8, addend: 0x0, symName: __ZN7testing16MatcherInterfaceIRKNSt3__13mapINS1_12basic_stringIcNS1_11char_traitsIcEENS1_9allocatorIcEEEENS1_3setIS8_NS1_4lessIS8_EENS6_IS8_EEEESB_NS6_INS1_4pairIKS8_SD_EEEEEEEC2Ev, symObjAddr: 0x2351C, symBinAddr: 0x10002B03C, symSize: 0xF8 }
  - { offset: 0x1D54D, size: 0x8, addend: 0x0, symName: __ZN7testing16MatcherInterfaceIRKNSt3__13mapINS1_12basic_stringIcNS1_11char_traitsIcEENS1_9allocatorIcEEEENS1_3setIS8_NS1_4lessIS8_EENS6_IS8_EEEESB_NS6_INS1_4pairIKS8_SD_EEEEEEED2Ev, symObjAddr: 0x23614, symBinAddr: 0x10002B134, symSize: 0x64 }
  - { offset: 0x1D579, size: 0x8, addend: 0x0, symName: __ZN7testing18PolymorphicMatcherINS_8internal18ContainerEqMatcherINSt3__13mapINS3_12basic_stringIcNS3_11char_traitsIcEENS3_9allocatorIcEEEENS3_3setISA_NS3_4lessISA_EENS8_ISA_EEEESD_NS8_INS3_4pairIKSA_SF_EEEEEEEEE15MonomorphicImplIRKSK_ED1Ev, symObjAddr: 0x23678, symBinAddr: 0x10002B198, symSize: 0x64 }
  - { offset: 0x1D5A6, size: 0x8, addend: 0x0, symName: __ZN7testing18PolymorphicMatcherINS_8internal18ContainerEqMatcherINSt3__13mapINS3_12basic_stringIcNS3_11char_traitsIcEENS3_9allocatorIcEEEENS3_3setISA_NS3_4lessISA_EENS8_ISA_EEEESD_NS8_INS3_4pairIKSA_SF_EEEEEEEEE15MonomorphicImplIRKSK_ED0Ev, symObjAddr: 0x236DC, symBinAddr: 0x10002B1FC, symSize: 0x68 }
  - { offset: 0x1D5D3, size: 0x8, addend: 0x0, symName: __ZNK7testing18PolymorphicMatcherINS_8internal18ContainerEqMatcherINSt3__13mapINS3_12basic_stringIcNS3_11char_traitsIcEENS3_9allocatorIcEEEENS3_3setISA_NS3_4lessISA_EENS8_ISA_EEEESD_NS8_INS3_4pairIKSA_SF_EEEEEEEEE15MonomorphicImplIRKSK_E10DescribeToEPNS3_13basic_ostreamIcS7_EE, symObjAddr: 0x23744, symBinAddr: 0x10002B264, symSize: 0x11C }
  - { offset: 0x1D608, size: 0x8, addend: 0x0, symName: __ZNK7testing18PolymorphicMatcherINS_8internal18ContainerEqMatcherINSt3__13mapINS3_12basic_stringIcNS3_11char_traitsIcEENS3_9allocatorIcEEEENS3_3setISA_NS3_4lessISA_EENS8_ISA_EEEESD_NS8_INS3_4pairIKSA_SF_EEEEEEEEE15MonomorphicImplIRKSK_E18DescribeNegationToEPNS3_13basic_ostreamIcS7_EE, symObjAddr: 0x23860, symBinAddr: 0x10002B380, symSize: 0x11C }
  - { offset: 0x1D63D, size: 0x8, addend: 0x0, symName: __ZNK7testing18PolymorphicMatcherINS_8internal18ContainerEqMatcherINSt3__13mapINS3_12basic_stringIcNS3_11char_traitsIcEENS3_9allocatorIcEEEENS3_3setISA_NS3_4lessISA_EENS8_ISA_EEEESD_NS8_INS3_4pairIKSA_SF_EEEEEEEEE15MonomorphicImplIRKSK_E15MatchAndExplainESP_PNS_19MatchResultListenerE, symObjAddr: 0x2397C, symBinAddr: 0x10002B49C, symSize: 0x15C }
  - { offset: 0x1D681, size: 0x8, addend: 0x0, symName: __ZN7testing25MatcherDescriberInterfaceC2Ev, symObjAddr: 0x23AD8, symBinAddr: 0x10002B5F8, symSize: 0xB4 }
  - { offset: 0x1D6AD, size: 0x8, addend: 0x0, symName: __ZN7testing16MatcherInterfaceIRKNSt3__13mapINS1_12basic_stringIcNS1_11char_traitsIcEENS1_9allocatorIcEEEENS1_3setIS8_NS1_4lessIS8_EENS6_IS8_EEEESB_NS6_INS1_4pairIKS8_SD_EEEEEEED1Ev, symObjAddr: 0x23B8C, symBinAddr: 0x10002B6AC, symSize: 0x54 }
  - { offset: 0x1D6D9, size: 0x8, addend: 0x0, symName: __ZN7testing16MatcherInterfaceIRKNSt3__13mapINS1_12basic_stringIcNS1_11char_traitsIcEENS1_9allocatorIcEEEENS1_3setIS8_NS1_4lessIS8_EENS6_IS8_EEEESB_NS6_INS1_4pairIKS8_SD_EEEEEEED0Ev, symObjAddr: 0x23BE0, symBinAddr: 0x10002B700, symSize: 0x50 }
  - { offset: 0x1D705, size: 0x8, addend: 0x0, symName: __ZNK7testing25MatcherDescriberInterface18DescribeNegationToEPNSt3__113basic_ostreamIcNS1_11char_traitsIcEEEE, symObjAddr: 0x23C30, symBinAddr: 0x10002B750, symSize: 0x1E4 }
  - { offset: 0x1D739, size: 0x8, addend: 0x0, symName: __ZN7testing25MatcherDescriberInterfaceD1Ev, symObjAddr: 0x23E14, symBinAddr: 0x10002B934, symSize: 0x54 }
  - { offset: 0x1D763, size: 0x8, addend: 0x0, symName: __ZN7testing25MatcherDescriberInterfaceD0Ev, symObjAddr: 0x23E68, symBinAddr: 0x10002B988, symSize: 0x50 }
  - { offset: 0x1D78D, size: 0x8, addend: 0x0, symName: __ZN7testing25MatcherDescriberInterfaceD2Ev, symObjAddr: 0x23EB8, symBinAddr: 0x10002B9D8, symSize: 0x5C }
  - { offset: 0x1D7B7, size: 0x8, addend: 0x0, symName: __ZN7testing18PolymorphicMatcherINS_8internal18ContainerEqMatcherINSt3__13mapINS3_12basic_stringIcNS3_11char_traitsIcEENS3_9allocatorIcEEEENS3_3setISA_NS3_4lessISA_EENS8_ISA_EEEESD_NS8_INS3_4pairIKSA_SF_EEEEEEEEE15MonomorphicImplIRKSK_ED2Ev, symObjAddr: 0x23F14, symBinAddr: 0x10002BA34, symSize: 0xC4 }
  - { offset: 0x1D7E4, size: 0x8, addend: 0x0, symName: __ZNK7testing8internal18ContainerEqMatcherINSt3__13mapINS2_12basic_stringIcNS2_11char_traitsIcEENS2_9allocatorIcEEEENS2_3setIS9_NS2_4lessIS9_EENS7_IS9_EEEESC_NS7_INS2_4pairIKS9_SE_EEEEEEE10DescribeToEPNS2_13basic_ostreamIcS6_EE, symObjAddr: 0x23FD8, symBinAddr: 0x10002BAF8, symSize: 0xE0 }
  - { offset: 0x1D819, size: 0x8, addend: 0x0, symName: __ZN7testing8internal16UniversalPrinterINSt3__13mapINS2_12basic_stringIcNS2_11char_traitsIcEENS2_9allocatorIcEEEENS2_3setIS9_NS2_4lessIS9_EENS7_IS9_EEEESC_NS7_INS2_4pairIKS9_SE_EEEEEEE5PrintERKSJ_PNS2_13basic_ostreamIcS6_EE, symObjAddr: 0x2412C, symBinAddr: 0x10002BC4C, symSize: 0x64 }
  - { offset: 0x1D84C, size: 0x8, addend: 0x0, symName: __ZN7testing8internal16ContainerPrinter10PrintValueINSt3__13mapINS3_12basic_stringIcNS3_11char_traitsIcEENS3_9allocatorIcEEEENS3_3setISA_NS3_4lessISA_EENS8_ISA_EEEESD_NS8_INS3_4pairIKSA_SF_EEEEEEvEEvRKT_PNS3_13basic_ostreamIcS7_EE, symObjAddr: 0x24270, symBinAddr: 0x10002BD90, symSize: 0x568 }
  - { offset: 0x1D923, size: 0x8, addend: 0x0, symName: __ZNKSt3__113basic_ostreamIcNS_11char_traitsIcEEE6sentrycvbB8ne190107Ev, symObjAddr: 0x25834, symBinAddr: 0x10002D354, symSize: 0xE8 }
  - { offset: 0x1D949, size: 0x8, addend: 0x0, symName: __ZNSt3__119ostreambuf_iteratorIcNS_11char_traitsIcEEEC1B8ne190107ERNS_13basic_ostreamIcS2_EE, symObjAddr: 0x26174, symBinAddr: 0x10002DC94, symSize: 0x6C }
  - { offset: 0x1D981, size: 0x8, addend: 0x0, symName: __ZNKSt3__18ios_base5flagsB8ne190107Ev, symObjAddr: 0x261E0, symBinAddr: 0x10002DD00, symSize: 0x130 }
  - { offset: 0x1D9A9, size: 0x8, addend: 0x0, symName: __ZNKSt3__19basic_iosIcNS_11char_traitsIcEEE4fillB8ne190107Ev, symObjAddr: 0x26310, symBinAddr: 0x10002DE30, symSize: 0x288 }
  - { offset: 0x1D9CF, size: 0x8, addend: 0x0, symName: __ZNKSt3__119ostreambuf_iteratorIcNS_11char_traitsIcEEE6failedB8ne190107Ev, symObjAddr: 0x26598, symBinAddr: 0x10002E0B8, symSize: 0xA4 }
  - { offset: 0x1D9F5, size: 0x8, addend: 0x0, symName: __ZNSt3__19basic_iosIcNS_11char_traitsIcEEE8setstateB8ne190107Ej, symObjAddr: 0x2663C, symBinAddr: 0x10002E15C, symSize: 0x100 }
  - { offset: 0x1DA2A, size: 0x8, addend: 0x0, symName: __ZNKSt3__18ios_base5widthB8ne190107Ev, symObjAddr: 0x2673C, symBinAddr: 0x10002E25C, symSize: 0x10C }
  - { offset: 0x1DA52, size: 0x8, addend: 0x0, symName: __ZNSt3__115basic_streambufIcNS_11char_traitsIcEEE5sputnB8ne190107EPKcl, symObjAddr: 0x26848, symBinAddr: 0x10002E368, symSize: 0x164 }
  - { offset: 0x1DA94, size: 0x8, addend: 0x0, symName: __ZNSt3__112basic_stringIcNS_11char_traitsIcEENS_9allocatorIcEEEC1B8ne190107Emc, symObjAddr: 0x269AC, symBinAddr: 0x10002E4CC, symSize: 0x74 }
  - { offset: 0x1DADC, size: 0x8, addend: 0x0, symName: __ZNSt3__112basic_stringIcNS_11char_traitsIcEENS_9allocatorIcEEE4dataB8ne190107Ev, symObjAddr: 0x26A20, symBinAddr: 0x10002E540, symSize: 0x60 }
  - { offset: 0x1DB02, size: 0x8, addend: 0x0, symName: __ZNSt3__18ios_base5widthB8ne190107El, symObjAddr: 0x26A80, symBinAddr: 0x10002E5A0, symSize: 0x1B8 }
  - { offset: 0x1DB48, size: 0x8, addend: 0x0, symName: __ZNSt3__112basic_stringIcNS_11char_traitsIcEENS_9allocatorIcEEEC2B8ne190107Emc, symObjAddr: 0x26C38, symBinAddr: 0x10002E758, symSize: 0x238 }
  - { offset: 0x1DB93, size: 0x8, addend: 0x0, symName: __ZNSt3__112basic_stringIcNS_11char_traitsIcEENS_9allocatorIcEEE13__get_pointerB8ne190107Ev, symObjAddr: 0x26E8C, symBinAddr: 0x10002E9AC, symSize: 0x88 }
  - { offset: 0x1DBB9, size: 0x8, addend: 0x0, symName: __ZNSt3__112basic_stringIcNS_11char_traitsIcEENS_9allocatorIcEEE18__get_long_pointerB8ne190107Ev, symObjAddr: 0x26F14, symBinAddr: 0x10002EA34, symSize: 0x184 }
  - { offset: 0x1DBDF, size: 0x8, addend: 0x0, symName: __ZNSt3__112basic_stringIcNS_11char_traitsIcEENS_9allocatorIcEEE19__get_short_pointerB8ne190107Ev, symObjAddr: 0x27098, symBinAddr: 0x10002EBB8, symSize: 0x140 }
  - { offset: 0x1DC05, size: 0x8, addend: 0x0, symName: __ZNSt3__114pointer_traitsIPcE10pointer_toB8ne190107ERc, symObjAddr: 0x271E0, symBinAddr: 0x10002ED00, symSize: 0x14 }
  - { offset: 0x1DC28, size: 0x8, addend: 0x0, symName: __ZNSt3__119ostreambuf_iteratorIcNS_11char_traitsIcEEEC2B8ne190107ERNS_13basic_ostreamIcS2_EE, symObjAddr: 0x271F4, symBinAddr: 0x10002ED14, symSize: 0x288 }
  - { offset: 0x1DC60, size: 0x8, addend: 0x0, symName: __ZNKSt3__19basic_iosIcNS_11char_traitsIcEEE5rdbufB8ne190107Ev, symObjAddr: 0x2747C, symBinAddr: 0x10002EF9C, symSize: 0xF8 }
  - { offset: 0x1DC86, size: 0x8, addend: 0x0, symName: __ZNKSt3__18ios_base5rdbufB8ne190107Ev, symObjAddr: 0x27574, symBinAddr: 0x10002F094, symSize: 0x10C }
  - { offset: 0x1DCAC, size: 0x8, addend: 0x0, symName: __ZNKSt3__118_SentinelValueFillINS_11char_traitsIcEEE8__is_setB8ne190107Ev, symObjAddr: 0x27680, symBinAddr: 0x10002F1A0, symSize: 0x108 }
  - { offset: 0x1DCD2, size: 0x8, addend: 0x0, symName: __ZNKSt3__19basic_iosIcNS_11char_traitsIcEEE5widenB8ne190107Ec, symObjAddr: 0x27788, symBinAddr: 0x10002F2A8, symSize: 0x404 }
  - { offset: 0x1DD09, size: 0x8, addend: 0x0, symName: __ZNSt3__118_SentinelValueFillINS_11char_traitsIcEEEaSB8ne190107Ei, symObjAddr: 0x27B8C, symBinAddr: 0x10002F6AC, symSize: 0x124 }
  - { offset: 0x1DD3E, size: 0x8, addend: 0x0, symName: __ZNKSt3__118_SentinelValueFillINS_11char_traitsIcEEE5__getB8ne190107Ev, symObjAddr: 0x27CB0, symBinAddr: 0x10002F7D0, symSize: 0xF4 }
  - { offset: 0x1DD64, size: 0x8, addend: 0x0, symName: __ZNSt3__111char_traitsIcE3eofB8ne190107Ev, symObjAddr: 0x27DAC, symBinAddr: 0x10002F8CC, symSize: 0x8 }
  - { offset: 0x1DDBA, size: 0x8, addend: 0x0, symName: __ZNKSt3__15ctypeIcE5widenB8ne190107Ec, symObjAddr: 0x27F08, symBinAddr: 0x10002FA28, symSize: 0x154 }
  - { offset: 0x1DDEF, size: 0x8, addend: 0x0, symName: __ZNSt3__18ios_base8setstateB8ne190107Ej, symObjAddr: 0x2805C, symBinAddr: 0x10002FB7C, symSize: 0x1A4 }
  - { offset: 0x1DE26, size: 0x8, addend: 0x0, symName: __ZN7testing8internal16UniversalPrinterINSt3__14pairIKNS2_12basic_stringIcNS2_11char_traitsIcEENS2_9allocatorIcEEEENS2_3setIS9_NS2_4lessIS9_EENS7_IS9_EEEEEEE5PrintERKSG_PNS2_13basic_ostreamIcS6_EE, symObjAddr: 0x28208, symBinAddr: 0x10002FD28, symSize: 0x64 }
  - { offset: 0x1DE59, size: 0x8, addend: 0x0, symName: __ZN7testing8internal16UniversalPrinterINSt3__112basic_stringIcNS2_11char_traitsIcEENS2_9allocatorIcEEEEE5PrintERKS8_PNS2_13basic_ostreamIcS5_EE, symObjAddr: 0x28400, symBinAddr: 0x10002FF20, symSize: 0x64 }
  - { offset: 0x1DE8C, size: 0x8, addend: 0x0, symName: __ZN7testing8internal16UniversalPrinterINSt3__13setINS2_12basic_stringIcNS2_11char_traitsIcEENS2_9allocatorIcEEEENS2_4lessIS9_EENS7_IS9_EEEEE5PrintERKSD_PNS2_13basic_ostreamIcS6_EE, symObjAddr: 0x2846C, symBinAddr: 0x10002FF8C, symSize: 0x64 }
  - { offset: 0x1DEBF, size: 0x8, addend: 0x0, symName: __ZN7testing8internal16ContainerPrinter10PrintValueINSt3__13setINS3_12basic_stringIcNS3_11char_traitsIcEENS3_9allocatorIcEEEENS3_4lessISA_EENS8_ISA_EEEEvEEvRKT_PNS3_13basic_ostreamIcS7_EE, symObjAddr: 0x2861C, symBinAddr: 0x10003013C, symSize: 0x568 }
  - { offset: 0x1DF75, size: 0x8, addend: 0x0, symName: __ZNK7testing8internal18ContainerEqMatcherINSt3__13mapINS2_12basic_stringIcNS2_11char_traitsIcEENS2_9allocatorIcEEEENS2_3setIS9_NS2_4lessIS9_EENS7_IS9_EEEESC_NS7_INS2_4pairIKS9_SE_EEEEEEE18DescribeNegationToEPNS2_13basic_ostreamIcS6_EE, symObjAddr: 0x28BF0, symBinAddr: 0x100030710, symSize: 0xE0 }
  - { offset: 0x1DFAA, size: 0x8, addend: 0x0, symName: __ZNK7testing8internal18ContainerEqMatcherINSt3__13mapINS2_12basic_stringIcNS2_11char_traitsIcEENS2_9allocatorIcEEEENS2_3setIS9_NS2_4lessIS9_EENS7_IS9_EEEESC_NS7_INS2_4pairIKS9_SE_EEEEEEE15MatchAndExplainISJ_EEbRKT_PNS_19MatchResultListenerE, symObjAddr: 0x28CD0, symBinAddr: 0x1000307F0, symSize: 0xBC4 }
  - { offset: 0x1E08B, size: 0x8, addend: 0x0, symName: __ZN7testing8internal16StlContainerViewINSt3__13mapINS2_12basic_stringIcNS2_11char_traitsIcEENS2_9allocatorIcEEEENS2_3setIS9_NS2_4lessIS9_EENS7_IS9_EEEESC_NS7_INS2_4pairIKS9_SE_EEEEEEE14ConstReferenceERKSJ_, symObjAddr: 0x2989C, symBinAddr: 0x1000313BC, symSize: 0x58 }
  - { offset: 0x1E0AF, size: 0x8, addend: 0x0, symName: __ZN7testing19MatchResultListener6streamEv, symObjAddr: 0x29A58, symBinAddr: 0x100031578, symSize: 0x10C }
  - { offset: 0x1E0D5, size: 0x8, addend: 0x0, symName: __ZNKSt3__13mapINS_12basic_stringIcNS_11char_traitsIcEENS_9allocatorIcEEEENS_3setIS6_NS_4lessIS6_EENS4_IS6_EEEES9_NS4_INS_4pairIKS6_SB_EEEEE4sizeB8ne190107Ev, symObjAddr: 0x29EDC, symBinAddr: 0x1000319FC, symSize: 0x10C }
  - { offset: 0x1E0FB, size: 0x8, addend: 0x0, symName: __ZNKSt3__16__treeINS_12__value_typeINS_12basic_stringIcNS_11char_traitsIcEENS_9allocatorIcEEEENS_3setIS7_NS_4lessIS7_EENS5_IS7_EEEEEENS_19__map_value_compareIS7_SD_SA_Lb1EEENS5_ISD_EEE4sizeB8ne190107Ev, symObjAddr: 0x2A06C, symBinAddr: 0x100031B8C, symSize: 0xD8 }
  - { offset: 0x1E121, size: 0x8, addend: 0x0, symName: __ZNKSt3__117__compressed_pairImNS_19__map_value_compareINS_12basic_stringIcNS_11char_traitsIcEENS_9allocatorIcEEEENS_12__value_typeIS7_NS_3setIS7_NS_4lessIS7_EENS5_IS7_EEEEEESB_Lb1EEEE5firstB8ne190107Ev, symObjAddr: 0x2A144, symBinAddr: 0x100031C64, symSize: 0xEC }
  - { offset: 0x1E147, size: 0x8, addend: 0x0, symName: __ZNKSt3__122__compressed_pair_elemImLi0ELb0EE5__getB8ne190107Ev, symObjAddr: 0x2A230, symBinAddr: 0x100031D50, symSize: 0x8C }
  - { offset: 0x1E177, size: 0x8, addend: 0x0, symName: __ZNKSt3__110__equal_toclB8ne190107INS_4pairIKNS_12basic_stringIcNS_11char_traitsIcEENS_9allocatorIcEEEENS_3setIS8_NS_4lessIS8_EENS6_IS8_EEEEEESF_EEbRKT_RKT0_, symObjAddr: 0x2A878, symBinAddr: 0x100032398, symSize: 0xC4 }
  - { offset: 0x1E1CB, size: 0x8, addend: 0x0, symName: __ZNKSt3__13setINS_12basic_stringIcNS_11char_traitsIcEENS_9allocatorIcEEEENS_4lessIS6_EENS4_IS6_EEE4sizeB8ne190107Ev, symObjAddr: 0x2AD50, symBinAddr: 0x100032870, symSize: 0x10C }
  - { offset: 0x1E1F1, size: 0x8, addend: 0x0, symName: __ZNKSt3__16__treeINS_12basic_stringIcNS_11char_traitsIcEENS_9allocatorIcEEEENS_4lessIS6_EENS4_IS6_EEE4sizeB8ne190107Ev, symObjAddr: 0x2AEE0, symBinAddr: 0x100032A00, symSize: 0xD8 }
  - { offset: 0x1E217, size: 0x8, addend: 0x0, symName: __ZNKSt3__117__compressed_pairImNS_4lessINS_12basic_stringIcNS_11char_traitsIcEENS_9allocatorIcEEEEEEE5firstB8ne190107Ev, symObjAddr: 0x2AFB8, symBinAddr: 0x100032AD8, symSize: 0xEC }
  - { offset: 0x1E23D, size: 0x8, addend: 0x0, symName: __ZNKSt3__110__equal_toclB8ne190107INS_12basic_stringIcNS_11char_traitsIcEENS_9allocatorIcEEEES7_EEbRKT_RKT0_, symObjAddr: 0x2B660, symBinAddr: 0x100033180, symSize: 0xC4 }
  - { offset: 0x1E291, size: 0x8, addend: 0x0, symName: __ZNSt3__118__unwrap_iter_implINS_21__tree_const_iteratorINS_12basic_stringIcNS_11char_traitsIcEENS_9allocatorIcEEEEPNS_11__tree_nodeIS7_PvEElEELb0EE8__unwrapB8ne190107ESC_, symObjAddr: 0x2B72C, symBinAddr: 0x10003324C, symSize: 0x30 }
  - { offset: 0x1E2B4, size: 0x8, addend: 0x0, symName: __ZNSt3__118__unwrap_iter_implINS_20__map_const_iteratorINS_21__tree_const_iteratorINS_12__value_typeINS_12basic_stringIcNS_11char_traitsIcEENS_9allocatorIcEEEENS_3setIS9_NS_4lessIS9_EENS7_IS9_EEEEEEPNS_11__tree_nodeISF_PvEElEEEELb0EE8__unwrapB8ne190107ESL_, symObjAddr: 0x2B764, symBinAddr: 0x100033284, symSize: 0x30 }
  - { offset: 0x1E2D7, size: 0x8, addend: 0x0, symName: __ZN7testing7MatcherIRKNSt3__13mapINS1_12basic_stringIcNS1_11char_traitsIcEENS1_9allocatorIcEEEENS1_3setIS8_NS1_4lessIS8_EENS6_IS8_EEEESB_NS6_INS1_4pairIKS8_SD_EEEEEEEC2EPKNS_16MatcherInterfaceISK_EE, symObjAddr: 0x2B838, symBinAddr: 0x100033358, symSize: 0x108 }
  - { offset: 0x1E310, size: 0x8, addend: 0x0, symName: __ZN7testing8internal11MatcherBaseIRKNSt3__13mapINS2_12basic_stringIcNS2_11char_traitsIcEENS2_9allocatorIcEEEENS2_3setIS9_NS2_4lessIS9_EENS7_IS9_EEEESC_NS7_INS2_4pairIKS9_SE_EEEEEEEC2ISL_EEPKNS_16MatcherInterfaceIT_EE, symObjAddr: 0x2B940, symBinAddr: 0x100033460, symSize: 0x3AC }
  - { offset: 0x1E357, size: 0x8, addend: 0x0, symName: __ZN7testing7MatcherIRKNSt3__13mapINS1_12basic_stringIcNS1_11char_traitsIcEENS1_9allocatorIcEEEENS1_3setIS8_NS1_4lessIS8_EENS6_IS8_EEEESB_NS6_INS1_4pairIKS8_SD_EEEEEEED0Ev, symObjAddr: 0x2BCEC, symBinAddr: 0x10003380C, symSize: 0x68 }
  - { offset: 0x1E383, size: 0x8, addend: 0x0, symName: __ZNK7testing8internal11MatcherBaseIRKNSt3__13mapINS2_12basic_stringIcNS2_11char_traitsIcEENS2_9allocatorIcEEEENS2_3setIS9_NS2_4lessIS9_EENS7_IS9_EEEESC_NS7_INS2_4pairIKS9_SE_EEEEEEE18DescribeNegationToEPNS2_13basic_ostreamIcS6_EE, symObjAddr: 0x2BD54, symBinAddr: 0x100033874, symSize: 0x5A4 }
  - { offset: 0x1E3B9, size: 0x8, addend: 0x0, symName: __ZN7testing8internal11MatcherBaseIRKNSt3__13mapINS2_12basic_stringIcNS2_11char_traitsIcEENS2_9allocatorIcEEEENS2_3setIS9_NS2_4lessIS9_EENS7_IS9_EEEESC_NS7_INS2_4pairIKS9_SE_EEEEEEE4InitIRPKNS_16MatcherInterfaceISL_EEEEvOT_, symObjAddr: 0x2C2F8, symBinAddr: 0x100033E18, symSize: 0x234 }
  - { offset: 0x1E3F7, size: 0x8, addend: 0x0, symName: __ZN7testing8internal11MatcherBaseIRKNSt3__13mapINS2_12basic_stringIcNS2_11char_traitsIcEENS2_9allocatorIcEEEENS2_3setIS9_NS2_4lessIS9_EENS7_IS9_EEEESC_NS7_INS2_4pairIKS9_SE_EEEEEEED1Ev, symObjAddr: 0x2C52C, symBinAddr: 0x10003404C, symSize: 0x64 }
  - { offset: 0x1E421, size: 0x8, addend: 0x0, symName: __ZN7testing8internal11MatcherBaseIRKNSt3__13mapINS2_12basic_stringIcNS2_11char_traitsIcEENS2_9allocatorIcEEEENS2_3setIS9_NS2_4lessIS9_EENS7_IS9_EEEESC_NS7_INS2_4pairIKS9_SE_EEEEEEED0Ev, symObjAddr: 0x2C590, symBinAddr: 0x1000340B0, symSize: 0x68 }
  - { offset: 0x1E44B, size: 0x8, addend: 0x0, symName: __ZN7testing8internal11MatcherBaseIRKNSt3__13mapINS2_12basic_stringIcNS2_11char_traitsIcEENS2_9allocatorIcEEEENS2_3setIS9_NS2_4lessIS9_EENS7_IS9_EEEESC_NS7_INS2_4pairIKS9_SE_EEEEEEE11ValuePolicyIPKNS_16MatcherInterfaceISL_EELb1EE4InitERSM_SR_, symObjAddr: 0x2C65C, symBinAddr: 0x10003417C, symSize: 0x3B4 }
  - { offset: 0x1E480, size: 0x8, addend: 0x0, symName: __ZN7testing8internal11MatcherBaseIRKNSt3__13mapINS2_12basic_stringIcNS2_11char_traitsIcEENS2_9allocatorIcEEEENS2_3setIS9_NS2_4lessIS9_EENS7_IS9_EEEESC_NS7_INS2_4pairIKS9_SE_EEEEEEE19MatchAndExplainImplINSM_11ValuePolicyIPKNS_16MatcherInterfaceISL_EELb1EEEEEDTcldtclsrT_3Getfp_E15MatchAndExplainfp0_fp1_EERKSM_SL_PNS_19MatchResultListenerE, symObjAddr: 0x2CA18, symBinAddr: 0x100034538, symSize: 0x1E0 }
  - { offset: 0x1E4CB, size: 0x8, addend: 0x0, symName: __ZN7testing8internal11MatcherBaseIRKNSt3__13mapINS2_12basic_stringIcNS2_11char_traitsIcEENS2_9allocatorIcEEEENS2_3setIS9_NS2_4lessIS9_EENS7_IS9_EEEESC_NS7_INS2_4pairIKS9_SE_EEEEEEE12DescribeImplINSM_11ValuePolicyIPKNS_16MatcherInterfaceISL_EELb1EEEEEvRKSM_PNS2_13basic_ostreamIcS6_EEb, symObjAddr: 0x2CC00, symBinAddr: 0x100034720, symSize: 0x3A0 }
  - { offset: 0x1E516, size: 0x8, addend: 0x0, symName: __ZN7testing8internal11MatcherBaseIRKNSt3__13mapINS2_12basic_stringIcNS2_11char_traitsIcEENS2_9allocatorIcEEEENS2_3setIS9_NS2_4lessIS9_EENS7_IS9_EEEESC_NS7_INS2_4pairIKS9_SE_EEEEEEE16GetDescriberImplINSM_11ValuePolicyIPKNS_16MatcherInterfaceISL_EELb1EEEEEPKNS_25MatcherDescriberInterfaceERKSM_, symObjAddr: 0x2CFA8, symBinAddr: 0x100034AC8, symSize: 0x31C }
  - { offset: 0x1E544, size: 0x8, addend: 0x0, symName: __ZN7testing8internal13SharedPayloadINSt3__110unique_ptrIKNS_16MatcherInterfaceIRKNS2_3mapINS2_12basic_stringIcNS2_11char_traitsIcEENS2_9allocatorIcEEEENS2_3setISB_NS2_4lessISB_EENS9_ISB_EEEESE_NS9_INS2_4pairIKSB_SG_EEEEEEEENS2_14default_deleteISP_EEEEE7DestroyEPNS0_17SharedPayloadBaseE, symObjAddr: 0x2D2CC, symBinAddr: 0x100034DEC, symSize: 0xAC }
  - { offset: 0x1E567, size: 0x8, addend: 0x0, symName: __ZN7testing8internal11MatcherBaseIRKNSt3__13mapINS2_12basic_stringIcNS2_11char_traitsIcEENS2_9allocatorIcEEEENS2_3setIS9_NS2_4lessIS9_EENS7_IS9_EEEESC_NS7_INS2_4pairIKS9_SE_EEEEEEE11ValuePolicyIPKNS_16MatcherInterfaceISL_EELb1EE3GetERKSM_, symObjAddr: 0x2D380, symBinAddr: 0x100034EA0, symSize: 0x1BC }
  - { offset: 0x1E58B, size: 0x8, addend: 0x0, symName: __ZNKSt3__110unique_ptrIKN7testing16MatcherInterfaceIRKNS_3mapINS_12basic_stringIcNS_11char_traitsIcEENS_9allocatorIcEEEENS_3setIS9_NS_4lessIS9_EENS7_IS9_EEEESC_NS7_INS_4pairIKS9_SE_EEEEEEEENS_14default_deleteISN_EEEdeB8ne190107Ev, symObjAddr: 0x2D53C, symBinAddr: 0x10003505C, symSize: 0x144 }
  - { offset: 0x1E5B1, size: 0x8, addend: 0x0, symName: __ZNKSt3__117__compressed_pairIPKN7testing16MatcherInterfaceIRKNS_3mapINS_12basic_stringIcNS_11char_traitsIcEENS_9allocatorIcEEEENS_3setIS9_NS_4lessIS9_EENS7_IS9_EEEESC_NS7_INS_4pairIKS9_SE_EEEEEEEENS_14default_deleteISN_EEE5firstB8ne190107Ev, symObjAddr: 0x2D680, symBinAddr: 0x1000351A0, symSize: 0xEC }
  - { offset: 0x1E5D7, size: 0x8, addend: 0x0, symName: __ZNKSt3__122__compressed_pair_elemIPKN7testing16MatcherInterfaceIRKNS_3mapINS_12basic_stringIcNS_11char_traitsIcEENS_9allocatorIcEEEENS_3setIS9_NS_4lessIS9_EENS7_IS9_EEEESC_NS7_INS_4pairIKS9_SE_EEEEEEEELi0ELb0EE5__getB8ne190107Ev, symObjAddr: 0x2D76C, symBinAddr: 0x10003528C, symSize: 0x8C }
  - { offset: 0x1E61E, size: 0x8, addend: 0x0, symName: __ZNSt3__112__tuple_leafILm1EPKN7testing16MatcherInterfaceIRKNS_3mapINS_12basic_stringIcNS_11char_traitsIcEENS_9allocatorIcEEEENS_3setIS9_NS_4lessIS9_EENS7_IS9_EEEESC_NS7_INS_4pairIKS9_SE_EEEEEEEELb0EE3getB8ne190107Ev, symObjAddr: 0x2DB00, symBinAddr: 0x100035620, symSize: 0x8C }
  - { offset: 0x1E6C4, size: 0x8, addend: 0x0, symName: __ZNSt3__15tupleIJPKN7testing8internal11MatcherBaseIRKNS_3mapINS_12basic_stringIcNS_11char_traitsIcEENS_9allocatorIcEEEENS_3setISA_NS_4lessISA_EENS8_ISA_EEEESD_NS8_INS_4pairIKSA_SF_EEEEEEEEPKNS1_16MatcherInterfaceISM_EEEEC1B8ne190107IJSP_ST_ETnNS_9enable_ifIXsr4_AndINS_17integral_constantIbXeqsZT_sZT_EEENSU_17_EnableUTypesCtorIJDpT_EEEEE5valueEiE4typeELi0EEEDpOS10_, symObjAddr: 0x2DB8C, symBinAddr: 0x1000356AC, symSize: 0x74 }
  - { offset: 0x1E722, size: 0x8, addend: 0x0, symName: __ZNSt3__15tupleIJPKN7testing8internal11MatcherBaseIRKNS_3mapINS_12basic_stringIcNS_11char_traitsIcEENS_9allocatorIcEEEENS_3setISA_NS_4lessISA_EENS8_ISA_EEEESD_NS8_INS_4pairIKSA_SF_EEEEEEEEPKNS1_16MatcherInterfaceISM_EEEEC2B8ne190107IJSP_ST_ETnNS_9enable_ifIXsr4_AndINS_17integral_constantIbXeqsZT_sZT_EEENSU_17_EnableUTypesCtorIJDpT_EEEEE5valueEiE4typeELi0EEEDpOS10_, symObjAddr: 0x2DC00, symBinAddr: 0x100035720, symSize: 0xE4 }
  - { offset: 0x1E780, size: 0x8, addend: 0x0, symName: __ZNSt3__112__tuple_implINS_15__tuple_indicesIJLm0ELm1EEEEJPKN7testing8internal11MatcherBaseIRKNS_3mapINS_12basic_stringIcNS_11char_traitsIcEENS_9allocatorIcEEEENS_3setISC_NS_4lessISC_EENSA_ISC_EEEESF_NSA_INS_4pairIKSC_SH_EEEEEEEEPKNS3_16MatcherInterfaceISO_EEEEC1B8ne190107IJLm0ELm1EEJSR_SV_ETpTnmJEJEJSR_SV_EEENS1_IJXspT_EEEENS_13__tuple_typesIJDpT0_EEENS1_IJXspT1_EEEENSZ_IJDpT2_EEEDpOT3_, symObjAddr: 0x2DCE4, symBinAddr: 0x100035804, symSize: 0x74 }
  - { offset: 0x1E836, size: 0x8, addend: 0x0, symName: __ZNSt3__112__tuple_implINS_15__tuple_indicesIJLm0ELm1EEEEJPKN7testing8internal11MatcherBaseIRKNS_3mapINS_12basic_stringIcNS_11char_traitsIcEENS_9allocatorIcEEEENS_3setISC_NS_4lessISC_EENSA_ISC_EEEESF_NSA_INS_4pairIKSC_SH_EEEEEEEEPKNS3_16MatcherInterfaceISO_EEEEC2B8ne190107IJLm0ELm1EEJSR_SV_ETpTnmJEJEJSR_SV_EEENS1_IJXspT_EEEENS_13__tuple_typesIJDpT0_EEENS1_IJXspT1_EEEENSZ_IJDpT2_EEEDpOT3_, symObjAddr: 0x2DD58, symBinAddr: 0x100035878, symSize: 0x168 }
  - { offset: 0x1E8EC, size: 0x8, addend: 0x0, symName: __ZNSt3__112__tuple_leafILm0EPKN7testing8internal11MatcherBaseIRKNS_3mapINS_12basic_stringIcNS_11char_traitsIcEENS_9allocatorIcEEEENS_3setISA_NS_4lessISA_EENS8_ISA_EEEESD_NS8_INS_4pairIKSA_SF_EEEEEEEELb0EEC2B8ne190107ISP_TnNS_9enable_ifIXsr4_AndINS_17integral_constantIbXntu9__is_sameu14__remove_cvrefIT_ESQ_EEEENS_16is_constructibleISP_JSU_EEEEE5valueEiE4typeELi0EEEOSU_, symObjAddr: 0x2DEC0, symBinAddr: 0x1000359E0, symSize: 0x124 }
  - { offset: 0x1E934, size: 0x8, addend: 0x0, symName: __ZNSt3__112__tuple_leafILm1EPKN7testing16MatcherInterfaceIRKNS_3mapINS_12basic_stringIcNS_11char_traitsIcEENS_9allocatorIcEEEENS_3setIS9_NS_4lessIS9_EENS7_IS9_EEEESC_NS7_INS_4pairIKS9_SE_EEEEEEEELb0EEC2B8ne190107ISO_TnNS_9enable_ifIXsr4_AndINS_17integral_constantIbXntu9__is_sameu14__remove_cvrefIT_ESP_EEEENS_16is_constructibleISO_JST_EEEEE5valueEiE4typeELi0EEEOST_, symObjAddr: 0x2DFE4, symBinAddr: 0x100035B04, symSize: 0x124 }
  - { offset: 0x1E97C, size: 0x8, addend: 0x0, symName: __ZN7testing8internal13SharedPayloadINSt3__110unique_ptrIKNS_16MatcherInterfaceIRKNS2_3mapINS2_12basic_stringIcNS2_11char_traitsIcEENS2_9allocatorIcEEEENS2_3setISB_NS2_4lessISB_EENS9_ISB_EEEESE_NS9_INS2_4pairIKSB_SG_EEEEEEEENS2_14default_deleteISP_EEEEED1Ev, symObjAddr: 0x2E108, symBinAddr: 0x100035C28, symSize: 0x64 }
  - { offset: 0x1E9A8, size: 0x8, addend: 0x0, symName: __ZN7testing8internal13SharedPayloadINSt3__110unique_ptrIKNS_16MatcherInterfaceIRKNS2_3mapINS2_12basic_stringIcNS2_11char_traitsIcEENS2_9allocatorIcEEEENS2_3setISB_NS2_4lessISB_EENS9_ISB_EEEESE_NS9_INS2_4pairIKSB_SG_EEEEEEEENS2_14default_deleteISP_EEEEED2Ev, symObjAddr: 0x2E16C, symBinAddr: 0x100035C8C, symSize: 0x68 }
  - { offset: 0x1E9D4, size: 0x8, addend: 0x0, symName: __ZNSt3__110unique_ptrIKN7testing16MatcherInterfaceIRKNS_3mapINS_12basic_stringIcNS_11char_traitsIcEENS_9allocatorIcEEEENS_3setIS9_NS_4lessIS9_EENS7_IS9_EEEESC_NS7_INS_4pairIKS9_SE_EEEEEEEENS_14default_deleteISN_EEED1B8ne190107Ev, symObjAddr: 0x2E1D4, symBinAddr: 0x100035CF4, symSize: 0x64 }
  - { offset: 0x1E9FE, size: 0x8, addend: 0x0, symName: __ZNSt3__110unique_ptrIKN7testing16MatcherInterfaceIRKNS_3mapINS_12basic_stringIcNS_11char_traitsIcEENS_9allocatorIcEEEENS_3setIS9_NS_4lessIS9_EENS7_IS9_EEEESC_NS7_INS_4pairIKS9_SE_EEEEEEEENS_14default_deleteISN_EEED2B8ne190107Ev, symObjAddr: 0x2E238, symBinAddr: 0x100035D58, symSize: 0x68 }
  - { offset: 0x1EA28, size: 0x8, addend: 0x0, symName: __ZNSt3__110unique_ptrIKN7testing16MatcherInterfaceIRKNS_3mapINS_12basic_stringIcNS_11char_traitsIcEENS_9allocatorIcEEEENS_3setIS9_NS_4lessIS9_EENS7_IS9_EEEESC_NS7_INS_4pairIKS9_SE_EEEEEEEENS_14default_deleteISN_EEE5resetB8ne190107EPSN_, symObjAddr: 0x2E2A0, symBinAddr: 0x100035DC0, symSize: 0x240 }
  - { offset: 0x1EA6C, size: 0x8, addend: 0x0, symName: __ZNSt3__117__compressed_pairIPKN7testing16MatcherInterfaceIRKNS_3mapINS_12basic_stringIcNS_11char_traitsIcEENS_9allocatorIcEEEENS_3setIS9_NS_4lessIS9_EENS7_IS9_EEEESC_NS7_INS_4pairIKS9_SE_EEEEEEEENS_14default_deleteISN_EEE5firstB8ne190107Ev, symObjAddr: 0x2E4E0, symBinAddr: 0x100036000, symSize: 0xEC }
  - { offset: 0x1EA92, size: 0x8, addend: 0x0, symName: __ZNSt3__117__compressed_pairIPKN7testing16MatcherInterfaceIRKNS_3mapINS_12basic_stringIcNS_11char_traitsIcEENS_9allocatorIcEEEENS_3setIS9_NS_4lessIS9_EENS7_IS9_EEEESC_NS7_INS_4pairIKS9_SE_EEEEEEEENS_14default_deleteISN_EEE6secondB8ne190107Ev, symObjAddr: 0x2E5CC, symBinAddr: 0x1000360EC, symSize: 0xC4 }
  - { offset: 0x1EAB8, size: 0x8, addend: 0x0, symName: __ZNKSt3__114default_deleteIKN7testing16MatcherInterfaceIRKNS_3mapINS_12basic_stringIcNS_11char_traitsIcEENS_9allocatorIcEEEENS_3setIS9_NS_4lessIS9_EENS7_IS9_EEEESC_NS7_INS_4pairIKS9_SE_EEEEEEEEEclB8ne190107EPSN_, symObjAddr: 0x2E690, symBinAddr: 0x1000361B0, symSize: 0x18C }
  - { offset: 0x1EAEC, size: 0x8, addend: 0x0, symName: __ZNSt3__122__compressed_pair_elemIPKN7testing16MatcherInterfaceIRKNS_3mapINS_12basic_stringIcNS_11char_traitsIcEENS_9allocatorIcEEEENS_3setIS9_NS_4lessIS9_EENS7_IS9_EEEESC_NS7_INS_4pairIKS9_SE_EEEEEEEELi0ELb0EE5__getB8ne190107Ev, symObjAddr: 0x2E81C, symBinAddr: 0x10003633C, symSize: 0x8C }
  - { offset: 0x1EB12, size: 0x8, addend: 0x0, symName: __ZNSt3__122__compressed_pair_elemINS_14default_deleteIKN7testing16MatcherInterfaceIRKNS_3mapINS_12basic_stringIcNS_11char_traitsIcEENS_9allocatorIcEEEENS_3setISA_NS_4lessISA_EENS8_ISA_EEEESD_NS8_INS_4pairIKSA_SF_EEEEEEEEEELi1ELb1EE5__getB8ne190107Ev, symObjAddr: 0x2E8A8, symBinAddr: 0x1000363C8, symSize: 0x64 }
  - { offset: 0x1EB38, size: 0x8, addend: 0x0, symName: __ZNSt3__110unique_ptrIKN7testing16MatcherInterfaceIRKNS_3mapINS_12basic_stringIcNS_11char_traitsIcEENS_9allocatorIcEEEENS_3setIS9_NS_4lessIS9_EENS7_IS9_EEEESC_NS7_INS_4pairIKS9_SE_EEEEEEEENS_14default_deleteISN_EEEC1B8ne190107ILb1EvEEPSN_, symObjAddr: 0x2E90C, symBinAddr: 0x10003642C, symSize: 0x6C }
  - { offset: 0x1EB7B, size: 0x8, addend: 0x0, symName: __ZN7testing8internal13SharedPayloadINSt3__110unique_ptrIKNS_16MatcherInterfaceIRKNS2_3mapINS2_12basic_stringIcNS2_11char_traitsIcEENS2_9allocatorIcEEEENS2_3setISB_NS2_4lessISB_EENS9_ISB_EEEESE_NS9_INS2_4pairIKSB_SG_EEEEEEEENS2_14default_deleteISP_EEEEEC1EOSS_, symObjAddr: 0x2E978, symBinAddr: 0x100036498, symSize: 0x6C }
  - { offset: 0x1EBB3, size: 0x8, addend: 0x0, symName: __ZNSt3__110unique_ptrIKN7testing16MatcherInterfaceIRKNS_3mapINS_12basic_stringIcNS_11char_traitsIcEENS_9allocatorIcEEEENS_3setIS9_NS_4lessIS9_EENS7_IS9_EEEESC_NS7_INS_4pairIKS9_SE_EEEEEEEENS_14default_deleteISN_EEEC2B8ne190107ILb1EvEEPSN_, symObjAddr: 0x2E9E4, symBinAddr: 0x100036504, symSize: 0x250 }
  - { offset: 0x1EC01, size: 0x8, addend: 0x0, symName: __ZNSt3__117__compressed_pairIPKN7testing16MatcherInterfaceIRKNS_3mapINS_12basic_stringIcNS_11char_traitsIcEENS_9allocatorIcEEEENS_3setIS9_NS_4lessIS9_EENS7_IS9_EEEESC_NS7_INS_4pairIKS9_SE_EEEEEEEENS_14default_deleteISN_EEEC1B8ne190107IRSO_NS_16__value_init_tagEEEOT_OT0_, symObjAddr: 0x2EC34, symBinAddr: 0x100036754, symSize: 0x74 }
  - { offset: 0x1EC59, size: 0x8, addend: 0x0, symName: __ZNSt3__117__compressed_pairIPKN7testing16MatcherInterfaceIRKNS_3mapINS_12basic_stringIcNS_11char_traitsIcEENS_9allocatorIcEEEENS_3setIS9_NS_4lessIS9_EENS7_IS9_EEEESC_NS7_INS_4pairIKS9_SE_EEEEEEEENS_14default_deleteISN_EEEC2B8ne190107IRSO_NS_16__value_init_tagEEEOT_OT0_, symObjAddr: 0x2ECA8, symBinAddr: 0x1000367C8, symSize: 0x104 }
  - { offset: 0x1ECB1, size: 0x8, addend: 0x0, symName: __ZNSt3__122__compressed_pair_elemIPKN7testing16MatcherInterfaceIRKNS_3mapINS_12basic_stringIcNS_11char_traitsIcEENS_9allocatorIcEEEENS_3setIS9_NS_4lessIS9_EENS7_IS9_EEEESC_NS7_INS_4pairIKS9_SE_EEEEEEEELi0ELb0EEC2B8ne190107IRSO_TnNS_9enable_ifIXntsr7is_sameISP_u7__decayIT_EEE5valueEiE4typeELi0EEEOST_, symObjAddr: 0x2EDAC, symBinAddr: 0x1000368CC, symSize: 0x124 }
  - { offset: 0x1ECF8, size: 0x8, addend: 0x0, symName: __ZNSt3__122__compressed_pair_elemINS_14default_deleteIKN7testing16MatcherInterfaceIRKNS_3mapINS_12basic_stringIcNS_11char_traitsIcEENS_9allocatorIcEEEENS_3setISA_NS_4lessISA_EENS8_ISA_EEEESD_NS8_INS_4pairIKSA_SF_EEEEEEEEEELi1ELb1EEC2B8ne190107ENS_16__value_init_tagE, symObjAddr: 0x2EED0, symBinAddr: 0x1000369F0, symSize: 0x48 }
  - { offset: 0x1ED2D, size: 0x8, addend: 0x0, symName: __ZN7testing8internal13SharedPayloadINSt3__110unique_ptrIKNS_16MatcherInterfaceIRKNS2_3mapINS2_12basic_stringIcNS2_11char_traitsIcEENS2_9allocatorIcEEEENS2_3setISB_NS2_4lessISB_EENS9_ISB_EEEESE_NS9_INS2_4pairIKSB_SG_EEEEEEEENS2_14default_deleteISP_EEEEEC2EOSS_, symObjAddr: 0x2EF18, symBinAddr: 0x100036A38, symSize: 0xEC }
  - { offset: 0x1ED65, size: 0x8, addend: 0x0, symName: __ZN7testing8internal17SharedPayloadBaseC2Ev, symObjAddr: 0x2F004, symBinAddr: 0x100036B24, symSize: 0x68 }
  - { offset: 0x1ED91, size: 0x8, addend: 0x0, symName: __ZNSt3__110unique_ptrIKN7testing16MatcherInterfaceIRKNS_3mapINS_12basic_stringIcNS_11char_traitsIcEENS_9allocatorIcEEEENS_3setIS9_NS_4lessIS9_EENS7_IS9_EEEESC_NS7_INS_4pairIKS9_SE_EEEEEEEENS_14default_deleteISN_EEEC1B8ne190107EOSQ_, symObjAddr: 0x2F06C, symBinAddr: 0x100036B8C, symSize: 0x6C }
  - { offset: 0x1EDC9, size: 0x8, addend: 0x0, symName: __ZNSt3__16atomicIiEC1B8ne190107Ei, symObjAddr: 0x2F0D8, symBinAddr: 0x100036BF8, symSize: 0x6C }
  - { offset: 0x1EE01, size: 0x8, addend: 0x0, symName: __ZNSt3__16atomicIiEC2B8ne190107Ei, symObjAddr: 0x2F144, symBinAddr: 0x100036C64, symSize: 0xA8 }
  - { offset: 0x1EE39, size: 0x8, addend: 0x0, symName: __ZNSt3__113__atomic_baseIiLb1EEC2B8ne190107Ei, symObjAddr: 0x2F1EC, symBinAddr: 0x100036D0C, symSize: 0xA8 }
  - { offset: 0x1EE71, size: 0x8, addend: 0x0, symName: __ZNSt3__113__atomic_baseIiLb0EEC2B8ne190107Ei, symObjAddr: 0x2F294, symBinAddr: 0x100036DB4, symSize: 0x6C }
  - { offset: 0x1EEA9, size: 0x8, addend: 0x0, symName: __ZNSt3__117__cxx_atomic_implIiNS_22__cxx_atomic_base_implIiEEEC1B8ne190107Ei, symObjAddr: 0x2F300, symBinAddr: 0x100036E20, symSize: 0x6C }
  - { offset: 0x1EEE2, size: 0x8, addend: 0x0, symName: __ZNSt3__117__cxx_atomic_implIiNS_22__cxx_atomic_base_implIiEEEC2B8ne190107Ei, symObjAddr: 0x2F36C, symBinAddr: 0x100036E8C, symSize: 0xA8 }
  - { offset: 0x1EF1B, size: 0x8, addend: 0x0, symName: __ZNSt3__122__cxx_atomic_base_implIiEC2Ei, symObjAddr: 0x2F414, symBinAddr: 0x100036F34, symSize: 0xDC }
  - { offset: 0x1EF54, size: 0x8, addend: 0x0, symName: __ZNSt3__110unique_ptrIKN7testing16MatcherInterfaceIRKNS_3mapINS_12basic_stringIcNS_11char_traitsIcEENS_9allocatorIcEEEENS_3setIS9_NS_4lessIS9_EENS7_IS9_EEEESC_NS7_INS_4pairIKS9_SE_EEEEEEEENS_14default_deleteISN_EEEC2B8ne190107EOSQ_, symObjAddr: 0x2F4F0, symBinAddr: 0x100037010, symSize: 0x2A4 }
  - { offset: 0x1EF8E, size: 0x8, addend: 0x0, symName: __ZNSt3__110unique_ptrIKN7testing16MatcherInterfaceIRKNS_3mapINS_12basic_stringIcNS_11char_traitsIcEENS_9allocatorIcEEEENS_3setIS9_NS_4lessIS9_EENS7_IS9_EEEESC_NS7_INS_4pairIKS9_SE_EEEEEEEENS_14default_deleteISN_EEE7releaseB8ne190107Ev, symObjAddr: 0x2F794, symBinAddr: 0x1000372B4, symSize: 0x1BC }
  - { offset: 0x1EFC3, size: 0x8, addend: 0x0, symName: __ZNSt3__110unique_ptrIKN7testing16MatcherInterfaceIRKNS_3mapINS_12basic_stringIcNS_11char_traitsIcEENS_9allocatorIcEEEENS_3setIS9_NS_4lessIS9_EENS7_IS9_EEEESC_NS7_INS_4pairIKS9_SE_EEEEEEEENS_14default_deleteISN_EEE11get_deleterB8ne190107Ev, symObjAddr: 0x2F950, symBinAddr: 0x100037470, symSize: 0xB4 }
  - { offset: 0x1EFEF, size: 0x8, addend: 0x0, symName: __ZNSt3__117__compressed_pairIPKN7testing16MatcherInterfaceIRKNS_3mapINS_12basic_stringIcNS_11char_traitsIcEENS_9allocatorIcEEEENS_3setIS9_NS_4lessIS9_EENS7_IS9_EEEESC_NS7_INS_4pairIKS9_SE_EEEEEEEENS_14default_deleteISN_EEEC1B8ne190107ISO_SQ_EEOT_OT0_, symObjAddr: 0x2FA04, symBinAddr: 0x100037524, symSize: 0x74 }
  - { offset: 0x1F047, size: 0x8, addend: 0x0, symName: __ZNSt3__117__compressed_pairIPKN7testing16MatcherInterfaceIRKNS_3mapINS_12basic_stringIcNS_11char_traitsIcEENS_9allocatorIcEEEENS_3setIS9_NS_4lessIS9_EENS7_IS9_EEEESC_NS7_INS_4pairIKS9_SE_EEEEEEEENS_14default_deleteISN_EEEC2B8ne190107ISO_SQ_EEOT_OT0_, symObjAddr: 0x2FA78, symBinAddr: 0x100037598, symSize: 0x12C }
  - { offset: 0x1F09F, size: 0x8, addend: 0x0, symName: __ZNSt3__122__compressed_pair_elemIPKN7testing16MatcherInterfaceIRKNS_3mapINS_12basic_stringIcNS_11char_traitsIcEENS_9allocatorIcEEEENS_3setIS9_NS_4lessIS9_EENS7_IS9_EEEESC_NS7_INS_4pairIKS9_SE_EEEEEEEELi0ELb0EEC2B8ne190107ISO_TnNS_9enable_ifIXntsr7is_sameISP_u7__decayIT_EEE5valueEiE4typeELi0EEEOSS_, symObjAddr: 0x2FBA4, symBinAddr: 0x1000376C4, symSize: 0x124 }
  - { offset: 0x1F0E6, size: 0x8, addend: 0x0, symName: __ZNSt3__122__compressed_pair_elemINS_14default_deleteIKN7testing16MatcherInterfaceIRKNS_3mapINS_12basic_stringIcNS_11char_traitsIcEENS_9allocatorIcEEEENS_3setISA_NS_4lessISA_EENS8_ISA_EEEESD_NS8_INS_4pairIKSA_SF_EEEEEEEEEELi1ELb1EEC2B8ne190107ISP_TnNS_9enable_ifIXntsr7is_sameISQ_u7__decayIT_EEE5valueEiE4typeELi0EEEOST_, symObjAddr: 0x2FCC8, symBinAddr: 0x1000377E8, symSize: 0x4C }
  - { offset: 0x1F12D, size: 0x8, addend: 0x0, symName: __ZN7testing8internal11MatcherBaseIRKNSt3__13mapINS2_12basic_stringIcNS2_11char_traitsIcEENS2_9allocatorIcEEEENS2_3setIS9_NS2_4lessIS9_EENS7_IS9_EEEESC_NS7_INS2_4pairIKS9_SE_EEEEEEED2Ev, symObjAddr: 0x2FD14, symBinAddr: 0x100037834, symSize: 0x140 }
  - { offset: 0x1F157, size: 0x8, addend: 0x0, symName: __ZN7testing8internal11MatcherBaseIRKNSt3__13mapINS2_12basic_stringIcNS2_11char_traitsIcEENS2_9allocatorIcEEEENS2_3setIS9_NS2_4lessIS9_EENS7_IS9_EEEESC_NS7_INS2_4pairIKS9_SE_EEEEEEE7DestroyEv, symObjAddr: 0x2FE54, symBinAddr: 0x100037974, symSize: 0x468 }
  - { offset: 0x1F17D, size: 0x8, addend: 0x0, symName: __ZNK7testing8internal11MatcherBaseIRKNSt3__13mapINS2_12basic_stringIcNS2_11char_traitsIcEENS2_9allocatorIcEEEENS2_3setIS9_NS2_4lessIS9_EENS7_IS9_EEEESC_NS7_INS2_4pairIKS9_SE_EEEEEEE8IsSharedEv, symObjAddr: 0x302BC, symBinAddr: 0x100037DDC, symSize: 0x27C }
  - { offset: 0x1F1A3, size: 0x8, addend: 0x0, symName: __ZN7testing8internal17SharedPayloadBase5UnrefEv, symObjAddr: 0x30538, symBinAddr: 0x100038058, symSize: 0xC4 }
  - { offset: 0x1F1C9, size: 0x8, addend: 0x0, symName: __ZNSt3__113__atomic_baseIiLb1EE9fetch_subB8ne190107EiNS_12memory_orderE, symObjAddr: 0x305FC, symBinAddr: 0x10003811C, symSize: 0xC4 }
  - { offset: 0x1F226, size: 0x8, addend: 0x0, symName: __ZN7testing8internal8GTestLog9GetStreamEv, symObjAddr: 0x309AC, symBinAddr: 0x1000384CC, symSize: 0x5C }
  - { offset: 0x1F262, size: 0x8, addend: 0x0, symName: __ZN7testing8internal24DummyMatchResultListenerC1Ev, symObjAddr: 0x30A08, symBinAddr: 0x100038528, symSize: 0x64 }
  - { offset: 0x1F28C, size: 0x8, addend: 0x0, symName: __ZNK7testing8internal11MatcherBaseIRKNSt3__13mapINS2_12basic_stringIcNS2_11char_traitsIcEENS2_9allocatorIcEEEENS2_3setIS9_NS2_4lessIS9_EENS7_IS9_EEEESC_NS7_INS2_4pairIKS9_SE_EEEEEEE15MatchAndExplainESL_PNS_19MatchResultListenerE, symObjAddr: 0x30A6C, symBinAddr: 0x10003858C, symSize: 0x5D4 }
  - { offset: 0x1F2D1, size: 0x8, addend: 0x0, symName: __ZN7testing8internal24DummyMatchResultListenerD1Ev, symObjAddr: 0x31040, symBinAddr: 0x100038B60, symSize: 0x64 }
  - { offset: 0x1F2FD, size: 0x8, addend: 0x0, symName: __ZN7testing8internal24DummyMatchResultListenerC2Ev, symObjAddr: 0x310A4, symBinAddr: 0x100038BC4, symSize: 0xFC }
  - { offset: 0x1F327, size: 0x8, addend: 0x0, symName: __ZN7testing19MatchResultListenerC2EPNSt3__113basic_ostreamIcNS1_11char_traitsIcEEEE, symObjAddr: 0x311A0, symBinAddr: 0x100038CC0, symSize: 0xF4 }
  - { offset: 0x1F35F, size: 0x8, addend: 0x0, symName: __ZN7testing8internal24DummyMatchResultListenerD0Ev, symObjAddr: 0x31294, symBinAddr: 0x100038DB4, symSize: 0x68 }
  - { offset: 0x1F38B, size: 0x8, addend: 0x0, symName: __ZN7testing8internal24DummyMatchResultListenerD2Ev, symObjAddr: 0x312FC, symBinAddr: 0x100038E1C, symSize: 0x64 }
  - { offset: 0x1F3B7, size: 0x8, addend: 0x0, symName: __ZN7testing19MatchResultListenerD2Ev, symObjAddr: 0x31360, symBinAddr: 0x100038E80, symSize: 0x5C }
  - { offset: 0x1F3E2, size: 0x8, addend: 0x0, symName: __ZNSt3__19basic_iosIcNS_11char_traitsIcEEEC2B8ne190107Ev, symObjAddr: 0x313BC, symBinAddr: 0x100038EDC, symSize: 0xF8 }
  - { offset: 0x1F40C, size: 0x8, addend: 0x0, symName: __ZNSt3__114basic_iostreamIcNS_11char_traitsIcEEEC2B8ne190107EPNS_15basic_streambufIcS2_EE, symObjAddr: 0x314B4, symBinAddr: 0x100038FD4, symSize: 0x2F4 }
  - { offset: 0x1F452, size: 0x8, addend: 0x0, symName: __ZNSt3__115basic_stringbufIcNS_11char_traitsIcEENS_9allocatorIcEEEC1B8ne190107Ej, symObjAddr: 0x317A8, symBinAddr: 0x1000392C8, symSize: 0x6C }
  - { offset: 0x1F48B, size: 0x8, addend: 0x0, symName: __ZNSt3__18ios_baseC2B8ne190107Ev, symObjAddr: 0x31814, symBinAddr: 0x100039334, symSize: 0xE4 }
  - { offset: 0x1F4B5, size: 0x8, addend: 0x0, symName: __ZNSt3__113basic_istreamIcNS_11char_traitsIcEEEC2B8ne190107EPNS_15basic_streambufIcS2_EE, symObjAddr: 0x318F8, symBinAddr: 0x100039418, symSize: 0x344 }
  - { offset: 0x1F4FA, size: 0x8, addend: 0x0, symName: __ZNSt3__113basic_ostreamIcNS_11char_traitsIcEEEC2B8ne190107Ev, symObjAddr: 0x31C3C, symBinAddr: 0x10003975C, symSize: 0x19C }
  - { offset: 0x1F531, size: 0x8, addend: 0x0, symName: __ZNSt3__19basic_iosIcNS_11char_traitsIcEEE4initB8ne190107EPNS_15basic_streambufIcS2_EE, symObjAddr: 0x31DD8, symBinAddr: 0x1000398F8, symSize: 0x234 }
  - { offset: 0x1F566, size: 0x8, addend: 0x0, symName: __ZNSt3__118_SentinelValueFillINS_11char_traitsIcEEE6__initB8ne190107Ev, symObjAddr: 0x3200C, symBinAddr: 0x100039B2C, symSize: 0x100 }
  - { offset: 0x1F58C, size: 0x8, addend: 0x0, symName: __ZNSt3__115basic_stringbufIcNS_11char_traitsIcEENS_9allocatorIcEEEC2B8ne190107Ej, symObjAddr: 0x3210C, symBinAddr: 0x100039C2C, symSize: 0x198 }
  - { offset: 0x1F5C5, size: 0x8, addend: 0x0, symName: __ZNSt3__112basic_stringIcNS_11char_traitsIcEENS_9allocatorIcEEEC1B8ne190107Ev, symObjAddr: 0x322A4, symBinAddr: 0x100039DC4, symSize: 0x64 }
  - { offset: 0x1F5EF, size: 0x8, addend: 0x0, symName: __ZNSt3__112basic_stringIcNS_11char_traitsIcEENS_9allocatorIcEEEC2B8ne190107Ev, symObjAddr: 0x32308, symBinAddr: 0x100039E28, symSize: 0x240 }
  - { offset: 0x1F61A, size: 0x8, addend: 0x0, symName: __ZNSt3__117__compressed_pairINS_12basic_stringIcNS_11char_traitsIcEENS_9allocatorIcEEE5__repES5_EC1B8ne190107INS_16__value_init_tagENS_18__default_init_tagEEEOT_OT0_, symObjAddr: 0x32548, symBinAddr: 0x10003A068, symSize: 0x74 }
  - { offset: 0x1F672, size: 0x8, addend: 0x0, symName: __ZNSt3__117__compressed_pairINS_12basic_stringIcNS_11char_traitsIcEENS_9allocatorIcEEE5__repES5_EC2B8ne190107INS_16__value_init_tagENS_18__default_init_tagEEEOT_OT0_, symObjAddr: 0x325BC, symBinAddr: 0x10003A0DC, symSize: 0xC8 }
  - { offset: 0x1F6CA, size: 0x8, addend: 0x0, symName: __ZNSt3__122__compressed_pair_elemINS_12basic_stringIcNS_11char_traitsIcEENS_9allocatorIcEEE5__repELi0ELb0EEC2B8ne190107ENS_16__value_init_tagE, symObjAddr: 0x32684, symBinAddr: 0x10003A1A4, symSize: 0x6C }
  - { offset: 0x1F6FF, size: 0x8, addend: 0x0, symName: __ZN7testing25StringMatchResultListenerC2Ev, symObjAddr: 0x326F0, symBinAddr: 0x10003A210, symSize: 0x22C }
  - { offset: 0x1F729, size: 0x8, addend: 0x0, symName: __ZN7testing25StringMatchResultListenerD0Ev, symObjAddr: 0x3291C, symBinAddr: 0x10003A43C, symSize: 0x68 }
  - { offset: 0x1F756, size: 0x8, addend: 0x0, symName: __ZNK7testing19MatchResultListener12IsInterestedEv, symObjAddr: 0x32984, symBinAddr: 0x10003A4A4, symSize: 0x114 }
  - { offset: 0x1F7B6, size: 0x8, addend: 0x0, symName: __ZNKSt9type_info4nameB8ne190107Ev, symObjAddr: 0x33150, symBinAddr: 0x10003AC70, symSize: 0x118 }
  - { offset: 0x1F7FC, size: 0x8, addend: 0x0, symName: __ZNKSt3__112basic_stringIcNS_11char_traitsIcEENS_9allocatorIcEEE4findB8ne190107EPKcm, symObjAddr: 0x334B8, symBinAddr: 0x10003AFD8, symSize: 0xA8 }
  - { offset: 0x1F840, size: 0x8, addend: 0x0, symName: __ZNSt3__111char_traitsIcE4findB8ne190107EPKcmRS2_, symObjAddr: 0x33D44, symBinAddr: 0x10003B864, symSize: 0xD8 }
  - { offset: 0x1F87F, size: 0x8, addend: 0x0, symName: __ZNKSt3__112basic_stringIcNS_11char_traitsIcEENS_9allocatorIcEEE6lengthB8ne190107Ev, symObjAddr: 0x33E70, symBinAddr: 0x10003B990, symSize: 0x5C }
  - { offset: 0x1F8A5, size: 0x8, addend: 0x0, symName: __ZNKSt3__112basic_stringIcNS_11char_traitsIcEENS_9allocatorIcEEE13find_first_ofB8ne190107EPKcm, symObjAddr: 0x33ECC, symBinAddr: 0x10003B9EC, symSize: 0xA8 }
  - { offset: 0x1F8E9, size: 0x8, addend: 0x0, symName: __ZNSt3__111char_traitsIcE2eqEcc, symObjAddr: 0x34634, symBinAddr: 0x10003C154, symSize: 0x24 }
  - { offset: 0x1F91A, size: 0x8, addend: 0x0, symName: __ZNKSt3__112basic_stringIcNS_11char_traitsIcEENS_9allocatorIcEEE5emptyB8ne190107Ev, symObjAddr: 0x34658, symBinAddr: 0x10003C178, symSize: 0x64 }
  - { offset: 0x1F940, size: 0x8, addend: 0x0, symName: __ZN7testing15AssertionResult13AppendMessageERKNS_7MessageE, symObjAddr: 0x346BC, symBinAddr: 0x10003C1DC, symSize: 0x484 }
  - { offset: 0x1F976, size: 0x8, addend: 0x0, symName: __ZNSt3__110unique_ptrINS_12basic_stringIcNS_11char_traitsIcEENS_9allocatorIcEEEENS_14default_deleteIS6_EEEaSB8ne190107EOS9_, symObjAddr: 0x34C48, symBinAddr: 0x10003C768, symSize: 0x138 }
  - { offset: 0x1F9AA, size: 0x8, addend: 0x0, symName: __ZNSt3__110unique_ptrINS_12basic_stringIcNS_11char_traitsIcEENS_9allocatorIcEEEENS_14default_deleteIS6_EEED1B8ne190107Ev, symObjAddr: 0x34D80, symBinAddr: 0x10003C8A0, symSize: 0x64 }
  - { offset: 0x1F9D4, size: 0x8, addend: 0x0, symName: __ZNKSt3__110unique_ptrINS_12basic_stringIcNS_11char_traitsIcEENS_9allocatorIcEEEENS_14default_deleteIS6_EEEptB8ne190107Ev, symObjAddr: 0x34DE4, symBinAddr: 0x10003C904, symSize: 0x10C }
  - { offset: 0x1F9FA, size: 0x8, addend: 0x0, symName: __ZNKSt3__112basic_stringIcNS_11char_traitsIcEENS_9allocatorIcEEE5c_strB8ne190107Ev, symObjAddr: 0x34EF0, symBinAddr: 0x10003CA10, symSize: 0x5C }
  - { offset: 0x1FA20, size: 0x8, addend: 0x0, symName: __ZNKSt3__110unique_ptrINS_12basic_stringIcNS_11char_traitsIcEENS_9allocatorIcEEEENS_14default_deleteIS6_EEEcvbB8ne190107Ev, symObjAddr: 0x34F4C, symBinAddr: 0x10003CA6C, symSize: 0x114 }
  - { offset: 0x1FA46, size: 0x8, addend: 0x0, symName: __ZNKSt3__117__compressed_pairIPNS_12basic_stringIcNS_11char_traitsIcEENS_9allocatorIcEEEENS_14default_deleteIS6_EEE5firstB8ne190107Ev, symObjAddr: 0x35060, symBinAddr: 0x10003CB80, symSize: 0xEC }
  - { offset: 0x1FA6C, size: 0x8, addend: 0x0, symName: __ZNKSt3__122__compressed_pair_elemIPNS_12basic_stringIcNS_11char_traitsIcEENS_9allocatorIcEEEELi0ELb0EE5__getB8ne190107Ev, symObjAddr: 0x3514C, symBinAddr: 0x10003CC6C, symSize: 0x8C }
  - { offset: 0x1FA92, size: 0x8, addend: 0x0, symName: __ZNSt3__110unique_ptrINS_12basic_stringIcNS_11char_traitsIcEENS_9allocatorIcEEEENS_14default_deleteIS6_EEEC1B8ne190107ILb1EvEEPS6_, symObjAddr: 0x351D8, symBinAddr: 0x10003CCF8, symSize: 0x6C }
  - { offset: 0x1FAD5, size: 0x8, addend: 0x0, symName: __ZNSt3__110unique_ptrINS_12basic_stringIcNS_11char_traitsIcEENS_9allocatorIcEEEENS_14default_deleteIS6_EEEC2B8ne190107ILb1EvEEPS6_, symObjAddr: 0x35244, symBinAddr: 0x10003CD64, symSize: 0x250 }
  - { offset: 0x1FB1D, size: 0x8, addend: 0x0, symName: __ZNSt3__117__compressed_pairIPNS_12basic_stringIcNS_11char_traitsIcEENS_9allocatorIcEEEENS_14default_deleteIS6_EEEC1B8ne190107IRS7_NS_16__value_init_tagEEEOT_OT0_, symObjAddr: 0x35494, symBinAddr: 0x10003CFB4, symSize: 0x74 }
  - { offset: 0x1FB75, size: 0x8, addend: 0x0, symName: __ZNSt3__117__compressed_pairIPNS_12basic_stringIcNS_11char_traitsIcEENS_9allocatorIcEEEENS_14default_deleteIS6_EEEC2B8ne190107IRS7_NS_16__value_init_tagEEEOT_OT0_, symObjAddr: 0x35508, symBinAddr: 0x10003D028, symSize: 0x104 }
  - { offset: 0x1FBCD, size: 0x8, addend: 0x0, symName: __ZNSt3__122__compressed_pair_elemIPNS_12basic_stringIcNS_11char_traitsIcEENS_9allocatorIcEEEELi0ELb0EEC2B8ne190107IRS7_TnNS_9enable_ifIXntsr7is_sameIS8_u7__decayIT_EEE5valueEiE4typeELi0EEEOSC_, symObjAddr: 0x3560C, symBinAddr: 0x10003D12C, symSize: 0x124 }
  - { offset: 0x1FC14, size: 0x8, addend: 0x0, symName: __ZNSt3__122__compressed_pair_elemINS_14default_deleteINS_12basic_stringIcNS_11char_traitsIcEENS_9allocatorIcEEEEEELi1ELb1EEC2B8ne190107ENS_16__value_init_tagE, symObjAddr: 0x35730, symBinAddr: 0x10003D250, symSize: 0x48 }
  - { offset: 0x1FC49, size: 0x8, addend: 0x0, symName: __ZNSt3__110unique_ptrINS_12basic_stringIcNS_11char_traitsIcEENS_9allocatorIcEEEENS_14default_deleteIS6_EEE5resetB8ne190107EPS6_, symObjAddr: 0x35778, symBinAddr: 0x10003D298, symSize: 0x240 }
  - { offset: 0x1FC8D, size: 0x8, addend: 0x0, symName: __ZNSt3__110unique_ptrINS_12basic_stringIcNS_11char_traitsIcEENS_9allocatorIcEEEENS_14default_deleteIS6_EEE7releaseB8ne190107Ev, symObjAddr: 0x359B8, symBinAddr: 0x10003D4D8, symSize: 0x1BC }
  - { offset: 0x1FCC2, size: 0x8, addend: 0x0, symName: __ZNSt3__110unique_ptrINS_12basic_stringIcNS_11char_traitsIcEENS_9allocatorIcEEEENS_14default_deleteIS6_EEE11get_deleterB8ne190107Ev, symObjAddr: 0x35B74, symBinAddr: 0x10003D694, symSize: 0xB4 }
  - { offset: 0x1FCE8, size: 0x8, addend: 0x0, symName: __ZNSt3__117__compressed_pairIPNS_12basic_stringIcNS_11char_traitsIcEENS_9allocatorIcEEEENS_14default_deleteIS6_EEE6secondB8ne190107Ev, symObjAddr: 0x35C28, symBinAddr: 0x10003D748, symSize: 0xC4 }
  - { offset: 0x1FD0E, size: 0x8, addend: 0x0, symName: __ZNSt3__117__compressed_pairIPNS_12basic_stringIcNS_11char_traitsIcEENS_9allocatorIcEEEENS_14default_deleteIS6_EEE5firstB8ne190107Ev, symObjAddr: 0x35CEC, symBinAddr: 0x10003D80C, symSize: 0xEC }
  - { offset: 0x1FD34, size: 0x8, addend: 0x0, symName: __ZNKSt3__114default_deleteINS_12basic_stringIcNS_11char_traitsIcEENS_9allocatorIcEEEEEclB8ne190107EPS6_, symObjAddr: 0x35DD8, symBinAddr: 0x10003D8F8, symSize: 0xA0 }
  - { offset: 0x1FD68, size: 0x8, addend: 0x0, symName: __ZNSt3__122__compressed_pair_elemIPNS_12basic_stringIcNS_11char_traitsIcEENS_9allocatorIcEEEELi0ELb0EE5__getB8ne190107Ev, symObjAddr: 0x35E78, symBinAddr: 0x10003D998, symSize: 0x8C }
  - { offset: 0x1FD8E, size: 0x8, addend: 0x0, symName: __ZNSt3__122__compressed_pair_elemINS_14default_deleteINS_12basic_stringIcNS_11char_traitsIcEENS_9allocatorIcEEEEEELi1ELb1EE5__getB8ne190107Ev, symObjAddr: 0x35F04, symBinAddr: 0x10003DA24, symSize: 0x64 }
  - { offset: 0x1FDB4, size: 0x8, addend: 0x0, symName: __ZNSt3__110unique_ptrINS_12basic_stringIcNS_11char_traitsIcEENS_9allocatorIcEEEENS_14default_deleteIS6_EEED2B8ne190107Ev, symObjAddr: 0x35F68, symBinAddr: 0x10003DA88, symSize: 0x68 }
  - { offset: 0x1FDDE, size: 0x8, addend: 0x0, symName: __ZNKRSt3__115basic_stringbufIcNS_11char_traitsIcEENS_9allocatorIcEEE3strB8ne190107Ev, symObjAddr: 0x35FD0, symBinAddr: 0x10003DAF0, symSize: 0x324 }
  - { offset: 0x1FE05, size: 0x8, addend: 0x0, symName: __ZNKSt3__115basic_stringbufIcNS_11char_traitsIcEENS_9allocatorIcEEE3strB8ne190107IS4_Qsr14__is_allocatorITL0__EE5valueEENS_12basic_stringIcS2_T_EERKS9_, symObjAddr: 0x362F4, symBinAddr: 0x10003DE14, symSize: 0x2E0 }
  - { offset: 0x1FE45, size: 0x8, addend: 0x0, symName: __ZNKSt3__112basic_stringIcNS_11char_traitsIcEENS_9allocatorIcEEE13get_allocatorB8ne190107Ev, symObjAddr: 0x365D4, symBinAddr: 0x10003E0F4, symSize: 0x5C }
  - { offset: 0x1FE6B, size: 0x8, addend: 0x0, symName: __ZNKSt3__115basic_stringbufIcNS_11char_traitsIcEENS_9allocatorIcEEE4viewB8ne190107Ev, symObjAddr: 0x36630, symBinAddr: 0x10003E150, symSize: 0x84C }
  - { offset: 0x1FE92, size: 0x8, addend: 0x0, symName: __ZNSt3__112basic_stringIcNS_11char_traitsIcEENS_9allocatorIcEEEC1INS_17basic_string_viewIcS2_EETnNS_9enable_ifIXaasr33__can_be_converted_to_string_viewIcS2_T_EE5valuentsr17__is_same_uncvrefISA_S5_EE5valueEiE4typeELi0EEERKSA_RKS4_, symObjAddr: 0x36E7C, symBinAddr: 0x10003E99C, symSize: 0x74 }
  - { offset: 0x1FEE9, size: 0x8, addend: 0x0, symName: __ZNKSt3__115basic_streambufIcNS_11char_traitsIcEEE4pptrB8ne190107Ev, symObjAddr: 0x36EF0, symBinAddr: 0x10003EA10, symSize: 0x10C }
  - { offset: 0x1FF0F, size: 0x8, addend: 0x0, symName: __ZNKSt3__115basic_streambufIcNS_11char_traitsIcEEE5pbaseB8ne190107Ev, symObjAddr: 0x36FFC, symBinAddr: 0x10003EB1C, symSize: 0x10C }
  - { offset: 0x1FF3A, size: 0x8, addend: 0x0, symName: __ZNSt3__117basic_string_viewIcNS_11char_traitsIcEEEC1B8ne190107ITkNS_19contiguous_iteratorEPcTkNS_18sized_sentinel_forITL0__EES5_Qaa9is_same_vINS_11conditionalIXsr21__is_primary_templateINS_15iterator_traitsIu14__remove_cvrefIS7_EEEEE5valueENS_26indirectly_readable_traitsISA_EESB_E4type10value_typeET_Ent16is_convertible_vITL0_0_mEEESH_T0_, symObjAddr: 0x37108, symBinAddr: 0x10003EC28, symSize: 0x74 }
  - { offset: 0x1FF94, size: 0x8, addend: 0x0, symName: __ZNKSt3__115basic_streambufIcNS_11char_traitsIcEEE5ebackB8ne190107Ev, symObjAddr: 0x3717C, symBinAddr: 0x10003EC9C, symSize: 0x10C }
  - { offset: 0x1FFBA, size: 0x8, addend: 0x0, symName: __ZNKSt3__115basic_streambufIcNS_11char_traitsIcEEE5egptrB8ne190107Ev, symObjAddr: 0x37288, symBinAddr: 0x10003EDA8, symSize: 0x10C }
  - { offset: 0x1FFE0, size: 0x8, addend: 0x0, symName: __ZNSt3__117basic_string_viewIcNS_11char_traitsIcEEEC1B8ne190107Ev, symObjAddr: 0x37394, symBinAddr: 0x10003EEB4, symSize: 0x64 }
  - { offset: 0x2000A, size: 0x8, addend: 0x0, symName: __ZNSt3__117basic_string_viewIcNS_11char_traitsIcEEEC2B8ne190107ITkNS_19contiguous_iteratorEPcTkNS_18sized_sentinel_forITL0__EES5_Qaa9is_same_vINS_11conditionalIXsr21__is_primary_templateINS_15iterator_traitsIu14__remove_cvrefIS7_EEEEE5valueENS_26indirectly_readable_traitsISA_EESB_E4type10value_typeET_Ent16is_convertible_vITL0_0_mEEESH_T0_, symObjAddr: 0x373F8, symBinAddr: 0x10003EF18, symSize: 0x104 }
  - { offset: 0x20064, size: 0x8, addend: 0x0, symName: __ZNSt3__117basic_string_viewIcNS_11char_traitsIcEEEC2B8ne190107Ev, symObjAddr: 0x37528, symBinAddr: 0x10003F048, symSize: 0xD8 }
  - { offset: 0x2008E, size: 0x8, addend: 0x0, symName: __ZNSt3__112basic_stringIcNS_11char_traitsIcEENS_9allocatorIcEEEC2INS_17basic_string_viewIcS2_EETnNS_9enable_ifIXaasr33__can_be_converted_to_string_viewIcS2_T_EE5valuentsr17__is_same_uncvrefISA_S5_EE5valueEiE4typeELi0EEERKSA_RKS4_, symObjAddr: 0x37600, symBinAddr: 0x10003F120, symSize: 0x2A8 }
  - { offset: 0x20109, size: 0x8, addend: 0x0, symName: __ZNSt3__117__compressed_pairINS_12basic_stringIcNS_11char_traitsIcEENS_9allocatorIcEEE5__repES5_EC1B8ne190107INS_18__default_init_tagERKS5_EEOT_OT0_, symObjAddr: 0x378A8, symBinAddr: 0x10003F3C8, symSize: 0x74 }
  - { offset: 0x20161, size: 0x8, addend: 0x0, symName: __ZNSt3__117__compressed_pairINS_12basic_stringIcNS_11char_traitsIcEENS_9allocatorIcEEE5__repES5_EC2B8ne190107INS_18__default_init_tagERKS5_EEOT_OT0_, symObjAddr: 0x3791C, symBinAddr: 0x10003F43C, symSize: 0xF0 }
  - { offset: 0x201B9, size: 0x8, addend: 0x0, symName: __ZNSt3__122__compressed_pair_elemINS_9allocatorIcEELi1ELb1EEC2B8ne190107IRKS2_TnNS_9enable_ifIXntsr7is_sameIS3_u7__decayIT_EEE5valueEiE4typeELi0EEEOS8_, symObjAddr: 0x37A0C, symBinAddr: 0x10003F52C, symSize: 0x4C }
  - { offset: 0x20200, size: 0x8, addend: 0x0, symName: __ZNKSt3__112basic_stringIcNS_11char_traitsIcEENS_9allocatorIcEEE7__allocB8ne190107Ev, symObjAddr: 0x37A58, symBinAddr: 0x10003F578, symSize: 0xB4 }
  - { offset: 0x20226, size: 0x8, addend: 0x0, symName: __ZNKSt3__117__compressed_pairINS_12basic_stringIcNS_11char_traitsIcEENS_9allocatorIcEEE5__repES5_E6secondB8ne190107Ev, symObjAddr: 0x37B0C, symBinAddr: 0x10003F62C, symSize: 0xC4 }
  - { offset: 0x2024C, size: 0x8, addend: 0x0, symName: __ZNKSt3__122__compressed_pair_elemINS_9allocatorIcEELi1ELb1EE5__getB8ne190107Ev, symObjAddr: 0x37BD0, symBinAddr: 0x10003F6F0, symSize: 0x64 }
  - { offset: 0x20272, size: 0x8, addend: 0x0, symName: __ZN7testing25StringMatchResultListenerD2Ev, symObjAddr: 0x37C34, symBinAddr: 0x10003F754, symSize: 0xC4 }
  - { offset: 0x2029F, size: 0x8, addend: 0x0, symName: __ZNSt3__118basic_stringstreamIcNS_11char_traitsIcEENS_9allocatorIcEEED2Ev, symObjAddr: 0x37CF8, symBinAddr: 0x10003F818, symSize: 0x224 }
  - { offset: 0x202D9, size: 0x8, addend: 0x0, symName: __ZThn16_NSt3__118basic_stringstreamIcNS_11char_traitsIcEENS_9allocatorIcEEED1Ev, symObjAddr: 0x37F1C, symBinAddr: 0x10003FA3C, symSize: 0x1C }
  - { offset: 0x202F0, size: 0x8, addend: 0x0, symName: __ZTv0_n24_NSt3__118basic_stringstreamIcNS_11char_traitsIcEENS_9allocatorIcEEED1Ev, symObjAddr: 0x37F38, symBinAddr: 0x10003FA58, symSize: 0xA0 }
  - { offset: 0x2030C, size: 0x8, addend: 0x0, symName: __ZNSt3__115basic_stringbufIcNS_11char_traitsIcEENS_9allocatorIcEEED1Ev, symObjAddr: 0x37FD8, symBinAddr: 0x10003FAF8, symSize: 0x64 }
  - { offset: 0x20339, size: 0x8, addend: 0x0, symName: __ZNSt3__115basic_stringbufIcNS_11char_traitsIcEENS_9allocatorIcEEED2Ev, symObjAddr: 0x3803C, symBinAddr: 0x10003FB5C, symSize: 0xC4 }
  - { offset: 0x20366, size: 0x8, addend: 0x0, symName: __ZN7testing7MatcherIRKNSt3__13mapINS1_12basic_stringIcNS1_11char_traitsIcEENS1_9allocatorIcEEEENS1_3setIS8_NS1_4lessIS8_EENS6_IS8_EEEESB_NS6_INS1_4pairIKS8_SD_EEEEEEED2Ev, symObjAddr: 0x38100, symBinAddr: 0x10003FC20, symSize: 0x64 }
  - { offset: 0x20392, size: 0x8, addend: 0x0, symName: __ZN7testing8internal29PredicateFormatterFromMatcherINS_18PolymorphicMatcherINS0_18ContainerEqMatcherINSt3__13mapINS4_12basic_stringIcNS4_11char_traitsIcEENS4_9allocatorIcEEEENS4_3setISB_NS4_4lessISB_EENS9_ISB_EEEESE_NS9_INS4_4pairIKSB_SG_EEEEEEEEEEED2Ev, symObjAddr: 0x38164, symBinAddr: 0x10003FC84, symSize: 0x64 }
  - { offset: 0x203BF, size: 0x8, addend: 0x0, symName: __ZN7testing18PolymorphicMatcherINS_8internal18ContainerEqMatcherINSt3__13mapINS3_12basic_stringIcNS3_11char_traitsIcEENS3_9allocatorIcEEEENS3_3setISA_NS3_4lessISA_EENS8_ISA_EEEESD_NS8_INS3_4pairIKSA_SF_EEEEEEEEED2Ev, symObjAddr: 0x381C8, symBinAddr: 0x10003FCE8, symSize: 0x64 }
  - { offset: 0x203EC, size: 0x8, addend: 0x0, symName: __ZNKSt3__110unique_ptrINS_18basic_stringstreamIcNS_11char_traitsIcEENS_9allocatorIcEEEENS_14default_deleteIS6_EEEdeB8ne190107Ev, symObjAddr: 0x3822C, symBinAddr: 0x10003FD4C, symSize: 0x144 }
  - { offset: 0x20412, size: 0x8, addend: 0x0, symName: __ZNKSt3__117__compressed_pairIPNS_18basic_stringstreamIcNS_11char_traitsIcEENS_9allocatorIcEEEENS_14default_deleteIS6_EEE5firstB8ne190107Ev, symObjAddr: 0x38370, symBinAddr: 0x10003FE90, symSize: 0xEC }
  - { offset: 0x20438, size: 0x8, addend: 0x0, symName: __ZNKSt3__122__compressed_pair_elemIPNS_18basic_stringstreamIcNS_11char_traitsIcEENS_9allocatorIcEEEELi0ELb0EE5__getB8ne190107Ev, symObjAddr: 0x3845C, symBinAddr: 0x10003FF7C, symSize: 0x8C }
  - { offset: 0x2045E, size: 0x8, addend: 0x0, symName: __ZNK7testing15AssertionResult7messageEv, symObjAddr: 0x384E8, symBinAddr: 0x100040008, symSize: 0x150 }
  - { offset: 0x20484, size: 0x8, addend: 0x0, symName: __ZN7testing7MessageD2Ev, symObjAddr: 0x38638, symBinAddr: 0x100040158, symSize: 0x64 }
  - { offset: 0x204B0, size: 0x8, addend: 0x0, symName: __ZNSt3__110unique_ptrINS_18basic_stringstreamIcNS_11char_traitsIcEENS_9allocatorIcEEEENS_14default_deleteIS6_EEED1B8ne190107Ev, symObjAddr: 0x3869C, symBinAddr: 0x1000401BC, symSize: 0x64 }
  - { offset: 0x204DA, size: 0x8, addend: 0x0, symName: __ZNSt3__110unique_ptrINS_18basic_stringstreamIcNS_11char_traitsIcEENS_9allocatorIcEEEENS_14default_deleteIS6_EEED2B8ne190107Ev, symObjAddr: 0x38700, symBinAddr: 0x100040220, symSize: 0x68 }
  - { offset: 0x20504, size: 0x8, addend: 0x0, symName: __ZNSt3__110unique_ptrINS_18basic_stringstreamIcNS_11char_traitsIcEENS_9allocatorIcEEEENS_14default_deleteIS6_EEE5resetB8ne190107EPS6_, symObjAddr: 0x38768, symBinAddr: 0x100040288, symSize: 0x240 }
  - { offset: 0x20548, size: 0x8, addend: 0x0, symName: __ZNSt3__117__compressed_pairIPNS_18basic_stringstreamIcNS_11char_traitsIcEENS_9allocatorIcEEEENS_14default_deleteIS6_EEE5firstB8ne190107Ev, symObjAddr: 0x389A8, symBinAddr: 0x1000404C8, symSize: 0xEC }
  - { offset: 0x2056E, size: 0x8, addend: 0x0, symName: __ZNSt3__117__compressed_pairIPNS_18basic_stringstreamIcNS_11char_traitsIcEENS_9allocatorIcEEEENS_14default_deleteIS6_EEE6secondB8ne190107Ev, symObjAddr: 0x38A94, symBinAddr: 0x1000405B4, symSize: 0xC4 }
  - { offset: 0x20594, size: 0x8, addend: 0x0, symName: __ZNKSt3__114default_deleteINS_18basic_stringstreamIcNS_11char_traitsIcEENS_9allocatorIcEEEEEclB8ne190107EPS6_, symObjAddr: 0x38B58, symBinAddr: 0x100040678, symSize: 0x18C }
  - { offset: 0x205C8, size: 0x8, addend: 0x0, symName: __ZNSt3__122__compressed_pair_elemIPNS_18basic_stringstreamIcNS_11char_traitsIcEENS_9allocatorIcEEEELi0ELb0EE5__getB8ne190107Ev, symObjAddr: 0x38CE4, symBinAddr: 0x100040804, symSize: 0x8C }
  - { offset: 0x205EE, size: 0x8, addend: 0x0, symName: __ZNSt3__122__compressed_pair_elemINS_14default_deleteINS_18basic_stringstreamIcNS_11char_traitsIcEENS_9allocatorIcEEEEEELi1ELb1EE5__getB8ne190107Ev, symObjAddr: 0x38D70, symBinAddr: 0x100040890, symSize: 0x64 }
  - { offset: 0x20614, size: 0x8, addend: 0x0, symName: __ZN7testing15AssertionResultD2Ev, symObjAddr: 0x38DD4, symBinAddr: 0x1000408F4, symSize: 0x68 }
  - { offset: 0x20640, size: 0x8, addend: 0x0, symName: __ZN7testing8internal29PredicateFormatterFromMatcherINS0_9EqMatcherIiEEEC1ES3_, symObjAddr: 0x38E3C, symBinAddr: 0x10004095C, symSize: 0x74 }
  - { offset: 0x20679, size: 0x8, addend: 0x0, symName: __ZN7testing8internal29PredicateFormatterFromMatcherINS0_9EqMatcherIiEEEC2ES3_, symObjAddr: 0x38EB0, symBinAddr: 0x1000409D0, symSize: 0x74 }
  - { offset: 0x206B2, size: 0x8, addend: 0x0, symName: __ZN7testing8internal9EqMatcherIiEC1ERKi, symObjAddr: 0x38F24, symBinAddr: 0x100040A44, symSize: 0x6C }
  - { offset: 0x206EB, size: 0x8, addend: 0x0, symName: __ZN7testing8internal9EqMatcherIiEC2ERKi, symObjAddr: 0x38F90, symBinAddr: 0x100040AB0, symSize: 0xD8 }
  - { offset: 0x20724, size: 0x8, addend: 0x0, symName: __ZN7testing8internal14ComparisonBaseINS0_9EqMatcherIiEEiNSt3__18equal_toIvEEEC2ERKi, symObjAddr: 0x39068, symBinAddr: 0x100040B88, symSize: 0x130 }
  - { offset: 0x2075D, size: 0x8, addend: 0x0, symName: __ZNK7testing8internal11MatcherBaseIRKiE7MatchesES3_, symObjAddr: 0x39208, symBinAddr: 0x100040D28, symSize: 0x350 }
  - { offset: 0x207A5, size: 0x8, addend: 0x0, symName: __ZNK7testing8internal11MatcherBaseIRKiE10DescribeToEPNSt3__113basic_ostreamIcNS5_11char_traitsIcEEEE, symObjAddr: 0x39558, symBinAddr: 0x100041078, symSize: 0x59C }
  - { offset: 0x207EA, size: 0x8, addend: 0x0, symName: __ZN7testing7MatcherIRKiED1Ev, symObjAddr: 0x3A72C, symBinAddr: 0x10004224C, symSize: 0x64 }
  - { offset: 0x20816, size: 0x8, addend: 0x0, symName: __ZN7testing8internal15MatcherCastImplIRKiNS0_9EqMatcherIiEEE4CastERKS5_, symObjAddr: 0x3A808, symBinAddr: 0x100042328, symSize: 0x68 }
  - { offset: 0x2083A, size: 0x8, addend: 0x0, symName: __ZN7testing8internal15MatcherCastImplIRKiNS0_9EqMatcherIiEEE8CastImplILb0EEENS_7MatcherIS3_EERKS5_NSt3__117integral_constantIbLb1EEENSD_IbXT_EEE, symObjAddr: 0x3A878, symBinAddr: 0x100042398, symSize: 0x9C }
  - { offset: 0x20880, size: 0x8, addend: 0x0, symName: __ZN7testing7MatcherIRKiEC1IRKNS_8internal9EqMatcherIiEEvEEOT_, symObjAddr: 0x3A914, symBinAddr: 0x100042434, symSize: 0x6C }
  - { offset: 0x208C3, size: 0x8, addend: 0x0, symName: __ZN7testing7MatcherIRKiEC2IRKNS_8internal9EqMatcherIiEEvEEOT_, symObjAddr: 0x3A980, symBinAddr: 0x1000424A0, symSize: 0x138 }
  - { offset: 0x20906, size: 0x8, addend: 0x0, symName: __ZN7testing8internal11MatcherBaseIRKiEC2IRKNS0_9EqMatcherIiEEvEEOT_, symObjAddr: 0x3AAB8, symBinAddr: 0x1000425D8, symSize: 0x214 }
  - { offset: 0x20949, size: 0x8, addend: 0x0, symName: __ZN7testing7MatcherIRKiED0Ev, symObjAddr: 0x3ACCC, symBinAddr: 0x1000427EC, symSize: 0x68 }
  - { offset: 0x20975, size: 0x8, addend: 0x0, symName: __ZNK7testing8internal11MatcherBaseIRKiE18DescribeNegationToEPNSt3__113basic_ostreamIcNS5_11char_traitsIcEEEE, symObjAddr: 0x3AD34, symBinAddr: 0x100042854, symSize: 0x59C }
  - { offset: 0x209AB, size: 0x8, addend: 0x0, symName: __ZN7testing8internal11MatcherBaseIRKiE4InitIRKNS0_9EqMatcherIiEEEEvOT_, symObjAddr: 0x3B2D0, symBinAddr: 0x100042DF0, symSize: 0x1DC }
  - { offset: 0x209E9, size: 0x8, addend: 0x0, symName: __ZN7testing8internal11MatcherBaseIRKiED1Ev, symObjAddr: 0x3B4AC, symBinAddr: 0x100042FCC, symSize: 0x64 }
  - { offset: 0x20A13, size: 0x8, addend: 0x0, symName: __ZN7testing8internal11MatcherBaseIRKiED0Ev, symObjAddr: 0x3B510, symBinAddr: 0x100043030, symSize: 0x68 }
  - { offset: 0x20A3D, size: 0x8, addend: 0x0, symName: __ZN7testing8internal11MatcherBaseIRKiE11ValuePolicyINS0_9EqMatcherIiEELb1EE4InitERS4_S7_, symObjAddr: 0x3B5DC, symBinAddr: 0x1000430FC, symSize: 0x7C }
  - { offset: 0x20A70, size: 0x8, addend: 0x0, symName: __ZN7testing8internal11MatcherBaseIRKiE19MatchAndExplainImplINS4_11ValuePolicyINS0_9EqMatcherIiEELb1EEEEEDTcldtclsrT_3Getfp_E15MatchAndExplainfp0_clptfp1_6streamEEERKS4_S3_PNS_19MatchResultListenerE, symObjAddr: 0x3B660, symBinAddr: 0x100043180, symSize: 0x1C8 }
  - { offset: 0x20ABB, size: 0x8, addend: 0x0, symName: __ZN7testing8internal11MatcherBaseIRKiE12DescribeImplINS4_11ValuePolicyINS0_9EqMatcherIiEELb1EEEEEvRKS4_PNSt3__113basic_ostreamIcNSC_11char_traitsIcEEEEb, symObjAddr: 0x3B830, symBinAddr: 0x100043350, symSize: 0x1A8 }
  - { offset: 0x20B06, size: 0x8, addend: 0x0, symName: __ZN7testing8internal11MatcherBaseIRKiE16GetDescriberImplINS4_11ValuePolicyINS0_9EqMatcherIiEELb1EEEEEPKNS_25MatcherDescriberInterfaceERKS4_, symObjAddr: 0x3B9E0, symBinAddr: 0x100043500, symSize: 0x31C }
  - { offset: 0x20B34, size: 0x8, addend: 0x0, symName: __ZN7testing8internal11MatcherBaseIRKiE11ValuePolicyINS0_9EqMatcherIiEELb1EE3GetERKS4_, symObjAddr: 0x3BD04, symBinAddr: 0x100043824, symSize: 0x64 }
  - { offset: 0x20B67, size: 0x8, addend: 0x0, symName: __ZNK7testing8internal14ComparisonBaseINS0_9EqMatcherIiEEiNSt3__18equal_toIvEEE15MatchAndExplainIiEEbRKT_PNS4_13basic_ostreamIcNS4_11char_traitsIcEEEE, symObjAddr: 0x3BD68, symBinAddr: 0x100043888, symSize: 0x2B0 }
  - { offset: 0x20BBE, size: 0x8, addend: 0x0, symName: __ZNKSt3__18equal_toIvEclB8ne190107IRKiS4_EEDTeqclsr3stdE7forwardIT_Efp_Eclsr3stdE7forwardIT0_Efp0_EEOS5_OS6_, symObjAddr: 0x3C018, symBinAddr: 0x100043B38, symSize: 0x190 }
  - { offset: 0x20C14, size: 0x8, addend: 0x0, symName: __ZN7testing8internal14ComparisonBaseINS0_9EqMatcherIiEEiNSt3__18equal_toIvEEE6UnwrapIiEERKT_SB_, symObjAddr: 0x3C1B0, symBinAddr: 0x100043CD0, symSize: 0x58 }
  - { offset: 0x20C41, size: 0x8, addend: 0x0, symName: __ZNK7testing8internal14ComparisonBaseINS0_9EqMatcherIiEEiNSt3__18equal_toIvEEE18DescribeNegationToEPNS4_13basic_ostreamIcNS4_11char_traitsIcEEEE, symObjAddr: 0x3C208, symBinAddr: 0x100043D28, symSize: 0x160 }
  - { offset: 0x20C76, size: 0x8, addend: 0x0, symName: __ZNK7testing8internal14ComparisonBaseINS0_9EqMatcherIiEEiNSt3__18equal_toIvEEE10DescribeToEPNS4_13basic_ostreamIcNS4_11char_traitsIcEEEE, symObjAddr: 0x3C368, symBinAddr: 0x100043E88, symSize: 0x160 }
  - { offset: 0x20CAB, size: 0x8, addend: 0x0, symName: __ZN7testing8internal9EqMatcherIiE11NegatedDescEv, symObjAddr: 0x3C4D0, symBinAddr: 0x100043FF0, symSize: 0xC }
  - { offset: 0x20CBF, size: 0x8, addend: 0x0, symName: __ZN7testing8internal16UniversalPrinterIiE5PrintERKiPNSt3__113basic_ostreamIcNS5_11char_traitsIcEEEE, symObjAddr: 0x3C550, symBinAddr: 0x100044070, symSize: 0x64 }
  - { offset: 0x20CF2, size: 0x8, addend: 0x0, symName: __ZN7testing8internal52internal_stream_operator_without_lexical_name_lookup13StreamPrinter10PrintValueIivEEDTcvvlsdefp0_fp_ERKT_PNSt3__113basic_ostreamIcNS8_11char_traitsIcEEEE, symObjAddr: 0x3C694, symBinAddr: 0x1000441B4, symSize: 0x14C }
  - { offset: 0x20D2D, size: 0x8, addend: 0x0, symName: __ZN7testing8internal9EqMatcherIiE4DescEv, symObjAddr: 0x3C7E8, symBinAddr: 0x100044308, symSize: 0xC }
  - { offset: 0x20D78, size: 0x8, addend: 0x0, symName: __ZNSt3__112__tuple_leafILm0EPKN7testing8internal11MatcherBaseIRKiEELb0EE3getB8ne190107Ev, symObjAddr: 0x3CAEC, symBinAddr: 0x10004460C, symSize: 0x8C }
  - { offset: 0x20E19, size: 0x8, addend: 0x0, symName: __ZNSt3__15tupleIJPKN7testing8internal11MatcherBaseIRKiEEPKNS2_9EqMatcherIiEEEEC1B8ne190107IJS8_SC_ETnNS_9enable_ifIXsr4_AndINS_17integral_constantIbXeqsZT_sZT_EEENSD_17_EnableUTypesCtorIJDpT_EEEEE5valueEiE4typeELi0EEEDpOSJ_, symObjAddr: 0x3CB78, symBinAddr: 0x100044698, symSize: 0x74 }
  - { offset: 0x20E77, size: 0x8, addend: 0x0, symName: __ZNSt3__15tupleIJPKN7testing8internal11MatcherBaseIRKiEEPKNS2_9EqMatcherIiEEEEC2B8ne190107IJS8_SC_ETnNS_9enable_ifIXsr4_AndINS_17integral_constantIbXeqsZT_sZT_EEENSD_17_EnableUTypesCtorIJDpT_EEEEE5valueEiE4typeELi0EEEDpOSJ_, symObjAddr: 0x3CBEC, symBinAddr: 0x10004470C, symSize: 0xE4 }
  - { offset: 0x20ED5, size: 0x8, addend: 0x0, symName: __ZNSt3__112__tuple_implINS_15__tuple_indicesIJLm0ELm1EEEEJPKN7testing8internal11MatcherBaseIRKiEEPKNS4_9EqMatcherIiEEEEC1B8ne190107IJLm0ELm1EEJSA_SE_ETpTnmJEJEJSA_SE_EEENS1_IJXspT_EEEENS_13__tuple_typesIJDpT0_EEENS1_IJXspT1_EEEENSI_IJDpT2_EEEDpOT3_, symObjAddr: 0x3CCD0, symBinAddr: 0x1000447F0, symSize: 0x74 }
  - { offset: 0x20F8B, size: 0x8, addend: 0x0, symName: __ZNSt3__112__tuple_implINS_15__tuple_indicesIJLm0ELm1EEEEJPKN7testing8internal11MatcherBaseIRKiEEPKNS4_9EqMatcherIiEEEEC2B8ne190107IJLm0ELm1EEJSA_SE_ETpTnmJEJEJSA_SE_EEENS1_IJXspT_EEEENS_13__tuple_typesIJDpT0_EEENS1_IJXspT1_EEEENSI_IJDpT2_EEEDpOT3_, symObjAddr: 0x3CD44, symBinAddr: 0x100044864, symSize: 0x168 }
  - { offset: 0x21041, size: 0x8, addend: 0x0, symName: __ZNSt3__112__tuple_leafILm0EPKN7testing8internal11MatcherBaseIRKiEELb0EEC2B8ne190107IS8_TnNS_9enable_ifIXsr4_AndINS_17integral_constantIbXntu9__is_sameu14__remove_cvrefIT_ES9_EEEENS_16is_constructibleIS8_JSD_EEEEE5valueEiE4typeELi0EEEOSD_, symObjAddr: 0x3CEAC, symBinAddr: 0x1000449CC, symSize: 0x124 }
  - { offset: 0x21089, size: 0x8, addend: 0x0, symName: __ZNSt3__112__tuple_leafILm1EPKN7testing8internal9EqMatcherIiEELb0EEC2B8ne190107IS6_TnNS_9enable_ifIXsr4_AndINS_17integral_constantIbXntu9__is_sameu14__remove_cvrefIT_ES7_EEEENS_16is_constructibleIS6_JSB_EEEEE5valueEiE4typeELi0EEEOSB_, symObjAddr: 0x3CFD0, symBinAddr: 0x100044AF0, symSize: 0x124 }
  - { offset: 0x210D1, size: 0x8, addend: 0x0, symName: __ZN7testing8internal11MatcherBaseIRKiED2Ev, symObjAddr: 0x3D0F4, symBinAddr: 0x100044C14, symSize: 0x140 }
  - { offset: 0x210FB, size: 0x8, addend: 0x0, symName: __ZN7testing8internal11MatcherBaseIRKiE7DestroyEv, symObjAddr: 0x3D234, symBinAddr: 0x100044D54, symSize: 0x468 }
  - { offset: 0x21121, size: 0x8, addend: 0x0, symName: __ZNK7testing8internal11MatcherBaseIRKiE8IsSharedEv, symObjAddr: 0x3D69C, symBinAddr: 0x1000451BC, symSize: 0x27C }
  - { offset: 0x21147, size: 0x8, addend: 0x0, symName: __ZNK7testing8internal11MatcherBaseIRKiE15MatchAndExplainES3_PNS_19MatchResultListenerE, symObjAddr: 0x3D918, symBinAddr: 0x100045438, symSize: 0x5D4 }
  - { offset: 0x2118C, size: 0x8, addend: 0x0, symName: __ZN7testing7MatcherIRKiED2Ev, symObjAddr: 0x3DF20, symBinAddr: 0x100045A40, symSize: 0x64 }
  - { offset: 0x211B8, size: 0x8, addend: 0x0, symName: __ZNSt3__13mapINS_12basic_stringIcNS_11char_traitsIcEENS_9allocatorIcEEEENS_3setIS6_NS_4lessIS6_EENS4_IS6_EEEES9_NS4_INS_4pairIKS6_SB_EEEEED2B8ne190107Ev, symObjAddr: 0x3DF84, symBinAddr: 0x100045AA4, symSize: 0x64 }
  - { offset: 0x211E2, size: 0x8, addend: 0x0, symName: __ZN7testing8internal12CodeLocationD2Ev, symObjAddr: 0x3DFE8, symBinAddr: 0x100045B08, symSize: 0x64 }
  - { offset: 0x2120F, size: 0x8, addend: 0x0, symName: __ZN7testing4Test13SetUpTestCaseEv, symObjAddr: 0x3E0A0, symBinAddr: 0x100045BC0, symSize: 0x4 }
  - { offset: 0x21223, size: 0x8, addend: 0x0, symName: __ZN7testing4Test14SetUpTestSuiteEv, symObjAddr: 0x3E0AC, symBinAddr: 0x100045BCC, symSize: 0x4 }
  - { offset: 0x21237, size: 0x8, addend: 0x0, symName: __ZN7testing4Test16TearDownTestCaseEv, symObjAddr: 0x3E0B8, symBinAddr: 0x100045BD8, symSize: 0x4 }
  - { offset: 0x2124B, size: 0x8, addend: 0x0, symName: __ZN7testing4Test17TearDownTestSuiteEv, symObjAddr: 0x3E0C4, symBinAddr: 0x100045BE4, symSize: 0x4 }
  - { offset: 0x2125F, size: 0x8, addend: 0x0, symName: __GLOBAL__sub_I_build_index_tests.cpp, symObjAddr: 0x3E5FC, symBinAddr: 0x10004611C, symSize: 0x24 }
  - { offset: 0x23918, size: 0x8, addend: 0x0, symName: _.str, symObjAddr: 0x25F00, symBinAddr: 0x100184EC0, symSize: 0x0 }
  - { offset: 0x23948, size: 0x8, addend: 0x0, symName: _.str.1, symObjAddr: 0x25F20, symBinAddr: 0x100184EE0, symSize: 0x0 }
  - { offset: 0x23958, size: 0x8, addend: 0x0, symName: __ZN12_GLOBAL__N_126CleanToken_NoCleaning_Test10test_info_E, symObjAddr: 0x961C0, symBinAddr: 0x10028C4A0, symSize: 0x0 }
  - { offset: 0x23A24, size: 0x8, addend: 0x0, symName: __ZN12_GLOBAL__N_130CleanToken_PrefixCleaning_Test10test_info_E, symObjAddr: 0x961E0, symBinAddr: 0x10028C4C0, symSize: 0x0 }
  - { offset: 0x23AF0, size: 0x8, addend: 0x0, symName: __ZN12_GLOBAL__N_130CleanToken_SuffixCleaning_Test10test_info_E, symObjAddr: 0x96200, symBinAddr: 0x10028C4E0, symSize: 0x0 }
  - { offset: 0x23BBC, size: 0x8, addend: 0x0, symName: __ZN12_GLOBAL__N_123CleanToken_ToEmpty_Test10test_info_E, symObjAddr: 0x96220, symBinAddr: 0x10028C500, symSize: 0x0 }
  - { offset: 0x23C88, size: 0x8, addend: 0x0, symName: __ZN12_GLOBAL__N_125CleanToken_Uppercase_Test10test_info_E, symObjAddr: 0x96240, symBinAddr: 0x10028C520, symSize: 0x0 }
  - { offset: 0x244B5, size: 0x8, addend: 0x0, symName: __ZN7testing8internal33MakePredicateFormatterFromMatcherINS_18PolymorphicMatcherINS0_18StrEqualityMatcherINSt3__112basic_stringIcNS4_11char_traitsIcEENS4_9allocatorIcEEEEEEEEEENS0_29PredicateFormatterFromMatcherIT_EESE_, symObjAddr: 0x36B8, symBinAddr: 0x1000476E0, symSize: 0x2D0 }
  - { offset: 0x244EE, size: 0x8, addend: 0x0, symName: __ZN7testing8internal20MatchPrintAndExplainIKNSt3__112basic_stringIcNS2_11char_traitsIcEENS2_9allocatorIcEEEERS9_EEbRT_RKNS_7MatcherIT0_EEPNS_19MatchResultListenerE, symObjAddr: 0x6AB8, symBinAddr: 0x10004A42C, symSize: 0xC54 }
  - { offset: 0x24620, size: 0x8, addend: 0x0, symName: __ZN7testing8internal27CaseInsensitiveStringEqualsINSt3__112basic_stringIcNS2_11char_traitsIcEENS2_9allocatorIcEEEEEEbRKT_SB_, symObjAddr: 0x9BB4, symBinAddr: 0x10004C68C, symSize: 0x580 }
  - { offset: 0x24698, size: 0x8, addend: 0x0, symName: __ZN7testing8internal28CaseInsensitiveCStringEqualsEPKcS2_, symObjAddr: 0xA55C, symBinAddr: 0x10004CC14, symSize: 0x2C }
  - { offset: 0x246D5, size: 0x8, addend: 0x0, symName: __ZN7testing8internal11GetTypeNameIKNSt3__112basic_stringIcNS2_11char_traitsIcEENS2_9allocatorIcEEEEEES8_v, symObjAddr: 0x153D0, symBinAddr: 0x100051D7C, symSize: 0x2C }
  - { offset: 0x250DF, size: 0x8, addend: 0x0, symName: __ZN7testing5StrEqIA5_cEENS_18PolymorphicMatcherINS_8internal18StrEqualityMatcherINSt3__112basic_stringIcNS5_11char_traitsIcEENS5_9allocatorIcEEEEEEEERKT_, symObjAddr: 0x3990, symBinAddr: 0x1000479B8, symSize: 0x31C }
  - { offset: 0x25117, size: 0x8, addend: 0x0, symName: __ZN7testing5StrEqIA7_cEENS_18PolymorphicMatcherINS_8internal18StrEqualityMatcherINSt3__112basic_stringIcNS5_11char_traitsIcEENS5_9allocatorIcEEEEEEEERKT_, symObjAddr: 0x4C50, symBinAddr: 0x100048A6C, symSize: 0x31C }
  - { offset: 0x2514F, size: 0x8, addend: 0x0, symName: __ZN7testing5StrEqIA9_cEENS_18PolymorphicMatcherINS_8internal18StrEqualityMatcherINSt3__112basic_stringIcNS5_11char_traitsIcEENS5_9allocatorIcEEEEEEEERKT_, symObjAddr: 0x4F74, symBinAddr: 0x100048D90, symSize: 0x31C }
  - { offset: 0x25187, size: 0x8, addend: 0x0, symName: __ZN7testing22MakePolymorphicMatcherINS_8internal18StrEqualityMatcherINSt3__112basic_stringIcNS3_11char_traitsIcEENS3_9allocatorIcEEEEEEEENS_18PolymorphicMatcherIT_EERKSC_, symObjAddr: 0x564C, symBinAddr: 0x100049468, symSize: 0x9C }
  - { offset: 0x251BE, size: 0x8, addend: 0x0, symName: __ZN7testing15SafeMatcherCastIRKNSt3__112basic_stringIcNS1_11char_traitsIcEENS1_9allocatorIcEEEENS_18PolymorphicMatcherINS_8internal18StrEqualityMatcherIS7_EEEEEENS_7MatcherIT_EERKT0_, symObjAddr: 0x5CB4, symBinAddr: 0x100049AD0, symSize: 0x68 }
  - { offset: 0x2529D, size: 0x8, addend: 0x0, symName: __ZN7testing11MatcherCastIRKNSt3__112basic_stringIcNS1_11char_traitsIcEENS1_9allocatorIcEEEENS_18PolymorphicMatcherINS_8internal18StrEqualityMatcherIS7_EEEEEENS_7MatcherIT_EERKT0_, symObjAddr: 0x7FE0, symBinAddr: 0x10004B0EC, symSize: 0x68 }
  - { offset: 0x252DD, size: 0x8, addend: 0x0, symName: __ZN7testing5StrEqIA6_cEENS_18PolymorphicMatcherINS_8internal18StrEqualityMatcherINSt3__112basic_stringIcNS5_11char_traitsIcEENS5_9allocatorIcEEEEEEEERKT_, symObjAddr: 0x1D8B4, symBinAddr: 0x100053D60, symSize: 0x31C }
  - { offset: 0x25315, size: 0x8, addend: 0x0, symName: __ZN7testing5StrEqIA10_cEENS_18PolymorphicMatcherINS_8internal18StrEqualityMatcherINSt3__112basic_stringIcNS5_11char_traitsIcEENS5_9allocatorIcEEEEEEEERKT_, symObjAddr: 0x1DBD8, symBinAddr: 0x100054084, symSize: 0x31C }
  - { offset: 0x2534D, size: 0x8, addend: 0x0, symName: __ZN7testing5StrEqIA1_cEENS_18PolymorphicMatcherINS_8internal18StrEqualityMatcherINSt3__112basic_stringIcNS5_11char_traitsIcEENS5_9allocatorIcEEEEEEEERKT_, symObjAddr: 0x21844, symBinAddr: 0x100057CF0, symSize: 0x31C }
  - { offset: 0x2A503, size: 0x8, addend: 0x0, symName: __ZNSt3__13getB8ne190107ILm1EJPKN7testing8internal11MatcherBaseIRKNS_12basic_stringIcNS_11char_traitsIcEENS_9allocatorIcEEEEEEPKNS1_16MatcherInterfaceISB_EEEEEONS_13tuple_elementIXT_ENS_5tupleIJDpT0_EEEE4typeEOSN_, symObjAddr: 0xC88C, symBinAddr: 0x10004EEE8, symSize: 0xC8 }
  - { offset: 0x2A54B, size: 0x8, addend: 0x0, symName: __ZNSt3__110make_tupleB8ne190107IJPKN7testing8internal11MatcherBaseIRKNS_12basic_stringIcNS_11char_traitsIcEENS_9allocatorIcEEEEEEPKNS1_16MatcherInterfaceISB_EEEEENS_5tupleIJDpNS_18__unwrap_ref_decayIT_E4typeEEEEDpOSL_, symObjAddr: 0xC95C, symBinAddr: 0x10004EFB8, symSize: 0x230 }
  - { offset: 0x2B868, size: 0x8, addend: 0x0, symName: _.str.4, symObjAddr: 0x25F40, symBinAddr: 0x100184F00, symSize: 0x0 }
  - { offset: 0x2B8A1, size: 0x8, addend: 0x0, symName: _.str.6, symObjAddr: 0x25F60, symBinAddr: 0x100184F20, symSize: 0x0 }
  - { offset: 0x2B8CE, size: 0x8, addend: 0x0, symName: _.str.8, symObjAddr: 0x25F80, symBinAddr: 0x100184F40, symSize: 0x0 }
  - { offset: 0x2B907, size: 0x8, addend: 0x0, symName: _.str.10, symObjAddr: 0x25FA0, symBinAddr: 0x100184F60, symSize: 0x0 }
  - { offset: 0x2B940, size: 0x8, addend: 0x0, symName: _.str.14, symObjAddr: 0x260A0, symBinAddr: 0x100185060, symSize: 0x0 }
  - { offset: 0x2B95D, size: 0x8, addend: 0x0, symName: _.str.15, symObjAddr: 0x260C0, symBinAddr: 0x100185080, symSize: 0x0 }
  - { offset: 0x2B97A, size: 0x8, addend: 0x0, symName: _.str.16, symObjAddr: 0x26100, symBinAddr: 0x1001850C0, symSize: 0x0 }
  - { offset: 0x2B997, size: 0x8, addend: 0x0, symName: _.str.17, symObjAddr: 0x26120, symBinAddr: 0x1001850E0, symSize: 0x0 }
  - { offset: 0x2B9B4, size: 0x8, addend: 0x0, symName: _.str.18, symObjAddr: 0x26160, symBinAddr: 0x100185120, symSize: 0x0 }
  - { offset: 0x2B9D1, size: 0x8, addend: 0x0, symName: _.str.19, symObjAddr: 0x26180, symBinAddr: 0x100185140, symSize: 0x0 }
  - { offset: 0x2B9F0, size: 0x8, addend: 0x0, symName: _.str.22, symObjAddr: 0x261C0, symBinAddr: 0x100185180, symSize: 0x0 }
  - { offset: 0x2BA03, size: 0x8, addend: 0x0, symName: _.str.23, symObjAddr: 0x261E0, symBinAddr: 0x1001851A0, symSize: 0x0 }
  - { offset: 0x2BA22, size: 0x8, addend: 0x0, symName: _.str.24, symObjAddr: 0x26200, symBinAddr: 0x1001851C0, symSize: 0x0 }
  - { offset: 0x2BA35, size: 0x8, addend: 0x0, symName: _.str.25, symObjAddr: 0x26220, symBinAddr: 0x1001851E0, symSize: 0x0 }
  - { offset: 0x2BA54, size: 0x8, addend: 0x0, symName: _.str.26, symObjAddr: 0x262C0, symBinAddr: 0x100185280, symSize: 0x0 }
  - { offset: 0x2BA71, size: 0x8, addend: 0x0, symName: _.str.27, symObjAddr: 0x262E0, symBinAddr: 0x1001852A0, symSize: 0x0 }
  - { offset: 0x2BA8E, size: 0x8, addend: 0x0, symName: _.str.28, symObjAddr: 0x26300, symBinAddr: 0x1001852C0, symSize: 0x0 }
  - { offset: 0x2BAA1, size: 0x8, addend: 0x0, symName: _.str.29, symObjAddr: 0x26320, symBinAddr: 0x1001852E0, symSize: 0x0 }
  - { offset: 0x2BAC0, size: 0x8, addend: 0x0, symName: _.str.30, symObjAddr: 0x26340, symBinAddr: 0x100185300, symSize: 0x0 }
  - { offset: 0x2BAD3, size: 0x8, addend: 0x0, symName: _.str.31, symObjAddr: 0x26360, symBinAddr: 0x100185320, symSize: 0x0 }
  - { offset: 0x2BAE6, size: 0x8, addend: 0x0, symName: _.str.32, symObjAddr: 0x26380, symBinAddr: 0x100185340, symSize: 0x0 }
  - { offset: 0x2BCDD, size: 0x8, addend: 0x0, symName: __ZN7testing8internal11MatcherBaseIRKNSt3__112basic_stringIcNS2_11char_traitsIcEENS2_9allocatorIcEEEEE9GetVTableINSB_11ValuePolicyIPKNS_16MatcherInterfaceISA_EELb1EEEEEPKNSB_6VTableEv, symObjAddr: 0xB684, symBinAddr: 0x10004DCE0, symSize: 0x5C }
  - { offset: 0x2BD25, size: 0x8, addend: 0x0, symName: _.str.39, symObjAddr: 0x263C0, symBinAddr: 0x100185380, symSize: 0x0 }
  - { offset: 0x2BD44, size: 0x8, addend: 0x0, symName: _.str.49, symObjAddr: 0x26420, symBinAddr: 0x1001853E0, symSize: 0x0 }
  - { offset: 0x2BD55, size: 0x8, addend: 0x0, symName: _.str.52, symObjAddr: 0x26440, symBinAddr: 0x100185400, symSize: 0x0 }
  - { offset: 0x2BD74, size: 0x8, addend: 0x0, symName: _.str.54, symObjAddr: 0x26460, symBinAddr: 0x100185420, symSize: 0x0 }
  - { offset: 0x2BD87, size: 0x8, addend: 0x0, symName: _.str.56, symObjAddr: 0x26480, symBinAddr: 0x100185440, symSize: 0x0 }
  - { offset: 0x2BD98, size: 0x8, addend: 0x0, symName: _.str.60, symObjAddr: 0x2E420, symBinAddr: 0x1001A85A0, symSize: 0x0 }
  - { offset: 0x2BDB5, size: 0x8, addend: 0x0, symName: _.str.62, symObjAddr: 0x26580, symBinAddr: 0x100185540, symSize: 0x0 }
  - { offset: 0x2BDC6, size: 0x8, addend: 0x0, symName: _.str.63, symObjAddr: 0x265A0, symBinAddr: 0x100185560, symSize: 0x0 }
  - { offset: 0x2BDD7, size: 0x8, addend: 0x0, symName: _.str.64, symObjAddr: 0x265E0, symBinAddr: 0x1001855A0, symSize: 0x0 }
  - { offset: 0x2BDE8, size: 0x8, addend: 0x0, symName: _.str.65, symObjAddr: 0x26600, symBinAddr: 0x1001855C0, symSize: 0x0 }
  - { offset: 0x2BDF9, size: 0x8, addend: 0x0, symName: _.str.66, symObjAddr: 0x26640, symBinAddr: 0x100185600, symSize: 0x0 }
  - { offset: 0x2BE0A, size: 0x8, addend: 0x0, symName: _.str.67, symObjAddr: 0x26660, symBinAddr: 0x100185620, symSize: 0x0 }
  - { offset: 0x2BE27, size: 0x8, addend: 0x0, symName: _.str.68, symObjAddr: 0x266A0, symBinAddr: 0x100185660, symSize: 0x0 }
  - { offset: 0x2BE38, size: 0x8, addend: 0x0, symName: _.str.69, symObjAddr: 0x266C0, symBinAddr: 0x100185680, symSize: 0x0 }
  - { offset: 0x2BE49, size: 0x8, addend: 0x0, symName: _.str.70, symObjAddr: 0x266E0, symBinAddr: 0x1001856A0, symSize: 0x0 }
  - { offset: 0x2BE5A, size: 0x8, addend: 0x0, symName: _.str.71, symObjAddr: 0x26720, symBinAddr: 0x1001856E0, symSize: 0x0 }
  - { offset: 0x2BE6B, size: 0x8, addend: 0x0, symName: _.str.72, symObjAddr: 0x26740, symBinAddr: 0x100185700, symSize: 0x0 }
  - { offset: 0x2BE88, size: 0x8, addend: 0x0, symName: _.str.73, symObjAddr: 0x26780, symBinAddr: 0x100185740, symSize: 0x0 }
  - { offset: 0x2BEA5, size: 0x8, addend: 0x0, symName: _.str.74, symObjAddr: 0x267A0, symBinAddr: 0x100185760, symSize: 0x0 }
  - { offset: 0x2BEC2, size: 0x8, addend: 0x0, symName: _.str.75, symObjAddr: 0x267E0, symBinAddr: 0x1001857A0, symSize: 0x0 }
  - { offset: 0x2BED3, size: 0x8, addend: 0x0, symName: _.str.76, symObjAddr: 0x268E0, symBinAddr: 0x1001858A0, symSize: 0x0 }
  - { offset: 0x2BEE4, size: 0x8, addend: 0x0, symName: _.str.77, symObjAddr: 0x26920, symBinAddr: 0x1001858E0, symSize: 0x0 }
  - { offset: 0x2BEF5, size: 0x8, addend: 0x0, symName: _.str.78, symObjAddr: 0x26940, symBinAddr: 0x100185900, symSize: 0x0 }
  - { offset: 0x2BF06, size: 0x8, addend: 0x0, symName: _.str.79, symObjAddr: 0x26980, symBinAddr: 0x100185940, symSize: 0x0 }
  - { offset: 0x2BF17, size: 0x8, addend: 0x0, symName: _.str.80, symObjAddr: 0x269A0, symBinAddr: 0x100185960, symSize: 0x0 }
  - { offset: 0x2BF28, size: 0x8, addend: 0x0, symName: _.str.81, symObjAddr: 0x269E0, symBinAddr: 0x1001859A0, symSize: 0x0 }
  - { offset: 0x2BF39, size: 0x8, addend: 0x0, symName: _.str.82, symObjAddr: 0x26A00, symBinAddr: 0x1001859C0, symSize: 0x0 }
  - { offset: 0x2BF4A, size: 0x8, addend: 0x0, symName: _.str.83, symObjAddr: 0x26A40, symBinAddr: 0x100185A00, symSize: 0x0 }
  - { offset: 0x2BF5B, size: 0x8, addend: 0x0, symName: _.str.84, symObjAddr: 0x26A60, symBinAddr: 0x100185A20, symSize: 0x0 }
  - { offset: 0x2BF6C, size: 0x8, addend: 0x0, symName: _.str.85, symObjAddr: 0x26AA0, symBinAddr: 0x100185A60, symSize: 0x0 }
  - { offset: 0x2BF7D, size: 0x8, addend: 0x0, symName: _.str.86, symObjAddr: 0x26AC0, symBinAddr: 0x100185A80, symSize: 0x0 }
  - { offset: 0x2BF8E, size: 0x8, addend: 0x0, symName: _.str.87, symObjAddr: 0x26B00, symBinAddr: 0x100185AC0, symSize: 0x0 }
  - { offset: 0x2BF9F, size: 0x8, addend: 0x0, symName: _.str.88, symObjAddr: 0x26C00, symBinAddr: 0x100185BC0, symSize: 0x0 }
  - { offset: 0x2BFB0, size: 0x8, addend: 0x0, symName: _.str.89, symObjAddr: 0x26C40, symBinAddr: 0x100185C00, symSize: 0x0 }
  - { offset: 0x2BFC1, size: 0x8, addend: 0x0, symName: _.str.90, symObjAddr: 0x26C60, symBinAddr: 0x100185C20, symSize: 0x0 }
  - { offset: 0x2BFDE, size: 0x8, addend: 0x0, symName: _.str.91, symObjAddr: 0x26CC0, symBinAddr: 0x100185C80, symSize: 0x0 }
  - { offset: 0x2BFEF, size: 0x8, addend: 0x0, symName: _.str.92, symObjAddr: 0x26D20, symBinAddr: 0x100185CE0, symSize: 0x0 }
  - { offset: 0x2C000, size: 0x8, addend: 0x0, symName: _.str.93, symObjAddr: 0x26D60, symBinAddr: 0x100185D20, symSize: 0x0 }
  - { offset: 0x2C011, size: 0x8, addend: 0x0, symName: _.str.94, symObjAddr: 0x26D80, symBinAddr: 0x100185D40, symSize: 0x0 }
  - { offset: 0x2C02E, size: 0x8, addend: 0x0, symName: _.str.95, symObjAddr: 0x26DC0, symBinAddr: 0x100185D80, symSize: 0x0 }
  - { offset: 0x2C04B, size: 0x8, addend: 0x0, symName: _.str.96, symObjAddr: 0x26E00, symBinAddr: 0x100185DC0, symSize: 0x0 }
  - { offset: 0x2C05C, size: 0x8, addend: 0x0, symName: _.str.97, symObjAddr: 0x26F00, symBinAddr: 0x100185EC0, symSize: 0x0 }
  - { offset: 0x2C06D, size: 0x8, addend: 0x0, symName: _.str.98, symObjAddr: 0x26F40, symBinAddr: 0x100185F00, symSize: 0x0 }
  - { offset: 0x2C07E, size: 0x8, addend: 0x0, symName: _.str.99, symObjAddr: 0x26F60, symBinAddr: 0x100185F20, symSize: 0x0 }
  - { offset: 0x2C08F, size: 0x8, addend: 0x0, symName: _.str.100, symObjAddr: 0x26FA0, symBinAddr: 0x100185F60, symSize: 0x0 }
  - { offset: 0x2C0A0, size: 0x8, addend: 0x0, symName: _.str.101, symObjAddr: 0x26FC0, symBinAddr: 0x100185F80, symSize: 0x0 }
  - { offset: 0x2C0B1, size: 0x8, addend: 0x0, symName: _.str.102, symObjAddr: 0x27000, symBinAddr: 0x100185FC0, symSize: 0x0 }
  - { offset: 0x2C0C2, size: 0x8, addend: 0x0, symName: _.str.103, symObjAddr: 0x27020, symBinAddr: 0x100185FE0, symSize: 0x0 }
  - { offset: 0x2C0D3, size: 0x8, addend: 0x0, symName: _.str.104, symObjAddr: 0x27060, symBinAddr: 0x100186020, symSize: 0x0 }
  - { offset: 0x2C0E4, size: 0x8, addend: 0x0, symName: _.str.105, symObjAddr: 0x27080, symBinAddr: 0x100186040, symSize: 0x0 }
  - { offset: 0x2C0F5, size: 0x8, addend: 0x0, symName: _.str.106, symObjAddr: 0x270C0, symBinAddr: 0x100186080, symSize: 0x0 }
  - { offset: 0x2C106, size: 0x8, addend: 0x0, symName: _.str.107, symObjAddr: 0x270E0, symBinAddr: 0x1001860A0, symSize: 0x0 }
  - { offset: 0x2C117, size: 0x8, addend: 0x0, symName: _.str.108, symObjAddr: 0x27120, symBinAddr: 0x1001860E0, symSize: 0x0 }
  - { offset: 0x2C12A, size: 0x8, addend: 0x0, symName: _.str.109, symObjAddr: 0x27140, symBinAddr: 0x100186100, symSize: 0x0 }
  - { offset: 0x2C149, size: 0x8, addend: 0x0, symName: _.str.110, symObjAddr: 0x271A0, symBinAddr: 0x100186160, symSize: 0x0 }
  - { offset: 0x2C168, size: 0x8, addend: 0x0, symName: _.str.111, symObjAddr: 0x27240, symBinAddr: 0x100186200, symSize: 0x0 }
  - { offset: 0x2C17B, size: 0x8, addend: 0x0, symName: _.str.112, symObjAddr: 0x27260, symBinAddr: 0x100186220, symSize: 0x0 }
  - { offset: 0x2C280, size: 0x8, addend: 0x0, symName: ___cxx_global_var_init, symObjAddr: 0x23AF0, symBinAddr: 0x100059F20, symSize: 0x4A4 }
  - { offset: 0x2C2A5, size: 0x8, addend: 0x0, symName: __ZN7testing8internal15TestFactoryImplIN12_GLOBAL__N_126CleanToken_NoCleaning_TestEEC1Ev, symObjAddr: 0xAEC, symBinAddr: 0x100046140, symSize: 0x64 }
  - { offset: 0x2C2D2, size: 0x8, addend: 0x0, symName: ___cxx_global_var_init.3, symObjAddr: 0x23F94, symBinAddr: 0x10005A3C4, symSize: 0x4A4 }
  - { offset: 0x2C2EB, size: 0x8, addend: 0x0, symName: __ZN7testing8internal15TestFactoryImplIN12_GLOBAL__N_130CleanToken_PrefixCleaning_TestEEC1Ev, symObjAddr: 0xBB4, symBinAddr: 0x1000461A4, symSize: 0x64 }
  - { offset: 0x2C318, size: 0x8, addend: 0x0, symName: ___cxx_global_var_init.5, symObjAddr: 0x24438, symBinAddr: 0x10005A868, symSize: 0x4A4 }
  - { offset: 0x2C331, size: 0x8, addend: 0x0, symName: __ZN7testing8internal15TestFactoryImplIN12_GLOBAL__N_130CleanToken_SuffixCleaning_TestEEC1Ev, symObjAddr: 0xC18, symBinAddr: 0x100046208, symSize: 0x64 }
  - { offset: 0x2C35E, size: 0x8, addend: 0x0, symName: ___cxx_global_var_init.7, symObjAddr: 0x248DC, symBinAddr: 0x10005AD0C, symSize: 0x4A4 }
  - { offset: 0x2C377, size: 0x8, addend: 0x0, symName: __ZN7testing8internal15TestFactoryImplIN12_GLOBAL__N_123CleanToken_ToEmpty_TestEEC1Ev, symObjAddr: 0xC7C, symBinAddr: 0x10004626C, symSize: 0x64 }
  - { offset: 0x2C3A4, size: 0x8, addend: 0x0, symName: ___cxx_global_var_init.9, symObjAddr: 0x24D80, symBinAddr: 0x10005B1B0, symSize: 0x4A4 }
  - { offset: 0x2C3BD, size: 0x8, addend: 0x0, symName: __ZN7testing8internal15TestFactoryImplIN12_GLOBAL__N_125CleanToken_Uppercase_TestEEC1Ev, symObjAddr: 0xCE0, symBinAddr: 0x1000462D0, symSize: 0x64 }
  - { offset: 0x2C3EA, size: 0x8, addend: 0x0, symName: __ZN7testing8internal15TestFactoryImplIN12_GLOBAL__N_126CleanToken_NoCleaning_TestEEC2Ev, symObjAddr: 0x2100, symBinAddr: 0x100046334, symSize: 0xF8 }
  - { offset: 0x2C417, size: 0x8, addend: 0x0, symName: __ZN7testing8internal15TestFactoryImplIN12_GLOBAL__N_126CleanToken_NoCleaning_TestEED1Ev, symObjAddr: 0x22AC, symBinAddr: 0x10004642C, symSize: 0x64 }
  - { offset: 0x2C444, size: 0x8, addend: 0x0, symName: __ZN7testing8internal15TestFactoryImplIN12_GLOBAL__N_126CleanToken_NoCleaning_TestEED0Ev, symObjAddr: 0x2310, symBinAddr: 0x100046490, symSize: 0x68 }
  - { offset: 0x2C471, size: 0x8, addend: 0x0, symName: __ZN7testing8internal15TestFactoryImplIN12_GLOBAL__N_126CleanToken_NoCleaning_TestEE10CreateTestEv, symObjAddr: 0x2378, symBinAddr: 0x1000464F8, symSize: 0xFC }
  - { offset: 0x2C497, size: 0x8, addend: 0x0, symName: __ZN7testing8internal15TestFactoryImplIN12_GLOBAL__N_126CleanToken_NoCleaning_TestEED2Ev, symObjAddr: 0x2518, symBinAddr: 0x1000465F4, symSize: 0x64 }
  - { offset: 0x2C4C4, size: 0x8, addend: 0x0, symName: __ZN12_GLOBAL__N_126CleanToken_NoCleaning_TestC1Ev, symObjAddr: 0x25D8, symBinAddr: 0x100046658, symSize: 0x64 }
  - { offset: 0x2C4EE, size: 0x8, addend: 0x0, symName: __ZN12_GLOBAL__N_126CleanToken_NoCleaning_TestC2Ev, symObjAddr: 0x263C, symBinAddr: 0x1000466BC, symSize: 0xF8 }
  - { offset: 0x2C518, size: 0x8, addend: 0x0, symName: __ZN12_GLOBAL__N_126CleanToken_NoCleaning_TestD1Ev, symObjAddr: 0x2734, symBinAddr: 0x1000467B4, symSize: 0x64 }
  - { offset: 0x2C542, size: 0x8, addend: 0x0, symName: __ZN12_GLOBAL__N_126CleanToken_NoCleaning_TestD0Ev, symObjAddr: 0x2798, symBinAddr: 0x100046818, symSize: 0x68 }
  - { offset: 0x2C56C, size: 0x8, addend: 0x0, symName: __ZN12_GLOBAL__N_126CleanToken_NoCleaning_Test8TestBodyEv, symObjAddr: 0x2800, symBinAddr: 0x100046880, symSize: 0xDF4 }
  - { offset: 0x2C5E0, size: 0x8, addend: 0x0, symName: __ZN12_GLOBAL__N_126CleanToken_NoCleaning_TestD2Ev, symObjAddr: 0x364C, symBinAddr: 0x100047674, symSize: 0x64 }
  - { offset: 0x2C733, size: 0x8, addend: 0x0, symName: __ZNK7testing8internal29PredicateFormatterFromMatcherINS_18PolymorphicMatcherINS0_18StrEqualityMatcherINSt3__112basic_stringIcNS4_11char_traitsIcEENS4_9allocatorIcEEEEEEEEEclISA_EENS_15AssertionResultEPKcRKT_, symObjAddr: 0x3CAC, symBinAddr: 0x100047CD4, symSize: 0xCC8 }
  - { offset: 0x2C7BD, size: 0x8, addend: 0x0, symName: __ZN7testing8internal29PredicateFormatterFromMatcherINS_18PolymorphicMatcherINS0_18StrEqualityMatcherINSt3__112basic_stringIcNS4_11char_traitsIcEENS4_9allocatorIcEEEEEEEEED1Ev, symObjAddr: 0x4974, symBinAddr: 0x10004899C, symSize: 0x64 }
  - { offset: 0x2C7EA, size: 0x8, addend: 0x0, symName: __ZN7testing18PolymorphicMatcherINS_8internal18StrEqualityMatcherINSt3__112basic_stringIcNS3_11char_traitsIcEENS3_9allocatorIcEEEEEEED1Ev, symObjAddr: 0x49D8, symBinAddr: 0x100048A00, symSize: 0x64 }
  - { offset: 0x2C81D, size: 0x8, addend: 0x0, symName: __ZN7testing18PolymorphicMatcherINS_8internal18StrEqualityMatcherINSt3__112basic_stringIcNS3_11char_traitsIcEENS3_9allocatorIcEEEEEEEC1EOSB_, symObjAddr: 0x5290, symBinAddr: 0x1000490AC, symSize: 0x6C }
  - { offset: 0x2C853, size: 0x8, addend: 0x0, symName: __ZN7testing8internal29PredicateFormatterFromMatcherINS_18PolymorphicMatcherINS0_18StrEqualityMatcherINSt3__112basic_stringIcNS4_11char_traitsIcEENS4_9allocatorIcEEEEEEEEEC1ESC_, symObjAddr: 0x52FC, symBinAddr: 0x100049118, symSize: 0x70 }
  - { offset: 0x2C88D, size: 0x8, addend: 0x0, symName: __ZN7testing18PolymorphicMatcherINS_8internal18StrEqualityMatcherINSt3__112basic_stringIcNS3_11char_traitsIcEENS3_9allocatorIcEEEEEEEC2EOSB_, symObjAddr: 0x536C, symBinAddr: 0x100049188, symSize: 0xD8 }
  - { offset: 0x2C8C9, size: 0x8, addend: 0x0, symName: __ZN7testing8internal18StrEqualityMatcherINSt3__112basic_stringIcNS2_11char_traitsIcEENS2_9allocatorIcEEEEEC1EOS9_, symObjAddr: 0x5444, symBinAddr: 0x100049260, symSize: 0x6C }
  - { offset: 0x2C8FF, size: 0x8, addend: 0x0, symName: __ZN7testing8internal18StrEqualityMatcherINSt3__112basic_stringIcNS2_11char_traitsIcEENS2_9allocatorIcEEEEEC2EOS9_, symObjAddr: 0x54B0, symBinAddr: 0x1000492CC, symSize: 0xF0 }
  - { offset: 0x2C935, size: 0x8, addend: 0x0, symName: __ZN7testing8internal29PredicateFormatterFromMatcherINS_18PolymorphicMatcherINS0_18StrEqualityMatcherINSt3__112basic_stringIcNS4_11char_traitsIcEENS4_9allocatorIcEEEEEEEEEC2ESC_, symObjAddr: 0x55A0, symBinAddr: 0x1000493BC, symSize: 0xA4 }
  - { offset: 0x2C96F, size: 0x8, addend: 0x0, symName: __ZN7testing8internal18StrEqualityMatcherINSt3__112basic_stringIcNS2_11char_traitsIcEENS2_9allocatorIcEEEEEC1ES8_bb, symObjAddr: 0x56E8, symBinAddr: 0x100049504, symSize: 0xD8 }
  - { offset: 0x2C9C7, size: 0x8, addend: 0x0, symName: __ZN7testing8internal18StrEqualityMatcherINSt3__112basic_stringIcNS2_11char_traitsIcEENS2_9allocatorIcEEEEED1Ev, symObjAddr: 0x57C0, symBinAddr: 0x1000495DC, symSize: 0x64 }
  - { offset: 0x2C9F4, size: 0x8, addend: 0x0, symName: __ZN7testing18PolymorphicMatcherINS_8internal18StrEqualityMatcherINSt3__112basic_stringIcNS3_11char_traitsIcEENS3_9allocatorIcEEEEEEEC1ERKSA_, symObjAddr: 0x5824, symBinAddr: 0x100049640, symSize: 0x6C }
  - { offset: 0x2CA2D, size: 0x8, addend: 0x0, symName: __ZN7testing18PolymorphicMatcherINS_8internal18StrEqualityMatcherINSt3__112basic_stringIcNS3_11char_traitsIcEENS3_9allocatorIcEEEEEEEC2ERKSA_, symObjAddr: 0x5890, symBinAddr: 0x1000496AC, symSize: 0xA4 }
  - { offset: 0x2CA66, size: 0x8, addend: 0x0, symName: __ZN7testing8internal18StrEqualityMatcherINSt3__112basic_stringIcNS2_11char_traitsIcEENS2_9allocatorIcEEEEEC1ERKS9_, symObjAddr: 0x5934, symBinAddr: 0x100049750, symSize: 0x6C }
  - { offset: 0x2CA9C, size: 0x8, addend: 0x0, symName: __ZN7testing8internal18StrEqualityMatcherINSt3__112basic_stringIcNS2_11char_traitsIcEENS2_9allocatorIcEEEEEC2ERKS9_, symObjAddr: 0x59A0, symBinAddr: 0x1000497BC, symSize: 0xBC }
  - { offset: 0x2CAD2, size: 0x8, addend: 0x0, symName: __ZN7testing8internal18StrEqualityMatcherINSt3__112basic_stringIcNS2_11char_traitsIcEENS2_9allocatorIcEEEEEC2ES8_bb, symObjAddr: 0x5A5C, symBinAddr: 0x100049878, symSize: 0x1EC }
  - { offset: 0x2CB2A, size: 0x8, addend: 0x0, symName: __ZN7testing8internal18StrEqualityMatcherINSt3__112basic_stringIcNS2_11char_traitsIcEENS2_9allocatorIcEEEEED2Ev, symObjAddr: 0x5C48, symBinAddr: 0x100049A64, symSize: 0x64 }
  - { offset: 0x2CB57, size: 0x8, addend: 0x0, symName: __ZNK7testing8internal11MatcherBaseIRKNSt3__112basic_stringIcNS2_11char_traitsIcEENS2_9allocatorIcEEEEE7MatchesESA_, symObjAddr: 0x5D1C, symBinAddr: 0x100049B38, symSize: 0x350 }
  - { offset: 0x2CB9F, size: 0x8, addend: 0x0, symName: __ZNK7testing8internal11MatcherBaseIRKNSt3__112basic_stringIcNS2_11char_traitsIcEENS2_9allocatorIcEEEEE10DescribeToEPNS2_13basic_ostreamIcS5_EE, symObjAddr: 0x64B0, symBinAddr: 0x100049E88, symSize: 0x59C }
  - { offset: 0x2CBF5, size: 0x8, addend: 0x0, symName: __ZN7testing7MatcherIRKNSt3__112basic_stringIcNS1_11char_traitsIcEENS1_9allocatorIcEEEEED1Ev, symObjAddr: 0x7F74, symBinAddr: 0x10004B080, symSize: 0x64 }
  - { offset: 0x2CC28, size: 0x8, addend: 0x0, symName: __ZN7testing8internal15MatcherCastImplIRKNSt3__112basic_stringIcNS2_11char_traitsIcEENS2_9allocatorIcEEEENS_18PolymorphicMatcherINS0_18StrEqualityMatcherIS8_EEEEE4CastERKSE_, symObjAddr: 0x8050, symBinAddr: 0x10004B15C, symSize: 0x68 }
  - { offset: 0x2CC4C, size: 0x8, addend: 0x0, symName: __ZN7testing8internal15MatcherCastImplIRKNSt3__112basic_stringIcNS2_11char_traitsIcEENS2_9allocatorIcEEEENS_18PolymorphicMatcherINS0_18StrEqualityMatcherIS8_EEEEE8CastImplILb0EEENS_7MatcherISA_EERKSE_NS2_17integral_constantIbLb1EEENSL_IbXT_EEE, symObjAddr: 0x80C0, symBinAddr: 0x10004B1CC, symSize: 0x58 }
  - { offset: 0x2CC92, size: 0x8, addend: 0x0, symName: __ZNK7testing18PolymorphicMatcherINS_8internal18StrEqualityMatcherINSt3__112basic_stringIcNS3_11char_traitsIcEENS3_9allocatorIcEEEEEEEcvNS_7MatcherIT_EEIRKS9_EEv, symObjAddr: 0x8118, symBinAddr: 0x10004B224, symSize: 0x178 }
  - { offset: 0x2CCD0, size: 0x8, addend: 0x0, symName: __ZN7testing18PolymorphicMatcherINS_8internal18StrEqualityMatcherINSt3__112basic_stringIcNS3_11char_traitsIcEENS3_9allocatorIcEEEEEEE15MonomorphicImplIRKS9_EC1ERKSA_, symObjAddr: 0x8290, symBinAddr: 0x10004B39C, symSize: 0x6C }
  - { offset: 0x2CD09, size: 0x8, addend: 0x0, symName: __ZN7testing7MatcherIRKNSt3__112basic_stringIcNS1_11char_traitsIcEENS1_9allocatorIcEEEEEC1EPKNS_16MatcherInterfaceIS9_EE, symObjAddr: 0x82FC, symBinAddr: 0x10004B408, symSize: 0x6C }
  - { offset: 0x2CD42, size: 0x8, addend: 0x0, symName: __ZN7testing18PolymorphicMatcherINS_8internal18StrEqualityMatcherINSt3__112basic_stringIcNS3_11char_traitsIcEENS3_9allocatorIcEEEEEEE15MonomorphicImplIRKS9_EC2ERKSA_, symObjAddr: 0x8368, symBinAddr: 0x10004B474, symSize: 0x170 }
  - { offset: 0x2CD80, size: 0x8, addend: 0x0, symName: __ZN7testing16MatcherInterfaceIRKNSt3__112basic_stringIcNS1_11char_traitsIcEENS1_9allocatorIcEEEEEC2Ev, symObjAddr: 0x84D8, symBinAddr: 0x10004B5E4, symSize: 0xF8 }
  - { offset: 0x2CDAC, size: 0x8, addend: 0x0, symName: __ZN7testing16MatcherInterfaceIRKNSt3__112basic_stringIcNS1_11char_traitsIcEENS1_9allocatorIcEEEEED2Ev, symObjAddr: 0x85D0, symBinAddr: 0x10004B6DC, symSize: 0x64 }
  - { offset: 0x2CDD8, size: 0x8, addend: 0x0, symName: __ZN7testing18PolymorphicMatcherINS_8internal18StrEqualityMatcherINSt3__112basic_stringIcNS3_11char_traitsIcEENS3_9allocatorIcEEEEEEE15MonomorphicImplIRKS9_ED1Ev, symObjAddr: 0x8634, symBinAddr: 0x10004B740, symSize: 0x64 }
  - { offset: 0x2CE05, size: 0x8, addend: 0x0, symName: __ZN7testing18PolymorphicMatcherINS_8internal18StrEqualityMatcherINSt3__112basic_stringIcNS3_11char_traitsIcEENS3_9allocatorIcEEEEEEE15MonomorphicImplIRKS9_ED0Ev, symObjAddr: 0x8698, symBinAddr: 0x10004B7A4, symSize: 0x68 }
  - { offset: 0x2CE32, size: 0x8, addend: 0x0, symName: __ZNK7testing18PolymorphicMatcherINS_8internal18StrEqualityMatcherINSt3__112basic_stringIcNS3_11char_traitsIcEENS3_9allocatorIcEEEEEEE15MonomorphicImplIRKS9_E10DescribeToEPNS3_13basic_ostreamIcS6_EE, symObjAddr: 0x8700, symBinAddr: 0x10004B80C, symSize: 0x11C }
  - { offset: 0x2CE67, size: 0x8, addend: 0x0, symName: __ZNK7testing18PolymorphicMatcherINS_8internal18StrEqualityMatcherINSt3__112basic_stringIcNS3_11char_traitsIcEENS3_9allocatorIcEEEEEEE15MonomorphicImplIRKS9_E18DescribeNegationToEPNS3_13basic_ostreamIcS6_EE, symObjAddr: 0x881C, symBinAddr: 0x10004B928, symSize: 0x11C }
  - { offset: 0x2CE9C, size: 0x8, addend: 0x0, symName: __ZNK7testing18PolymorphicMatcherINS_8internal18StrEqualityMatcherINSt3__112basic_stringIcNS3_11char_traitsIcEENS3_9allocatorIcEEEEEEE15MonomorphicImplIRKS9_E15MatchAndExplainESE_PNS_19MatchResultListenerE, symObjAddr: 0x8938, symBinAddr: 0x10004BA44, symSize: 0x15C }
  - { offset: 0x2CEE0, size: 0x8, addend: 0x0, symName: __ZN7testing16MatcherInterfaceIRKNSt3__112basic_stringIcNS1_11char_traitsIcEENS1_9allocatorIcEEEEED1Ev, symObjAddr: 0x8B48, symBinAddr: 0x10004BBA0, symSize: 0x54 }
  - { offset: 0x2CF0C, size: 0x8, addend: 0x0, symName: __ZN7testing16MatcherInterfaceIRKNSt3__112basic_stringIcNS1_11char_traitsIcEENS1_9allocatorIcEEEEED0Ev, symObjAddr: 0x8B9C, symBinAddr: 0x10004BBF4, symSize: 0x50 }
  - { offset: 0x2CF38, size: 0x8, addend: 0x0, symName: __ZN7testing18PolymorphicMatcherINS_8internal18StrEqualityMatcherINSt3__112basic_stringIcNS3_11char_traitsIcEENS3_9allocatorIcEEEEEEE15MonomorphicImplIRKS9_ED2Ev, symObjAddr: 0x8ED0, symBinAddr: 0x10004BC44, symSize: 0xC4 }
  - { offset: 0x2CF65, size: 0x8, addend: 0x0, symName: __ZNK7testing8internal18StrEqualityMatcherINSt3__112basic_stringIcNS2_11char_traitsIcEENS2_9allocatorIcEEEEE10DescribeToEPNS2_13basic_ostreamIcS5_EE, symObjAddr: 0x8F94, symBinAddr: 0x10004BD08, symSize: 0xFC }
  - { offset: 0x2CF9A, size: 0x8, addend: 0x0, symName: __ZNK7testing8internal18StrEqualityMatcherINSt3__112basic_stringIcNS2_11char_traitsIcEENS2_9allocatorIcEEEEE16DescribeToHelperEbPNS2_13basic_ostreamIcS5_EE, symObjAddr: 0x9090, symBinAddr: 0x10004BE04, symSize: 0x25C }
  - { offset: 0x2CFDE, size: 0x8, addend: 0x0, symName: __ZNK7testing8internal18StrEqualityMatcherINSt3__112basic_stringIcNS2_11char_traitsIcEENS2_9allocatorIcEEEEE18DescribeNegationToEPNS2_13basic_ostreamIcS5_EE, symObjAddr: 0x9430, symBinAddr: 0x10004C060, symSize: 0x100 }
  - { offset: 0x2D013, size: 0x8, addend: 0x0, symName: __ZNK7testing8internal18StrEqualityMatcherINSt3__112basic_stringIcNS2_11char_traitsIcEENS2_9allocatorIcEEEEE15MatchAndExplainIS8_EEbRKT_PNS_19MatchResultListenerE, symObjAddr: 0x9530, symBinAddr: 0x10004C160, symSize: 0x524 }
  - { offset: 0x2D083, size: 0x8, addend: 0x0, symName: __ZNKSt3__112basic_stringIcNS_11char_traitsIcEENS_9allocatorIcEEE6substrB8ne190107Emm, symObjAddr: 0xA5E4, symBinAddr: 0x10004CC40, symSize: 0x290 }
  - { offset: 0x2D0CA, size: 0x8, addend: 0x0, symName: __ZNSt3__19allocatorIcEC1B8ne190107Ev, symObjAddr: 0xA874, symBinAddr: 0x10004CED0, symSize: 0x50 }
  - { offset: 0x2D0F4, size: 0x8, addend: 0x0, symName: __ZN7testing7MatcherIRKNSt3__112basic_stringIcNS1_11char_traitsIcEENS1_9allocatorIcEEEEEC2EPKNS_16MatcherInterfaceIS9_EE, symObjAddr: 0xA8C4, symBinAddr: 0x10004CF20, symSize: 0x108 }
  - { offset: 0x2D12D, size: 0x8, addend: 0x0, symName: __ZN7testing8internal11MatcherBaseIRKNSt3__112basic_stringIcNS2_11char_traitsIcEENS2_9allocatorIcEEEEEC2ISA_EEPKNS_16MatcherInterfaceIT_EE, symObjAddr: 0xA9CC, symBinAddr: 0x10004D028, symSize: 0x3AC }
  - { offset: 0x2D174, size: 0x8, addend: 0x0, symName: __ZN7testing7MatcherIRKNSt3__112basic_stringIcNS1_11char_traitsIcEENS1_9allocatorIcEEEEED0Ev, symObjAddr: 0xAD78, symBinAddr: 0x10004D3D4, symSize: 0x68 }
  - { offset: 0x2D1A1, size: 0x8, addend: 0x0, symName: __ZNK7testing8internal11MatcherBaseIRKNSt3__112basic_stringIcNS2_11char_traitsIcEENS2_9allocatorIcEEEEE18DescribeNegationToEPNS2_13basic_ostreamIcS5_EE, symObjAddr: 0xADE0, symBinAddr: 0x10004D43C, symSize: 0x5A4 }
  - { offset: 0x2D1D7, size: 0x8, addend: 0x0, symName: __ZN7testing8internal11MatcherBaseIRKNSt3__112basic_stringIcNS2_11char_traitsIcEENS2_9allocatorIcEEEEE4InitIRPKNS_16MatcherInterfaceISA_EEEEvOT_, symObjAddr: 0xB384, symBinAddr: 0x10004D9E0, symSize: 0x234 }
  - { offset: 0x2D215, size: 0x8, addend: 0x0, symName: __ZN7testing8internal11MatcherBaseIRKNSt3__112basic_stringIcNS2_11char_traitsIcEENS2_9allocatorIcEEEEED1Ev, symObjAddr: 0xB5B8, symBinAddr: 0x10004DC14, symSize: 0x64 }
  - { offset: 0x2D23F, size: 0x8, addend: 0x0, symName: __ZN7testing8internal11MatcherBaseIRKNSt3__112basic_stringIcNS2_11char_traitsIcEENS2_9allocatorIcEEEEED0Ev, symObjAddr: 0xB61C, symBinAddr: 0x10004DC78, symSize: 0x68 }
  - { offset: 0x2D269, size: 0x8, addend: 0x0, symName: __ZN7testing8internal11MatcherBaseIRKNSt3__112basic_stringIcNS2_11char_traitsIcEENS2_9allocatorIcEEEEE11ValuePolicyIPKNS_16MatcherInterfaceISA_EELb1EE4InitERSB_SG_, symObjAddr: 0xB6E8, symBinAddr: 0x10004DD44, symSize: 0x3B4 }
  - { offset: 0x2D29E, size: 0x8, addend: 0x0, symName: __ZN7testing8internal11MatcherBaseIRKNSt3__112basic_stringIcNS2_11char_traitsIcEENS2_9allocatorIcEEEEE19MatchAndExplainImplINSB_11ValuePolicyIPKNS_16MatcherInterfaceISA_EELb1EEEEEDTcldtclsrT_3Getfp_E15MatchAndExplainfp0_fp1_EERKSB_SA_PNS_19MatchResultListenerE, symObjAddr: 0xBAA4, symBinAddr: 0x10004E100, symSize: 0x1E0 }
  - { offset: 0x2D2E9, size: 0x8, addend: 0x0, symName: __ZN7testing8internal11MatcherBaseIRKNSt3__112basic_stringIcNS2_11char_traitsIcEENS2_9allocatorIcEEEEE12DescribeImplINSB_11ValuePolicyIPKNS_16MatcherInterfaceISA_EELb1EEEEEvRKSB_PNS2_13basic_ostreamIcS5_EEb, symObjAddr: 0xBC8C, symBinAddr: 0x10004E2E8, symSize: 0x3A0 }
  - { offset: 0x2D334, size: 0x8, addend: 0x0, symName: __ZN7testing8internal11MatcherBaseIRKNSt3__112basic_stringIcNS2_11char_traitsIcEENS2_9allocatorIcEEEEE16GetDescriberImplINSB_11ValuePolicyIPKNS_16MatcherInterfaceISA_EELb1EEEEEPKNS_25MatcherDescriberInterfaceERKSB_, symObjAddr: 0xC034, symBinAddr: 0x10004E690, symSize: 0x31C }
  - { offset: 0x2D362, size: 0x8, addend: 0x0, symName: __ZN7testing8internal13SharedPayloadINSt3__110unique_ptrIKNS_16MatcherInterfaceIRKNS2_12basic_stringIcNS2_11char_traitsIcEENS2_9allocatorIcEEEEEENS2_14default_deleteISE_EEEEE7DestroyEPNS0_17SharedPayloadBaseE, symObjAddr: 0xC358, symBinAddr: 0x10004E9B4, symSize: 0xAC }
  - { offset: 0x2D385, size: 0x8, addend: 0x0, symName: __ZN7testing8internal11MatcherBaseIRKNSt3__112basic_stringIcNS2_11char_traitsIcEENS2_9allocatorIcEEEEE11ValuePolicyIPKNS_16MatcherInterfaceISA_EELb1EE3GetERKSB_, symObjAddr: 0xC40C, symBinAddr: 0x10004EA68, symSize: 0x1BC }
  - { offset: 0x2D3A9, size: 0x8, addend: 0x0, symName: __ZNKSt3__110unique_ptrIKN7testing16MatcherInterfaceIRKNS_12basic_stringIcNS_11char_traitsIcEENS_9allocatorIcEEEEEENS_14default_deleteISC_EEEdeB8ne190107Ev, symObjAddr: 0xC5C8, symBinAddr: 0x10004EC24, symSize: 0x144 }
  - { offset: 0x2D3CF, size: 0x8, addend: 0x0, symName: __ZNKSt3__117__compressed_pairIPKN7testing16MatcherInterfaceIRKNS_12basic_stringIcNS_11char_traitsIcEENS_9allocatorIcEEEEEENS_14default_deleteISC_EEE5firstB8ne190107Ev, symObjAddr: 0xC70C, symBinAddr: 0x10004ED68, symSize: 0xEC }
  - { offset: 0x2D3F5, size: 0x8, addend: 0x0, symName: __ZNKSt3__122__compressed_pair_elemIPKN7testing16MatcherInterfaceIRKNS_12basic_stringIcNS_11char_traitsIcEENS_9allocatorIcEEEEEELi0ELb0EE5__getB8ne190107Ev, symObjAddr: 0xC7F8, symBinAddr: 0x10004EE54, symSize: 0x8C }
  - { offset: 0x2D43C, size: 0x8, addend: 0x0, symName: __ZNSt3__112__tuple_leafILm1EPKN7testing16MatcherInterfaceIRKNS_12basic_stringIcNS_11char_traitsIcEENS_9allocatorIcEEEEEELb0EE3getB8ne190107Ev, symObjAddr: 0xCB8C, symBinAddr: 0x10004F1E8, symSize: 0x8C }
  - { offset: 0x2D4E2, size: 0x8, addend: 0x0, symName: __ZNSt3__15tupleIJPKN7testing8internal11MatcherBaseIRKNS_12basic_stringIcNS_11char_traitsIcEENS_9allocatorIcEEEEEEPKNS1_16MatcherInterfaceISB_EEEEC1B8ne190107IJSE_SI_ETnNS_9enable_ifIXsr4_AndINS_17integral_constantIbXeqsZT_sZT_EEENSJ_17_EnableUTypesCtorIJDpT_EEEEE5valueEiE4typeELi0EEEDpOSP_, symObjAddr: 0xCC18, symBinAddr: 0x10004F274, symSize: 0x74 }
  - { offset: 0x2D540, size: 0x8, addend: 0x0, symName: __ZNSt3__15tupleIJPKN7testing8internal11MatcherBaseIRKNS_12basic_stringIcNS_11char_traitsIcEENS_9allocatorIcEEEEEEPKNS1_16MatcherInterfaceISB_EEEEC2B8ne190107IJSE_SI_ETnNS_9enable_ifIXsr4_AndINS_17integral_constantIbXeqsZT_sZT_EEENSJ_17_EnableUTypesCtorIJDpT_EEEEE5valueEiE4typeELi0EEEDpOSP_, symObjAddr: 0xCC8C, symBinAddr: 0x10004F2E8, symSize: 0xE4 }
  - { offset: 0x2D59E, size: 0x8, addend: 0x0, symName: __ZNSt3__112__tuple_implINS_15__tuple_indicesIJLm0ELm1EEEEJPKN7testing8internal11MatcherBaseIRKNS_12basic_stringIcNS_11char_traitsIcEENS_9allocatorIcEEEEEEPKNS3_16MatcherInterfaceISD_EEEEC1B8ne190107IJLm0ELm1EEJSG_SK_ETpTnmJEJEJSG_SK_EEENS1_IJXspT_EEEENS_13__tuple_typesIJDpT0_EEENS1_IJXspT1_EEEENSO_IJDpT2_EEEDpOT3_, symObjAddr: 0xCD70, symBinAddr: 0x10004F3CC, symSize: 0x74 }
  - { offset: 0x2D654, size: 0x8, addend: 0x0, symName: __ZNSt3__112__tuple_implINS_15__tuple_indicesIJLm0ELm1EEEEJPKN7testing8internal11MatcherBaseIRKNS_12basic_stringIcNS_11char_traitsIcEENS_9allocatorIcEEEEEEPKNS3_16MatcherInterfaceISD_EEEEC2B8ne190107IJLm0ELm1EEJSG_SK_ETpTnmJEJEJSG_SK_EEENS1_IJXspT_EEEENS_13__tuple_typesIJDpT0_EEENS1_IJXspT1_EEEENSO_IJDpT2_EEEDpOT3_, symObjAddr: 0xCDE4, symBinAddr: 0x10004F440, symSize: 0x168 }
  - { offset: 0x2D70A, size: 0x8, addend: 0x0, symName: __ZNSt3__112__tuple_leafILm0EPKN7testing8internal11MatcherBaseIRKNS_12basic_stringIcNS_11char_traitsIcEENS_9allocatorIcEEEEEELb0EEC2B8ne190107ISE_TnNS_9enable_ifIXsr4_AndINS_17integral_constantIbXntu9__is_sameu14__remove_cvrefIT_ESF_EEEENS_16is_constructibleISE_JSJ_EEEEE5valueEiE4typeELi0EEEOSJ_, symObjAddr: 0xCF4C, symBinAddr: 0x10004F5A8, symSize: 0x124 }
  - { offset: 0x2D752, size: 0x8, addend: 0x0, symName: __ZNSt3__112__tuple_leafILm1EPKN7testing16MatcherInterfaceIRKNS_12basic_stringIcNS_11char_traitsIcEENS_9allocatorIcEEEEEELb0EEC2B8ne190107ISD_TnNS_9enable_ifIXsr4_AndINS_17integral_constantIbXntu9__is_sameu14__remove_cvrefIT_ESE_EEEENS_16is_constructibleISD_JSI_EEEEE5valueEiE4typeELi0EEEOSI_, symObjAddr: 0xD070, symBinAddr: 0x10004F6CC, symSize: 0x124 }
  - { offset: 0x2D79A, size: 0x8, addend: 0x0, symName: __ZN7testing8internal13SharedPayloadINSt3__110unique_ptrIKNS_16MatcherInterfaceIRKNS2_12basic_stringIcNS2_11char_traitsIcEENS2_9allocatorIcEEEEEENS2_14default_deleteISE_EEEEED1Ev, symObjAddr: 0xD194, symBinAddr: 0x10004F7F0, symSize: 0x64 }
  - { offset: 0x2D7C6, size: 0x8, addend: 0x0, symName: __ZN7testing8internal13SharedPayloadINSt3__110unique_ptrIKNS_16MatcherInterfaceIRKNS2_12basic_stringIcNS2_11char_traitsIcEENS2_9allocatorIcEEEEEENS2_14default_deleteISE_EEEEED2Ev, symObjAddr: 0xD1F8, symBinAddr: 0x10004F854, symSize: 0x68 }
  - { offset: 0x2D7F2, size: 0x8, addend: 0x0, symName: __ZNSt3__110unique_ptrIKN7testing16MatcherInterfaceIRKNS_12basic_stringIcNS_11char_traitsIcEENS_9allocatorIcEEEEEENS_14default_deleteISC_EEED1B8ne190107Ev, symObjAddr: 0xD260, symBinAddr: 0x10004F8BC, symSize: 0x64 }
  - { offset: 0x2D81C, size: 0x8, addend: 0x0, symName: __ZNSt3__110unique_ptrIKN7testing16MatcherInterfaceIRKNS_12basic_stringIcNS_11char_traitsIcEENS_9allocatorIcEEEEEENS_14default_deleteISC_EEED2B8ne190107Ev, symObjAddr: 0xD2C4, symBinAddr: 0x10004F920, symSize: 0x68 }
  - { offset: 0x2D846, size: 0x8, addend: 0x0, symName: __ZNSt3__110unique_ptrIKN7testing16MatcherInterfaceIRKNS_12basic_stringIcNS_11char_traitsIcEENS_9allocatorIcEEEEEENS_14default_deleteISC_EEE5resetB8ne190107EPSC_, symObjAddr: 0xD32C, symBinAddr: 0x10004F988, symSize: 0x240 }
  - { offset: 0x2D88A, size: 0x8, addend: 0x0, symName: __ZNSt3__117__compressed_pairIPKN7testing16MatcherInterfaceIRKNS_12basic_stringIcNS_11char_traitsIcEENS_9allocatorIcEEEEEENS_14default_deleteISC_EEE5firstB8ne190107Ev, symObjAddr: 0xD56C, symBinAddr: 0x10004FBC8, symSize: 0xEC }
  - { offset: 0x2D8B0, size: 0x8, addend: 0x0, symName: __ZNSt3__117__compressed_pairIPKN7testing16MatcherInterfaceIRKNS_12basic_stringIcNS_11char_traitsIcEENS_9allocatorIcEEEEEENS_14default_deleteISC_EEE6secondB8ne190107Ev, symObjAddr: 0xD658, symBinAddr: 0x10004FCB4, symSize: 0xC4 }
  - { offset: 0x2D8D6, size: 0x8, addend: 0x0, symName: __ZNKSt3__114default_deleteIKN7testing16MatcherInterfaceIRKNS_12basic_stringIcNS_11char_traitsIcEENS_9allocatorIcEEEEEEEclB8ne190107EPSC_, symObjAddr: 0xD71C, symBinAddr: 0x10004FD78, symSize: 0x18C }
  - { offset: 0x2D90A, size: 0x8, addend: 0x0, symName: __ZNSt3__122__compressed_pair_elemIPKN7testing16MatcherInterfaceIRKNS_12basic_stringIcNS_11char_traitsIcEENS_9allocatorIcEEEEEELi0ELb0EE5__getB8ne190107Ev, symObjAddr: 0xD8A8, symBinAddr: 0x10004FF04, symSize: 0x8C }
  - { offset: 0x2D930, size: 0x8, addend: 0x0, symName: __ZNSt3__122__compressed_pair_elemINS_14default_deleteIKN7testing16MatcherInterfaceIRKNS_12basic_stringIcNS_11char_traitsIcEENS_9allocatorIcEEEEEEEELi1ELb1EE5__getB8ne190107Ev, symObjAddr: 0xD934, symBinAddr: 0x10004FF90, symSize: 0x64 }
  - { offset: 0x2D956, size: 0x8, addend: 0x0, symName: __ZNSt3__110unique_ptrIKN7testing16MatcherInterfaceIRKNS_12basic_stringIcNS_11char_traitsIcEENS_9allocatorIcEEEEEENS_14default_deleteISC_EEEC1B8ne190107ILb1EvEEPSC_, symObjAddr: 0xD998, symBinAddr: 0x10004FFF4, symSize: 0x6C }
  - { offset: 0x2D999, size: 0x8, addend: 0x0, symName: __ZN7testing8internal13SharedPayloadINSt3__110unique_ptrIKNS_16MatcherInterfaceIRKNS2_12basic_stringIcNS2_11char_traitsIcEENS2_9allocatorIcEEEEEENS2_14default_deleteISE_EEEEEC1EOSH_, symObjAddr: 0xDA04, symBinAddr: 0x100050060, symSize: 0x6C }
  - { offset: 0x2D9D1, size: 0x8, addend: 0x0, symName: __ZNSt3__110unique_ptrIKN7testing16MatcherInterfaceIRKNS_12basic_stringIcNS_11char_traitsIcEENS_9allocatorIcEEEEEENS_14default_deleteISC_EEEC2B8ne190107ILb1EvEEPSC_, symObjAddr: 0xDA70, symBinAddr: 0x1000500CC, symSize: 0x250 }
  - { offset: 0x2DA1F, size: 0x8, addend: 0x0, symName: __ZNSt3__117__compressed_pairIPKN7testing16MatcherInterfaceIRKNS_12basic_stringIcNS_11char_traitsIcEENS_9allocatorIcEEEEEENS_14default_deleteISC_EEEC1B8ne190107IRSD_NS_16__value_init_tagEEEOT_OT0_, symObjAddr: 0xDCC0, symBinAddr: 0x10005031C, symSize: 0x74 }
  - { offset: 0x2DA77, size: 0x8, addend: 0x0, symName: __ZNSt3__117__compressed_pairIPKN7testing16MatcherInterfaceIRKNS_12basic_stringIcNS_11char_traitsIcEENS_9allocatorIcEEEEEENS_14default_deleteISC_EEEC2B8ne190107IRSD_NS_16__value_init_tagEEEOT_OT0_, symObjAddr: 0xDD34, symBinAddr: 0x100050390, symSize: 0x104 }
  - { offset: 0x2DACF, size: 0x8, addend: 0x0, symName: __ZNSt3__122__compressed_pair_elemIPKN7testing16MatcherInterfaceIRKNS_12basic_stringIcNS_11char_traitsIcEENS_9allocatorIcEEEEEELi0ELb0EEC2B8ne190107IRSD_TnNS_9enable_ifIXntsr7is_sameISE_u7__decayIT_EEE5valueEiE4typeELi0EEEOSI_, symObjAddr: 0xDE38, symBinAddr: 0x100050494, symSize: 0x124 }
  - { offset: 0x2DB16, size: 0x8, addend: 0x0, symName: __ZNSt3__122__compressed_pair_elemINS_14default_deleteIKN7testing16MatcherInterfaceIRKNS_12basic_stringIcNS_11char_traitsIcEENS_9allocatorIcEEEEEEEELi1ELb1EEC2B8ne190107ENS_16__value_init_tagE, symObjAddr: 0xDF5C, symBinAddr: 0x1000505B8, symSize: 0x48 }
  - { offset: 0x2DB4B, size: 0x8, addend: 0x0, symName: __ZN7testing8internal13SharedPayloadINSt3__110unique_ptrIKNS_16MatcherInterfaceIRKNS2_12basic_stringIcNS2_11char_traitsIcEENS2_9allocatorIcEEEEEENS2_14default_deleteISE_EEEEEC2EOSH_, symObjAddr: 0xDFA4, symBinAddr: 0x100050600, symSize: 0xEC }
  - { offset: 0x2DB83, size: 0x8, addend: 0x0, symName: __ZNSt3__110unique_ptrIKN7testing16MatcherInterfaceIRKNS_12basic_stringIcNS_11char_traitsIcEENS_9allocatorIcEEEEEENS_14default_deleteISC_EEEC1B8ne190107EOSF_, symObjAddr: 0xE0F8, symBinAddr: 0x1000506EC, symSize: 0x6C }
  - { offset: 0x2DBBB, size: 0x8, addend: 0x0, symName: __ZNSt3__110unique_ptrIKN7testing16MatcherInterfaceIRKNS_12basic_stringIcNS_11char_traitsIcEENS_9allocatorIcEEEEEENS_14default_deleteISC_EEEC2B8ne190107EOSF_, symObjAddr: 0xE57C, symBinAddr: 0x100050758, symSize: 0x2A4 }
  - { offset: 0x2DBF5, size: 0x8, addend: 0x0, symName: __ZNSt3__110unique_ptrIKN7testing16MatcherInterfaceIRKNS_12basic_stringIcNS_11char_traitsIcEENS_9allocatorIcEEEEEENS_14default_deleteISC_EEE7releaseB8ne190107Ev, symObjAddr: 0xE820, symBinAddr: 0x1000509FC, symSize: 0x1BC }
  - { offset: 0x2DC2A, size: 0x8, addend: 0x0, symName: __ZNSt3__110unique_ptrIKN7testing16MatcherInterfaceIRKNS_12basic_stringIcNS_11char_traitsIcEENS_9allocatorIcEEEEEENS_14default_deleteISC_EEE11get_deleterB8ne190107Ev, symObjAddr: 0xE9DC, symBinAddr: 0x100050BB8, symSize: 0xB4 }
  - { offset: 0x2DC56, size: 0x8, addend: 0x0, symName: __ZNSt3__117__compressed_pairIPKN7testing16MatcherInterfaceIRKNS_12basic_stringIcNS_11char_traitsIcEENS_9allocatorIcEEEEEENS_14default_deleteISC_EEEC1B8ne190107ISD_SF_EEOT_OT0_, symObjAddr: 0xEA90, symBinAddr: 0x100050C6C, symSize: 0x74 }
  - { offset: 0x2DCAE, size: 0x8, addend: 0x0, symName: __ZNSt3__117__compressed_pairIPKN7testing16MatcherInterfaceIRKNS_12basic_stringIcNS_11char_traitsIcEENS_9allocatorIcEEEEEENS_14default_deleteISC_EEEC2B8ne190107ISD_SF_EEOT_OT0_, symObjAddr: 0xEB04, symBinAddr: 0x100050CE0, symSize: 0x12C }
  - { offset: 0x2DD06, size: 0x8, addend: 0x0, symName: __ZNSt3__122__compressed_pair_elemIPKN7testing16MatcherInterfaceIRKNS_12basic_stringIcNS_11char_traitsIcEENS_9allocatorIcEEEEEELi0ELb0EEC2B8ne190107ISD_TnNS_9enable_ifIXntsr7is_sameISE_u7__decayIT_EEE5valueEiE4typeELi0EEEOSH_, symObjAddr: 0xEC30, symBinAddr: 0x100050E0C, symSize: 0x124 }
  - { offset: 0x2DD4D, size: 0x8, addend: 0x0, symName: __ZNSt3__122__compressed_pair_elemINS_14default_deleteIKN7testing16MatcherInterfaceIRKNS_12basic_stringIcNS_11char_traitsIcEENS_9allocatorIcEEEEEEEELi1ELb1EEC2B8ne190107ISE_TnNS_9enable_ifIXntsr7is_sameISF_u7__decayIT_EEE5valueEiE4typeELi0EEEOSI_, symObjAddr: 0xED54, symBinAddr: 0x100050F30, symSize: 0x4C }
  - { offset: 0x2DD94, size: 0x8, addend: 0x0, symName: __ZN7testing8internal11MatcherBaseIRKNSt3__112basic_stringIcNS2_11char_traitsIcEENS2_9allocatorIcEEEEED2Ev, symObjAddr: 0xEDA0, symBinAddr: 0x100050F7C, symSize: 0x140 }
  - { offset: 0x2DDBE, size: 0x8, addend: 0x0, symName: __ZN7testing8internal11MatcherBaseIRKNSt3__112basic_stringIcNS2_11char_traitsIcEENS2_9allocatorIcEEEEE7DestroyEv, symObjAddr: 0xEEE0, symBinAddr: 0x1000510BC, symSize: 0x468 }
  - { offset: 0x2DDE4, size: 0x8, addend: 0x0, symName: __ZNK7testing8internal11MatcherBaseIRKNSt3__112basic_stringIcNS2_11char_traitsIcEENS2_9allocatorIcEEEEE8IsSharedEv, symObjAddr: 0xF348, symBinAddr: 0x100051524, symSize: 0x27C }
  - { offset: 0x2DE0A, size: 0x8, addend: 0x0, symName: __ZNK7testing8internal11MatcherBaseIRKNSt3__112basic_stringIcNS2_11char_traitsIcEENS2_9allocatorIcEEEEE15MatchAndExplainESA_PNS_19MatchResultListenerE, symObjAddr: 0xFAF8, symBinAddr: 0x1000517A0, symSize: 0x5D4 }
  - { offset: 0x2DEBB, size: 0x8, addend: 0x0, symName: __ZN7testing7MatcherIRKNSt3__112basic_stringIcNS1_11char_traitsIcEENS1_9allocatorIcEEEEED2Ev, symObjAddr: 0x1AF44, symBinAddr: 0x100051DA8, symSize: 0x64 }
  - { offset: 0x2DEE8, size: 0x8, addend: 0x0, symName: __ZN7testing8internal29PredicateFormatterFromMatcherINS_18PolymorphicMatcherINS0_18StrEqualityMatcherINSt3__112basic_stringIcNS4_11char_traitsIcEENS4_9allocatorIcEEEEEEEEED2Ev, symObjAddr: 0x1AFA8, symBinAddr: 0x100051E0C, symSize: 0x64 }
  - { offset: 0x2DF15, size: 0x8, addend: 0x0, symName: __ZN7testing18PolymorphicMatcherINS_8internal18StrEqualityMatcherINSt3__112basic_stringIcNS3_11char_traitsIcEENS3_9allocatorIcEEEEEEED2Ev, symObjAddr: 0x1B00C, symBinAddr: 0x100051E70, symSize: 0x64 }
  - { offset: 0x2DF42, size: 0x8, addend: 0x0, symName: __ZN7testing8internal15TestFactoryImplIN12_GLOBAL__N_130CleanToken_PrefixCleaning_TestEEC2Ev, symObjAddr: 0x1BA28, symBinAddr: 0x100051ED4, symSize: 0xF8 }
  - { offset: 0x2DF6F, size: 0x8, addend: 0x0, symName: __ZN7testing8internal15TestFactoryImplIN12_GLOBAL__N_130CleanToken_PrefixCleaning_TestEED1Ev, symObjAddr: 0x1BB20, symBinAddr: 0x100051FCC, symSize: 0x64 }
  - { offset: 0x2DF9C, size: 0x8, addend: 0x0, symName: __ZN7testing8internal15TestFactoryImplIN12_GLOBAL__N_130CleanToken_PrefixCleaning_TestEED0Ev, symObjAddr: 0x1BB84, symBinAddr: 0x100052030, symSize: 0x68 }
  - { offset: 0x2DFC9, size: 0x8, addend: 0x0, symName: __ZN7testing8internal15TestFactoryImplIN12_GLOBAL__N_130CleanToken_PrefixCleaning_TestEE10CreateTestEv, symObjAddr: 0x1BBEC, symBinAddr: 0x100052098, symSize: 0xFC }
  - { offset: 0x2DFEF, size: 0x8, addend: 0x0, symName: __ZN7testing8internal15TestFactoryImplIN12_GLOBAL__N_130CleanToken_PrefixCleaning_TestEED2Ev, symObjAddr: 0x1BCE8, symBinAddr: 0x100052194, symSize: 0x64 }
  - { offset: 0x2E01C, size: 0x8, addend: 0x0, symName: __ZN12_GLOBAL__N_130CleanToken_PrefixCleaning_TestC1Ev, symObjAddr: 0x1BD4C, symBinAddr: 0x1000521F8, symSize: 0x64 }
  - { offset: 0x2E046, size: 0x8, addend: 0x0, symName: __ZN12_GLOBAL__N_130CleanToken_PrefixCleaning_TestC2Ev, symObjAddr: 0x1BDB0, symBinAddr: 0x10005225C, symSize: 0xF8 }
  - { offset: 0x2E070, size: 0x8, addend: 0x0, symName: __ZN12_GLOBAL__N_130CleanToken_PrefixCleaning_TestD1Ev, symObjAddr: 0x1BEA8, symBinAddr: 0x100052354, symSize: 0x64 }
  - { offset: 0x2E09A, size: 0x8, addend: 0x0, symName: __ZN12_GLOBAL__N_130CleanToken_PrefixCleaning_TestD0Ev, symObjAddr: 0x1BF0C, symBinAddr: 0x1000523B8, symSize: 0x68 }
  - { offset: 0x2E0C4, size: 0x8, addend: 0x0, symName: __ZN12_GLOBAL__N_130CleanToken_PrefixCleaning_Test8TestBodyEv, symObjAddr: 0x1BF74, symBinAddr: 0x100052420, symSize: 0x18D4 }
  - { offset: 0x2E186, size: 0x8, addend: 0x0, symName: __ZN12_GLOBAL__N_130CleanToken_PrefixCleaning_TestD2Ev, symObjAddr: 0x1D848, symBinAddr: 0x100053CF4, symSize: 0x64 }
  - { offset: 0x2E1B0, size: 0x8, addend: 0x0, symName: __ZN7testing8internal15TestFactoryImplIN12_GLOBAL__N_130CleanToken_SuffixCleaning_TestEEC2Ev, symObjAddr: 0x1DEF4, symBinAddr: 0x1000543A0, symSize: 0xF8 }
  - { offset: 0x2E1DD, size: 0x8, addend: 0x0, symName: __ZN7testing8internal15TestFactoryImplIN12_GLOBAL__N_130CleanToken_SuffixCleaning_TestEED1Ev, symObjAddr: 0x1DFEC, symBinAddr: 0x100054498, symSize: 0x64 }
  - { offset: 0x2E20A, size: 0x8, addend: 0x0, symName: __ZN7testing8internal15TestFactoryImplIN12_GLOBAL__N_130CleanToken_SuffixCleaning_TestEED0Ev, symObjAddr: 0x1E050, symBinAddr: 0x1000544FC, symSize: 0x68 }
  - { offset: 0x2E237, size: 0x8, addend: 0x0, symName: __ZN7testing8internal15TestFactoryImplIN12_GLOBAL__N_130CleanToken_SuffixCleaning_TestEE10CreateTestEv, symObjAddr: 0x1E0B8, symBinAddr: 0x100054564, symSize: 0xFC }
  - { offset: 0x2E25D, size: 0x8, addend: 0x0, symName: __ZN7testing8internal15TestFactoryImplIN12_GLOBAL__N_130CleanToken_SuffixCleaning_TestEED2Ev, symObjAddr: 0x1E1B4, symBinAddr: 0x100054660, symSize: 0x64 }
  - { offset: 0x2E28A, size: 0x8, addend: 0x0, symName: __ZN12_GLOBAL__N_130CleanToken_SuffixCleaning_TestC1Ev, symObjAddr: 0x1E218, symBinAddr: 0x1000546C4, symSize: 0x64 }
  - { offset: 0x2E2B4, size: 0x8, addend: 0x0, symName: __ZN12_GLOBAL__N_130CleanToken_SuffixCleaning_TestC2Ev, symObjAddr: 0x1E27C, symBinAddr: 0x100054728, symSize: 0xF8 }
  - { offset: 0x2E2DE, size: 0x8, addend: 0x0, symName: __ZN12_GLOBAL__N_130CleanToken_SuffixCleaning_TestD1Ev, symObjAddr: 0x1E374, symBinAddr: 0x100054820, symSize: 0x64 }
  - { offset: 0x2E308, size: 0x8, addend: 0x0, symName: __ZN12_GLOBAL__N_130CleanToken_SuffixCleaning_TestD0Ev, symObjAddr: 0x1E3D8, symBinAddr: 0x100054884, symSize: 0x68 }
  - { offset: 0x2E332, size: 0x8, addend: 0x0, symName: __ZN12_GLOBAL__N_130CleanToken_SuffixCleaning_Test8TestBodyEv, symObjAddr: 0x1E440, symBinAddr: 0x1000548EC, symSize: 0x18D4 }
  - { offset: 0x2E3F4, size: 0x8, addend: 0x0, symName: __ZN12_GLOBAL__N_130CleanToken_SuffixCleaning_TestD2Ev, symObjAddr: 0x1FD14, symBinAddr: 0x1000561C0, symSize: 0x64 }
  - { offset: 0x2E41E, size: 0x8, addend: 0x0, symName: __ZN7testing8internal15TestFactoryImplIN12_GLOBAL__N_123CleanToken_ToEmpty_TestEEC2Ev, symObjAddr: 0x1FD78, symBinAddr: 0x100056224, symSize: 0xF8 }
  - { offset: 0x2E44B, size: 0x8, addend: 0x0, symName: __ZN7testing8internal15TestFactoryImplIN12_GLOBAL__N_123CleanToken_ToEmpty_TestEED1Ev, symObjAddr: 0x1FE70, symBinAddr: 0x10005631C, symSize: 0x64 }
  - { offset: 0x2E478, size: 0x8, addend: 0x0, symName: __ZN7testing8internal15TestFactoryImplIN12_GLOBAL__N_123CleanToken_ToEmpty_TestEED0Ev, symObjAddr: 0x1FED4, symBinAddr: 0x100056380, symSize: 0x68 }
  - { offset: 0x2E4A5, size: 0x8, addend: 0x0, symName: __ZN7testing8internal15TestFactoryImplIN12_GLOBAL__N_123CleanToken_ToEmpty_TestEE10CreateTestEv, symObjAddr: 0x1FF3C, symBinAddr: 0x1000563E8, symSize: 0xFC }
  - { offset: 0x2E4CB, size: 0x8, addend: 0x0, symName: __ZN7testing8internal15TestFactoryImplIN12_GLOBAL__N_123CleanToken_ToEmpty_TestEED2Ev, symObjAddr: 0x20038, symBinAddr: 0x1000564E4, symSize: 0x64 }
  - { offset: 0x2E4F8, size: 0x8, addend: 0x0, symName: __ZN12_GLOBAL__N_123CleanToken_ToEmpty_TestC1Ev, symObjAddr: 0x2009C, symBinAddr: 0x100056548, symSize: 0x64 }
  - { offset: 0x2E522, size: 0x8, addend: 0x0, symName: __ZN12_GLOBAL__N_123CleanToken_ToEmpty_TestC2Ev, symObjAddr: 0x20100, symBinAddr: 0x1000565AC, symSize: 0xF8 }
  - { offset: 0x2E54C, size: 0x8, addend: 0x0, symName: __ZN12_GLOBAL__N_123CleanToken_ToEmpty_TestD1Ev, symObjAddr: 0x201F8, symBinAddr: 0x1000566A4, symSize: 0x64 }
  - { offset: 0x2E576, size: 0x8, addend: 0x0, symName: __ZN12_GLOBAL__N_123CleanToken_ToEmpty_TestD0Ev, symObjAddr: 0x2025C, symBinAddr: 0x100056708, symSize: 0x68 }
  - { offset: 0x2E5A0, size: 0x8, addend: 0x0, symName: __ZN12_GLOBAL__N_123CleanToken_ToEmpty_Test8TestBodyEv, symObjAddr: 0x202C4, symBinAddr: 0x100056770, symSize: 0x1514 }
  - { offset: 0x2E648, size: 0x8, addend: 0x0, symName: __ZN12_GLOBAL__N_123CleanToken_ToEmpty_TestD2Ev, symObjAddr: 0x217D8, symBinAddr: 0x100057C84, symSize: 0x64 }
  - { offset: 0x2E672, size: 0x8, addend: 0x0, symName: __ZN7testing8internal15TestFactoryImplIN12_GLOBAL__N_125CleanToken_Uppercase_TestEEC2Ev, symObjAddr: 0x21B60, symBinAddr: 0x10005800C, symSize: 0xF8 }
  - { offset: 0x2E69F, size: 0x8, addend: 0x0, symName: __ZN7testing8internal15TestFactoryImplIN12_GLOBAL__N_125CleanToken_Uppercase_TestEED1Ev, symObjAddr: 0x21C58, symBinAddr: 0x100058104, symSize: 0x64 }
  - { offset: 0x2E6CC, size: 0x8, addend: 0x0, symName: __ZN7testing8internal15TestFactoryImplIN12_GLOBAL__N_125CleanToken_Uppercase_TestEED0Ev, symObjAddr: 0x21CBC, symBinAddr: 0x100058168, symSize: 0x68 }
  - { offset: 0x2E6F9, size: 0x8, addend: 0x0, symName: __ZN7testing8internal15TestFactoryImplIN12_GLOBAL__N_125CleanToken_Uppercase_TestEE10CreateTestEv, symObjAddr: 0x21D24, symBinAddr: 0x1000581D0, symSize: 0xFC }
  - { offset: 0x2E71F, size: 0x8, addend: 0x0, symName: __ZN7testing8internal15TestFactoryImplIN12_GLOBAL__N_125CleanToken_Uppercase_TestEED2Ev, symObjAddr: 0x21E20, symBinAddr: 0x1000582CC, symSize: 0x64 }
  - { offset: 0x2E74C, size: 0x8, addend: 0x0, symName: __ZN12_GLOBAL__N_125CleanToken_Uppercase_TestC1Ev, symObjAddr: 0x21E84, symBinAddr: 0x100058330, symSize: 0x64 }
  - { offset: 0x2E776, size: 0x8, addend: 0x0, symName: __ZN12_GLOBAL__N_125CleanToken_Uppercase_TestC2Ev, symObjAddr: 0x21EE8, symBinAddr: 0x100058394, symSize: 0xF8 }
  - { offset: 0x2E7A0, size: 0x8, addend: 0x0, symName: __ZN12_GLOBAL__N_125CleanToken_Uppercase_TestD1Ev, symObjAddr: 0x21FE0, symBinAddr: 0x10005848C, symSize: 0x64 }
  - { offset: 0x2E7CA, size: 0x8, addend: 0x0, symName: __ZN12_GLOBAL__N_125CleanToken_Uppercase_TestD0Ev, symObjAddr: 0x22044, symBinAddr: 0x1000584F0, symSize: 0x68 }
  - { offset: 0x2E7F4, size: 0x8, addend: 0x0, symName: __ZN12_GLOBAL__N_125CleanToken_Uppercase_Test8TestBodyEv, symObjAddr: 0x220AC, symBinAddr: 0x100058558, symSize: 0x18D4 }
  - { offset: 0x2E8B6, size: 0x8, addend: 0x0, symName: __ZN12_GLOBAL__N_125CleanToken_Uppercase_TestD2Ev, symObjAddr: 0x23980, symBinAddr: 0x100059E2C, symSize: 0x64 }
  - { offset: 0x2E8E0, size: 0x8, addend: 0x0, symName: __GLOBAL__sub_I_clean_token_tests.cpp, symObjAddr: 0x25224, symBinAddr: 0x10005B654, symSize: 0x34 }
  - { offset: 0x30913, size: 0x8, addend: 0x0, symName: _.str, symObjAddr: 0x43860, symBinAddr: 0x1001862C0, symSize: 0x0 }
  - { offset: 0x30943, size: 0x8, addend: 0x0, symName: _.str.1, symObjAddr: 0x43880, symBinAddr: 0x1001862E0, symSize: 0x0 }
  - { offset: 0x30960, size: 0x8, addend: 0x0, symName: _.str.2, symObjAddr: 0x438A0, symBinAddr: 0x100186300, symSize: 0x0 }
  - { offset: 0x3097D, size: 0x8, addend: 0x0, symName: _.str.3, symObjAddr: 0x438C0, symBinAddr: 0x100186320, symSize: 0x0 }
  - { offset: 0x3098E, size: 0x8, addend: 0x0, symName: _.str.4, symObjAddr: 0x438E0, symBinAddr: 0x100186340, symSize: 0x0 }
  - { offset: 0x309AB, size: 0x8, addend: 0x0, symName: _.str.5, symObjAddr: 0x43900, symBinAddr: 0x100186360, symSize: 0x0 }
  - { offset: 0x309C8, size: 0x8, addend: 0x0, symName: _.str.6, symObjAddr: 0x43920, symBinAddr: 0x100186380, symSize: 0x0 }
  - { offset: 0x309E5, size: 0x8, addend: 0x0, symName: _.str.7, symObjAddr: 0x43940, symBinAddr: 0x1001863A0, symSize: 0x0 }
  - { offset: 0x30A02, size: 0x8, addend: 0x0, symName: _.str.8, symObjAddr: 0x43960, symBinAddr: 0x1001863C0, symSize: 0x0 }
  - { offset: 0x30A13, size: 0x8, addend: 0x0, symName: _.str.9, symObjAddr: 0x43980, symBinAddr: 0x1001863E0, symSize: 0x0 }
  - { offset: 0x30A30, size: 0x8, addend: 0x0, symName: _.str.10, symObjAddr: 0x439A0, symBinAddr: 0x100186400, symSize: 0x0 }
  - { offset: 0x30A41, size: 0x8, addend: 0x0, symName: _.str.11, symObjAddr: 0x439C0, symBinAddr: 0x100186420, symSize: 0x0 }
  - { offset: 0x30A5E, size: 0x8, addend: 0x0, symName: _.str.12, symObjAddr: 0x439E0, symBinAddr: 0x100186440, symSize: 0x0 }
  - { offset: 0x30A81, size: 0x8, addend: 0x0, symName: __ZN12_GLOBAL__N_15INDEXE, symObjAddr: 0x116B80, symBinAddr: 0x10028C540, symSize: 0x0 }
  - { offset: 0x30A94, size: 0x8, addend: 0x0, symName: __ZN12_GLOBAL__N_132FindQueryMatches_SingleTerm_Test10test_info_E, symObjAddr: 0x116BC0, symBinAddr: 0x10028C580, symSize: 0x0 }
  - { offset: 0x30B60, size: 0x8, addend: 0x0, symName: __ZN12_GLOBAL__N_127FindQueryMatches_Union_Test10test_info_E, symObjAddr: 0x116BE0, symBinAddr: 0x10028C5A0, symSize: 0x0 }
  - { offset: 0x30C2C, size: 0x8, addend: 0x0, symName: __ZN12_GLOBAL__N_134FindQueryMatches_Intersection_Test10test_info_E, symObjAddr: 0x116C00, symBinAddr: 0x10028C5C0, symSize: 0x0 }
  - { offset: 0x30CF8, size: 0x8, addend: 0x0, symName: __ZN12_GLOBAL__N_132FindQueryMatches_Difference_Test10test_info_E, symObjAddr: 0x116C20, symBinAddr: 0x10028C5E0, symSize: 0x0 }
  - { offset: 0x30DC4, size: 0x8, addend: 0x0, symName: __ZN12_GLOBAL__N_141FindQueryMatches_LongCombinedQueries_Test10test_info_E, symObjAddr: 0x116C40, symBinAddr: 0x10028C600, symSize: 0x0 }
  - { offset: 0x395A3, size: 0x8, addend: 0x0, symName: __ZNSt3__111__tree_leafB8ne190107IPNS_16__tree_node_baseIPvEEEET_S5_, symObjAddr: 0x15DB0, symBinAddr: 0x100060CC0, symSize: 0x374 }
  - { offset: 0x395D8, size: 0x8, addend: 0x0, symName: __ZNSt3__13getB8ne190107ILm1EJPKN7testing8internal11MatcherBaseIRKNS_3setINS_12basic_stringIcNS_11char_traitsIcEENS_9allocatorIcEEEENS_4lessISA_EENS8_ISA_EEEEEEPKNS1_16MatcherInterfaceISG_EEEEEONS_13tuple_elementIXT_ENS_5tupleIJDpT0_EEEE4typeEOSS_, symObjAddr: 0x2285C, symBinAddr: 0x1000676B0, symSize: 0xC8 }
  - { offset: 0x39620, size: 0x8, addend: 0x0, symName: __ZNSt3__110make_tupleB8ne190107IJPKN7testing8internal11MatcherBaseIRKNS_3setINS_12basic_stringIcNS_11char_traitsIcEENS_9allocatorIcEEEENS_4lessISA_EENS8_ISA_EEEEEEPKNS1_16MatcherInterfaceISG_EEEEENS_5tupleIJDpNS_18__unwrap_ref_decayIT_E4typeEEEEDpOSQ_, symObjAddr: 0x2292C, symBinAddr: 0x100067780, symSize: 0x230 }
  - { offset: 0x3AC68, size: 0x8, addend: 0x0, symName: _.str.14, symObjAddr: 0x43A00, symBinAddr: 0x100186460, symSize: 0x0 }
  - { offset: 0x3AC85, size: 0x8, addend: 0x0, symName: _.str.15, symObjAddr: 0x43A40, symBinAddr: 0x1001864A0, symSize: 0x0 }
  - { offset: 0x3B3FD, size: 0x8, addend: 0x0, symName: __ZN7testing8internal33MakePredicateFormatterFromMatcherINS_18PolymorphicMatcherINS0_18ContainerEqMatcherINSt3__13setINS4_12basic_stringIcNS4_11char_traitsIcEENS4_9allocatorIcEEEENS4_4lessISB_EENS9_ISB_EEEEEEEEEENS0_29PredicateFormatterFromMatcherIT_EESJ_, symObjAddr: 0x11B24, symBinAddr: 0x10005D46C, symSize: 0x2D8 }
  - { offset: 0x3B436, size: 0x8, addend: 0x0, symName: __ZN7testing8internal20MatchPrintAndExplainIKNSt3__13setINS2_12basic_stringIcNS2_11char_traitsIcEENS2_9allocatorIcEEEENS2_4lessIS9_EENS7_IS9_EEEERSE_EEbRT_RKNS_7MatcherIT0_EEPNS_19MatchResultListenerE, symObjAddr: 0x181F4, symBinAddr: 0x100062C5C, symSize: 0xC3C }
  - { offset: 0x3B568, size: 0x8, addend: 0x0, symName: __ZN7testing8internal14UniversalPrintINSt3__13setINS2_12basic_stringIcNS2_11char_traitsIcEENS2_9allocatorIcEEEENS2_4lessIS9_EENS7_IS9_EEEEEEvRKT_PNS2_13basic_ostreamIcS6_EE, symObjAddr: 0x1A7A0, symBinAddr: 0x100064608, symSize: 0x64 }
  - { offset: 0x3B5AA, size: 0x8, addend: 0x0, symName: __ZN7testing8internal14ArrayAwareFindINSt3__121__tree_const_iteratorINS2_12basic_stringIcNS2_11char_traitsIcEENS2_9allocatorIcEEEEPNS2_11__tree_nodeIS9_PvEElEES9_EET_SF_SF_RKT0_, symObjAddr: 0x1F934, symBinAddr: 0x100065378, symSize: 0x2CC }
  - { offset: 0x3B62F, size: 0x8, addend: 0x0, symName: __ZN7testing8internal7ArrayEqINSt3__112basic_stringIcNS2_11char_traitsIcEENS2_9allocatorIcEEEES8_EEbRKT_RKT0_, symObjAddr: 0x207F8, symBinAddr: 0x10006564C, symSize: 0x9C }
  - { offset: 0x3B67E, size: 0x8, addend: 0x0, symName: __ZN7testing8internal11GetTypeNameIKNSt3__13setINS2_12basic_stringIcNS2_11char_traitsIcEENS2_9allocatorIcEEEENS2_4lessIS9_EENS7_IS9_EEEEEES9_v, symObjAddr: 0x27AFC, symBinAddr: 0x10006A544, symSize: 0x2C }
  - { offset: 0x3C028, size: 0x8, addend: 0x0, symName: __ZN7testing11ContainerEqINSt3__13setINS1_12basic_stringIcNS1_11char_traitsIcEENS1_9allocatorIcEEEENS1_4lessIS8_EENS6_IS8_EEEEEENS_18PolymorphicMatcherINS_8internal18ContainerEqMatcherINS1_12remove_constIT_E4typeEEEEERKSH_, symObjAddr: 0x11E04, symBinAddr: 0x10005D74C, symSize: 0x2EC }
  - { offset: 0x3C060, size: 0x8, addend: 0x0, symName: __ZN7testing22MakePolymorphicMatcherINS_8internal18ContainerEqMatcherINSt3__13setINS3_12basic_stringIcNS3_11char_traitsIcEENS3_9allocatorIcEEEENS3_4lessISA_EENS8_ISA_EEEEEEEENS_18PolymorphicMatcherIT_EERKSH_, symObjAddr: 0x16EB0, symBinAddr: 0x100061DC0, symSize: 0x9C }
  - { offset: 0x3C097, size: 0x8, addend: 0x0, symName: __ZN7testing15SafeMatcherCastIRKNSt3__13setINS1_12basic_stringIcNS1_11char_traitsIcEENS1_9allocatorIcEEEENS1_4lessIS8_EENS6_IS8_EEEENS_18PolymorphicMatcherINS_8internal18ContainerEqMatcherISC_EEEEEENS_7MatcherIT_EERKT0_, symObjAddr: 0x173F0, symBinAddr: 0x100062300, symSize: 0x68 }
  - { offset: 0x3C176, size: 0x8, addend: 0x0, symName: __ZN7testing11MatcherCastIRKNSt3__13setINS1_12basic_stringIcNS1_11char_traitsIcEENS1_9allocatorIcEEEENS1_4lessIS8_EENS6_IS8_EEEENS_18PolymorphicMatcherINS_8internal18ContainerEqMatcherISC_EEEEEENS_7MatcherIT_EERKT0_, symObjAddr: 0x19704, symBinAddr: 0x100063904, symSize: 0x68 }
  - { offset: 0x3C3A1, size: 0x8, addend: 0x0, symName: _.str.17, symObjAddr: 0x43A60, symBinAddr: 0x1001864C0, symSize: 0x0 }
  - { offset: 0x3C3CE, size: 0x8, addend: 0x0, symName: _.str.19, symObjAddr: 0x43A80, symBinAddr: 0x1001864E0, symSize: 0x0 }
  - { offset: 0x3C407, size: 0x8, addend: 0x0, symName: _.str.21, symObjAddr: 0x43AA0, symBinAddr: 0x100186500, symSize: 0x0 }
  - { offset: 0x3C434, size: 0x8, addend: 0x0, symName: _.str.23, symObjAddr: 0x43AC0, symBinAddr: 0x100186520, symSize: 0x0 }
  - { offset: 0x3C46D, size: 0x8, addend: 0x0, symName: _.str.41, symObjAddr: 0x43BE0, symBinAddr: 0x100186640, symSize: 0x0 }
  - { offset: 0x3C48A, size: 0x8, addend: 0x0, symName: _.str.42, symObjAddr: 0x43C40, symBinAddr: 0x1001866A0, symSize: 0x0 }
  - { offset: 0x3C49B, size: 0x8, addend: 0x0, symName: _.str.43, symObjAddr: 0x43CA0, symBinAddr: 0x100186700, symSize: 0x0 }
  - { offset: 0x3C4B8, size: 0x8, addend: 0x0, symName: _.str.44, symObjAddr: 0x43D00, symBinAddr: 0x100186760, symSize: 0x0 }
  - { offset: 0x3C4D7, size: 0x8, addend: 0x0, symName: _.str.49, symObjAddr: 0x43D20, symBinAddr: 0x100186780, symSize: 0x0 }
  - { offset: 0x3C4EA, size: 0x8, addend: 0x0, symName: _.str.50, symObjAddr: 0x43D40, symBinAddr: 0x1001867A0, symSize: 0x0 }
  - { offset: 0x3C4FD, size: 0x8, addend: 0x0, symName: _.str.51, symObjAddr: 0x43D60, symBinAddr: 0x1001867C0, symSize: 0x0 }
  - { offset: 0x3C510, size: 0x8, addend: 0x0, symName: _.str.52, symObjAddr: 0x43D80, symBinAddr: 0x1001867E0, symSize: 0x0 }
  - { offset: 0x3C52F, size: 0x8, addend: 0x0, symName: _.str.53, symObjAddr: 0x43E20, symBinAddr: 0x100186880, symSize: 0x0 }
  - { offset: 0x3C540, size: 0x8, addend: 0x0, symName: _.str.54, symObjAddr: 0x43E40, symBinAddr: 0x1001868A0, symSize: 0x0 }
  - { offset: 0x3C551, size: 0x8, addend: 0x0, symName: _.str.55, symObjAddr: 0x43E60, symBinAddr: 0x1001868C0, symSize: 0x0 }
  - { offset: 0x3C564, size: 0x8, addend: 0x0, symName: _.str.56, symObjAddr: 0x43E80, symBinAddr: 0x1001868E0, symSize: 0x0 }
  - { offset: 0x3C575, size: 0x8, addend: 0x0, symName: _.str.58, symObjAddr: 0x43EA0, symBinAddr: 0x100186900, symSize: 0x0 }
  - { offset: 0x3C588, size: 0x8, addend: 0x0, symName: _.str.65, symObjAddr: 0x43EC0, symBinAddr: 0x100186920, symSize: 0x0 }
  - { offset: 0x3C5A7, size: 0x8, addend: 0x0, symName: _.str.66, symObjAddr: 0x43EE0, symBinAddr: 0x100186940, symSize: 0x0 }
  - { offset: 0x3C5BA, size: 0x8, addend: 0x0, symName: _.str.67, symObjAddr: 0x43F00, symBinAddr: 0x100186960, symSize: 0x0 }
  - { offset: 0x3C5D9, size: 0x8, addend: 0x0, symName: _.str.68, symObjAddr: 0x43F60, symBinAddr: 0x1001869C0, symSize: 0x0 }
  - { offset: 0x3C5EC, size: 0x8, addend: 0x0, symName: _.str.69, symObjAddr: 0x43F80, symBinAddr: 0x1001869E0, symSize: 0x0 }
  - { offset: 0x3C5FF, size: 0x8, addend: 0x0, symName: _.str.70, symObjAddr: 0x43FA0, symBinAddr: 0x100186A00, symSize: 0x0 }
  - { offset: 0x3C7FB, size: 0x8, addend: 0x0, symName: __ZN7testing8internal11MatcherBaseIRKNSt3__13setINS2_12basic_stringIcNS2_11char_traitsIcEENS2_9allocatorIcEEEENS2_4lessIS9_EENS7_IS9_EEEEE9GetVTableINSG_11ValuePolicyIPKNS_16MatcherInterfaceISF_EELb1EEEEEPKNSG_6VTableEv, symObjAddr: 0x21654, symBinAddr: 0x1000664A8, symSize: 0x5C }
  - { offset: 0x3C820, size: 0x8, addend: 0x0, symName: __ZZN7testing8internal11MatcherBaseIRKNSt3__13setINS2_12basic_stringIcNS2_11char_traitsIcEENS2_9allocatorIcEEEENS2_4lessIS9_EENS7_IS9_EEEEE9GetVTableINSG_11ValuePolicyIPKNS_16MatcherInterfaceISF_EELb1EEEEEPKNSG_6VTableEvE7kVTable, symObjAddr: 0x632E8, symBinAddr: 0x1002057C8, symSize: 0x0 }
  - { offset: 0x3C84D, size: 0x8, addend: 0x0, symName: _.str.76, symObjAddr: 0x44000, symBinAddr: 0x100186A60, symSize: 0x0 }
  - { offset: 0x3C860, size: 0x8, addend: 0x0, symName: _.str.80, symObjAddr: 0x44060, symBinAddr: 0x100186AC0, symSize: 0x0 }
  - { offset: 0x3C871, size: 0x8, addend: 0x0, symName: _.str.83, symObjAddr: 0x44080, symBinAddr: 0x100186AE0, symSize: 0x0 }
  - { offset: 0x3C884, size: 0x8, addend: 0x0, symName: _.str.85, symObjAddr: 0x440A0, symBinAddr: 0x100186B00, symSize: 0x0 }
  - { offset: 0x3C895, size: 0x8, addend: 0x0, symName: _.str.89, symObjAddr: 0x4F840, symBinAddr: 0x1001AFEE0, symSize: 0x0 }
  - { offset: 0x3C8B2, size: 0x8, addend: 0x0, symName: _.str.91, symObjAddr: 0x441A0, symBinAddr: 0x100186C00, symSize: 0x0 }
  - { offset: 0x3C8CF, size: 0x8, addend: 0x0, symName: _.str.92, symObjAddr: 0x44200, symBinAddr: 0x100186C60, symSize: 0x0 }
  - { offset: 0x3C8E0, size: 0x8, addend: 0x0, symName: _.str.93, symObjAddr: 0x44220, symBinAddr: 0x100186C80, symSize: 0x0 }
  - { offset: 0x3C8FD, size: 0x8, addend: 0x0, symName: _.str.94, symObjAddr: 0x44280, symBinAddr: 0x100186CE0, symSize: 0x0 }
  - { offset: 0x3C90E, size: 0x8, addend: 0x0, symName: _.str.95, symObjAddr: 0x442C0, symBinAddr: 0x100186D20, symSize: 0x0 }
  - { offset: 0x3C92B, size: 0x8, addend: 0x0, symName: _.str.96, symObjAddr: 0x44320, symBinAddr: 0x100186D80, symSize: 0x0 }
  - { offset: 0x3C948, size: 0x8, addend: 0x0, symName: _.str.97, symObjAddr: 0x44440, symBinAddr: 0x100186EA0, symSize: 0x0 }
  - { offset: 0x3C959, size: 0x8, addend: 0x0, symName: _.str.98, symObjAddr: 0x444A0, symBinAddr: 0x100186F00, symSize: 0x0 }
  - { offset: 0x3C96A, size: 0x8, addend: 0x0, symName: _.str.99, symObjAddr: 0x444C0, symBinAddr: 0x100186F20, symSize: 0x0 }
  - { offset: 0x3C97B, size: 0x8, addend: 0x0, symName: _.str.100, symObjAddr: 0x44520, symBinAddr: 0x100186F80, symSize: 0x0 }
  - { offset: 0x3C98C, size: 0x8, addend: 0x0, symName: _.str.101, symObjAddr: 0x44540, symBinAddr: 0x100186FA0, symSize: 0x0 }
  - { offset: 0x3C9A9, size: 0x8, addend: 0x0, symName: _.str.102, symObjAddr: 0x445A0, symBinAddr: 0x100187000, symSize: 0x0 }
  - { offset: 0x3C9C6, size: 0x8, addend: 0x0, symName: _.str.103, symObjAddr: 0x445C0, symBinAddr: 0x100187020, symSize: 0x0 }
  - { offset: 0x3C9E3, size: 0x8, addend: 0x0, symName: _.str.104, symObjAddr: 0x44620, symBinAddr: 0x100187080, symSize: 0x0 }
  - { offset: 0x3C9F4, size: 0x8, addend: 0x0, symName: _.str.105, symObjAddr: 0x44720, symBinAddr: 0x100187180, symSize: 0x0 }
  - { offset: 0x3CA11, size: 0x8, addend: 0x0, symName: _.str.106, symObjAddr: 0x44780, symBinAddr: 0x1001871E0, symSize: 0x0 }
  - { offset: 0x3CA22, size: 0x8, addend: 0x0, symName: _.str.107, symObjAddr: 0x447A0, symBinAddr: 0x100187200, symSize: 0x0 }
  - { offset: 0x3CA33, size: 0x8, addend: 0x0, symName: _.str.108, symObjAddr: 0x44800, symBinAddr: 0x100187260, symSize: 0x0 }
  - { offset: 0x3CA44, size: 0x8, addend: 0x0, symName: _.str.109, symObjAddr: 0x44820, symBinAddr: 0x100187280, symSize: 0x0 }
  - { offset: 0x3CA55, size: 0x8, addend: 0x0, symName: _.str.110, symObjAddr: 0x44880, symBinAddr: 0x1001872E0, symSize: 0x0 }
  - { offset: 0x3CA66, size: 0x8, addend: 0x0, symName: _.str.111, symObjAddr: 0x448A0, symBinAddr: 0x100187300, symSize: 0x0 }
  - { offset: 0x3CA77, size: 0x8, addend: 0x0, symName: _.str.112, symObjAddr: 0x44900, symBinAddr: 0x100187360, symSize: 0x0 }
  - { offset: 0x3CA88, size: 0x8, addend: 0x0, symName: _.str.113, symObjAddr: 0x44920, symBinAddr: 0x100187380, symSize: 0x0 }
  - { offset: 0x3CA99, size: 0x8, addend: 0x0, symName: _.str.114, symObjAddr: 0x44980, symBinAddr: 0x1001873E0, symSize: 0x0 }
  - { offset: 0x3CAAA, size: 0x8, addend: 0x0, symName: _.str.115, symObjAddr: 0x44AA0, symBinAddr: 0x100187500, symSize: 0x0 }
  - { offset: 0x3CAC7, size: 0x8, addend: 0x0, symName: _.str.116, symObjAddr: 0x44B00, symBinAddr: 0x100187560, symSize: 0x0 }
  - { offset: 0x3CAE4, size: 0x8, addend: 0x0, symName: _.str.117, symObjAddr: 0x44B40, symBinAddr: 0x1001875A0, symSize: 0x0 }
  - { offset: 0x3CB01, size: 0x8, addend: 0x0, symName: _.str.118, symObjAddr: 0x44BA0, symBinAddr: 0x100187600, symSize: 0x0 }
  - { offset: 0x3CB1E, size: 0x8, addend: 0x0, symName: _.str.119, symObjAddr: 0x44BC0, symBinAddr: 0x100187620, symSize: 0x0 }
  - { offset: 0x3CB3B, size: 0x8, addend: 0x0, symName: _.str.120, symObjAddr: 0x44C20, symBinAddr: 0x100187680, symSize: 0x0 }
  - { offset: 0x3CB5A, size: 0x8, addend: 0x0, symName: _.str.122, symObjAddr: 0x44C60, symBinAddr: 0x1001876C0, symSize: 0x0 }
  - { offset: 0x3CB79, size: 0x8, addend: 0x0, symName: _.str.123, symObjAddr: 0x44CC0, symBinAddr: 0x100187720, symSize: 0x0 }
  - { offset: 0x3CB98, size: 0x8, addend: 0x0, symName: _.str.124, symObjAddr: 0x44D60, symBinAddr: 0x1001877C0, symSize: 0x0 }
  - { offset: 0x3CBAB, size: 0x8, addend: 0x0, symName: _.str.125, symObjAddr: 0x44D80, symBinAddr: 0x1001877E0, symSize: 0x0 }
  - { offset: 0x3CCBC, size: 0x8, addend: 0x0, symName: ___cxx_global_var_init, symObjAddr: 0x3E9B4, symBinAddr: 0x100071C34, symSize: 0x27A0 }
  - { offset: 0x3CCD5, size: 0x8, addend: 0x0, symName: ___cxx_global_var_init.13, symObjAddr: 0x41154, symBinAddr: 0x1000743D4, symSize: 0x4A4 }
  - { offset: 0x3CCF5, size: 0x8, addend: 0x0, symName: __ZN7testing8internal15TestFactoryImplIN12_GLOBAL__N_132FindQueryMatches_SingleTerm_TestEEC1Ev, symObjAddr: 0xD84, symBinAddr: 0x10005B688, symSize: 0x64 }
  - { offset: 0x3CD22, size: 0x8, addend: 0x0, symName: ___cxx_global_var_init.16, symObjAddr: 0x415F8, symBinAddr: 0x100074878, symSize: 0x4A4 }
  - { offset: 0x3CD3B, size: 0x8, addend: 0x0, symName: __ZN7testing8internal15TestFactoryImplIN12_GLOBAL__N_127FindQueryMatches_Union_TestEEC1Ev, symObjAddr: 0xE4C, symBinAddr: 0x10005B6EC, symSize: 0x64 }
  - { offset: 0x3CD68, size: 0x8, addend: 0x0, symName: ___cxx_global_var_init.18, symObjAddr: 0x41A9C, symBinAddr: 0x100074D1C, symSize: 0x4A4 }
  - { offset: 0x3CD81, size: 0x8, addend: 0x0, symName: __ZN7testing8internal15TestFactoryImplIN12_GLOBAL__N_134FindQueryMatches_Intersection_TestEEC1Ev, symObjAddr: 0xEB0, symBinAddr: 0x10005B750, symSize: 0x64 }
  - { offset: 0x3CDAE, size: 0x8, addend: 0x0, symName: ___cxx_global_var_init.20, symObjAddr: 0x41F40, symBinAddr: 0x1000751C0, symSize: 0x4A4 }
  - { offset: 0x3CDC7, size: 0x8, addend: 0x0, symName: __ZN7testing8internal15TestFactoryImplIN12_GLOBAL__N_132FindQueryMatches_Difference_TestEEC1Ev, symObjAddr: 0xF14, symBinAddr: 0x10005B7B4, symSize: 0x64 }
  - { offset: 0x3CDF4, size: 0x8, addend: 0x0, symName: ___cxx_global_var_init.22, symObjAddr: 0x423E4, symBinAddr: 0x100075664, symSize: 0x4A4 }
  - { offset: 0x3CE0D, size: 0x8, addend: 0x0, symName: __ZN7testing8internal15TestFactoryImplIN12_GLOBAL__N_141FindQueryMatches_LongCombinedQueries_TestEEC1Ev, symObjAddr: 0xF78, symBinAddr: 0x10005B818, symSize: 0x64 }
  - { offset: 0x3CE51, size: 0x8, addend: 0x0, symName: __ZN7testing8internal15TestFactoryImplIN12_GLOBAL__N_132FindQueryMatches_SingleTerm_TestEEC2Ev, symObjAddr: 0xFD28, symBinAddr: 0x10005B87C, symSize: 0xF8 }
  - { offset: 0x3CE7E, size: 0x8, addend: 0x0, symName: __ZN7testing8internal15TestFactoryImplIN12_GLOBAL__N_132FindQueryMatches_SingleTerm_TestEED1Ev, symObjAddr: 0xFED4, symBinAddr: 0x10005B974, symSize: 0x64 }
  - { offset: 0x3CEAB, size: 0x8, addend: 0x0, symName: __ZN7testing8internal15TestFactoryImplIN12_GLOBAL__N_132FindQueryMatches_SingleTerm_TestEED0Ev, symObjAddr: 0xFF38, symBinAddr: 0x10005B9D8, symSize: 0x68 }
  - { offset: 0x3CED8, size: 0x8, addend: 0x0, symName: __ZN7testing8internal15TestFactoryImplIN12_GLOBAL__N_132FindQueryMatches_SingleTerm_TestEE10CreateTestEv, symObjAddr: 0xFFA0, symBinAddr: 0x10005BA40, symSize: 0xFC }
  - { offset: 0x3CEFE, size: 0x8, addend: 0x0, symName: __ZN7testing8internal15TestFactoryImplIN12_GLOBAL__N_132FindQueryMatches_SingleTerm_TestEED2Ev, symObjAddr: 0x10140, symBinAddr: 0x10005BB3C, symSize: 0x64 }
  - { offset: 0x3CF2B, size: 0x8, addend: 0x0, symName: __ZN12_GLOBAL__N_132FindQueryMatches_SingleTerm_TestC1Ev, symObjAddr: 0x10200, symBinAddr: 0x10005BBA0, symSize: 0x64 }
  - { offset: 0x3CF55, size: 0x8, addend: 0x0, symName: __ZN12_GLOBAL__N_132FindQueryMatches_SingleTerm_TestC2Ev, symObjAddr: 0x10264, symBinAddr: 0x10005BC04, symSize: 0xF8 }
  - { offset: 0x3CF7F, size: 0x8, addend: 0x0, symName: __ZN12_GLOBAL__N_132FindQueryMatches_SingleTerm_TestD1Ev, symObjAddr: 0x1035C, symBinAddr: 0x10005BCFC, symSize: 0x64 }
  - { offset: 0x3CFA9, size: 0x8, addend: 0x0, symName: __ZN12_GLOBAL__N_132FindQueryMatches_SingleTerm_TestD0Ev, symObjAddr: 0x103C0, symBinAddr: 0x10005BD60, symSize: 0x68 }
  - { offset: 0x3CFD3, size: 0x8, addend: 0x0, symName: __ZN12_GLOBAL__N_132FindQueryMatches_SingleTerm_Test8TestBodyEv, symObjAddr: 0x10428, symBinAddr: 0x10005BDC8, symSize: 0x1360 }
  - { offset: 0x3D05A, size: 0x8, addend: 0x0, symName: __ZN12_GLOBAL__N_132FindQueryMatches_SingleTerm_TestD2Ev, symObjAddr: 0x117E0, symBinAddr: 0x10005D128, symSize: 0x64 }
  - { offset: 0x3D084, size: 0x8, addend: 0x0, symName: __ZNSt3__13setINS_12basic_stringIcNS_11char_traitsIcEENS_9allocatorIcEEEENS_4lessIS6_EENS4_IS6_EEEC1B8ne190107Ev, symObjAddr: 0x11844, symBinAddr: 0x10005D18C, symSize: 0x64 }
  - { offset: 0x3D0AE, size: 0x8, addend: 0x0, symName: __ZNSt3__13setINS_12basic_stringIcNS_11char_traitsIcEENS_9allocatorIcEEEENS_4lessIS6_EENS4_IS6_EEEaSB8ne190107ESt16initializer_listIS6_E, symObjAddr: 0x118A8, symBinAddr: 0x10005D1F0, symSize: 0x274 }
  - { offset: 0x3D205, size: 0x8, addend: 0x0, symName: __ZNK7testing8internal29PredicateFormatterFromMatcherINS_18PolymorphicMatcherINS0_18ContainerEqMatcherINSt3__13setINS4_12basic_stringIcNS4_11char_traitsIcEENS4_9allocatorIcEEEENS4_4lessISB_EENS9_ISB_EEEEEEEEEclISF_EENS_15AssertionResultEPKcRKT_, symObjAddr: 0x120F0, symBinAddr: 0x10005DA38, symSize: 0xCC8 }
  - { offset: 0x3D28F, size: 0x8, addend: 0x0, symName: __ZN7testing8internal29PredicateFormatterFromMatcherINS_18PolymorphicMatcherINS0_18ContainerEqMatcherINSt3__13setINS4_12basic_stringIcNS4_11char_traitsIcEENS4_9allocatorIcEEEENS4_4lessISB_EENS9_ISB_EEEEEEEEED1Ev, symObjAddr: 0x12DB8, symBinAddr: 0x10005E700, symSize: 0x64 }
  - { offset: 0x3D2BC, size: 0x8, addend: 0x0, symName: __ZN7testing18PolymorphicMatcherINS_8internal18ContainerEqMatcherINSt3__13setINS3_12basic_stringIcNS3_11char_traitsIcEENS3_9allocatorIcEEEENS3_4lessISA_EENS8_ISA_EEEEEEED1Ev, symObjAddr: 0x12E1C, symBinAddr: 0x10005E764, symSize: 0x64 }
  - { offset: 0x3D2E9, size: 0x8, addend: 0x0, symName: __ZNSt3__13setINS_12basic_stringIcNS_11char_traitsIcEENS_9allocatorIcEEEENS_4lessIS6_EENS4_IS6_EEEC2B8ne190107Ev, symObjAddr: 0x1308C, symBinAddr: 0x10005E7C8, symSize: 0x204 }
  - { offset: 0x3D314, size: 0x8, addend: 0x0, symName: __ZNSt3__16__treeINS_12basic_stringIcNS_11char_traitsIcEENS_9allocatorIcEEEENS_4lessIS6_EENS4_IS6_EEE15__assign_uniqueIPKS6_EEvT_SE_, symObjAddr: 0x1389C, symBinAddr: 0x10005E9CC, symSize: 0x648 }
  - { offset: 0x3D39E, size: 0x8, addend: 0x0, symName: __ZNSt3__16__treeINS_12basic_stringIcNS_11char_traitsIcEENS_9allocatorIcEEEENS_4lessIS6_EENS4_IS6_EEE18_DetachedTreeCacheC1B8ne190107EPSA_, symObjAddr: 0x14104, symBinAddr: 0x10005F014, symSize: 0x6C }
  - { offset: 0x3D3D7, size: 0x8, addend: 0x0, symName: __ZNKSt3__16__treeINS_12basic_stringIcNS_11char_traitsIcEENS_9allocatorIcEEEENS_4lessIS6_EENS4_IS6_EEE18_DetachedTreeCache5__getB8ne190107Ev, symObjAddr: 0x14170, symBinAddr: 0x10005F080, symSize: 0xA0 }
  - { offset: 0x3D3FD, size: 0x8, addend: 0x0, symName: __ZNSt3__16__treeINS_12basic_stringIcNS_11char_traitsIcEENS_9allocatorIcEEEENS_4lessIS6_EENS4_IS6_EEE20__node_assign_uniqueERKS6_PNS_11__tree_nodeIS6_PvEE, symObjAddr: 0x14210, symBinAddr: 0x10005F120, symSize: 0x59C }
  - { offset: 0x3D48C, size: 0x8, addend: 0x0, symName: __ZNSt3__16__treeINS_12basic_stringIcNS_11char_traitsIcEENS_9allocatorIcEEEENS_4lessIS6_EENS4_IS6_EEE18_DetachedTreeCache9__advanceB8ne190107Ev, symObjAddr: 0x147AC, symBinAddr: 0x10005F6BC, symSize: 0x188 }
  - { offset: 0x3D4B2, size: 0x8, addend: 0x0, symName: __ZNSt3__16__treeINS_12basic_stringIcNS_11char_traitsIcEENS_9allocatorIcEEEENS_4lessIS6_EENS4_IS6_EEE18_DetachedTreeCacheD1B8ne190107Ev, symObjAddr: 0x14934, symBinAddr: 0x10005F844, symSize: 0x64 }
  - { offset: 0x3D4DC, size: 0x8, addend: 0x0, symName: __ZNSt3__16__treeINS_12basic_stringIcNS_11char_traitsIcEENS_9allocatorIcEEEENS_4lessIS6_EENS4_IS6_EEE15__insert_uniqueB8ne190107ERKS6_, symObjAddr: 0x14998, symBinAddr: 0x10005F8A8, symSize: 0x178 }
  - { offset: 0x3D511, size: 0x8, addend: 0x0, symName: __ZNSt3__16__treeINS_12basic_stringIcNS_11char_traitsIcEENS_9allocatorIcEEEENS_4lessIS6_EENS4_IS6_EEE18_DetachedTreeCacheC2B8ne190107EPSA_, symObjAddr: 0x14B10, symBinAddr: 0x10005FA20, symSize: 0x104 }
  - { offset: 0x3D54A, size: 0x8, addend: 0x0, symName: __ZNSt3__16__treeINS_12basic_stringIcNS_11char_traitsIcEENS_9allocatorIcEEEENS_4lessIS6_EENS4_IS6_EEE18_DetachedTreeCache18__detach_from_treeEPSA_, symObjAddr: 0x14C1C, symBinAddr: 0x10005FB2C, symSize: 0x740 }
  - { offset: 0x3D57D, size: 0x8, addend: 0x0, symName: __ZNSt3__16__treeINS_12basic_stringIcNS_11char_traitsIcEENS_9allocatorIcEEEENS_4lessIS6_EENS4_IS6_EEE18_DetachedTreeCache13__detach_nextEPNS_11__tree_nodeIS6_PvEE, symObjAddr: 0x15364, symBinAddr: 0x100060274, symSize: 0xA44 }
  - { offset: 0x3D5A1, size: 0x8, addend: 0x0, symName: __ZNSt3__16__treeINS_12basic_stringIcNS_11char_traitsIcEENS_9allocatorIcEEEENS_4lessIS6_EENS4_IS6_EEE18_DetachedTreeCacheD2B8ne190107Ev, symObjAddr: 0x16124, symBinAddr: 0x100061034, symSize: 0x494 }
  - { offset: 0x3D5CB, size: 0x8, addend: 0x0, symName: __ZNSt3__16__treeINS_12basic_stringIcNS_11char_traitsIcEENS_9allocatorIcEEEENS_4lessIS6_EENS4_IS6_EEE25__emplace_unique_key_argsIS6_JRKS6_EEENS_4pairINS_15__tree_iteratorIS6_PNS_11__tree_nodeIS6_PvEElEEbEERKT_DpOT0_, symObjAddr: 0x165B8, symBinAddr: 0x1000614C8, symSize: 0x554 }
  - { offset: 0x3D68C, size: 0x8, addend: 0x0, symName: __ZN7testing18PolymorphicMatcherINS_8internal18ContainerEqMatcherINSt3__13setINS3_12basic_stringIcNS3_11char_traitsIcEENS3_9allocatorIcEEEENS3_4lessISA_EENS8_ISA_EEEEEEEC1EOSG_, symObjAddr: 0x16B0C, symBinAddr: 0x100061A1C, symSize: 0x6C }
  - { offset: 0x3D6C2, size: 0x8, addend: 0x0, symName: __ZN7testing8internal29PredicateFormatterFromMatcherINS_18PolymorphicMatcherINS0_18ContainerEqMatcherINSt3__13setINS4_12basic_stringIcNS4_11char_traitsIcEENS4_9allocatorIcEEEENS4_4lessISB_EENS9_ISB_EEEEEEEEEC1ESH_, symObjAddr: 0x16B78, symBinAddr: 0x100061A88, symSize: 0x70 }
  - { offset: 0x3D6FC, size: 0x8, addend: 0x0, symName: __ZN7testing18PolymorphicMatcherINS_8internal18ContainerEqMatcherINSt3__13setINS3_12basic_stringIcNS3_11char_traitsIcEENS3_9allocatorIcEEEENS3_4lessISA_EENS8_ISA_EEEEEEEC2EOSG_, symObjAddr: 0x16BE8, symBinAddr: 0x100061AF8, symSize: 0xD8 }
  - { offset: 0x3D738, size: 0x8, addend: 0x0, symName: __ZN7testing8internal18ContainerEqMatcherINSt3__13setINS2_12basic_stringIcNS2_11char_traitsIcEENS2_9allocatorIcEEEENS2_4lessIS9_EENS7_IS9_EEEEEC1EOSE_, symObjAddr: 0x16CC0, symBinAddr: 0x100061BD0, symSize: 0x6C }
  - { offset: 0x3D76E, size: 0x8, addend: 0x0, symName: __ZN7testing8internal18ContainerEqMatcherINSt3__13setINS2_12basic_stringIcNS2_11char_traitsIcEENS2_9allocatorIcEEEENS2_4lessIS9_EENS7_IS9_EEEEEC2EOSE_, symObjAddr: 0x16D2C, symBinAddr: 0x100061C3C, symSize: 0xD8 }
  - { offset: 0x3D7A4, size: 0x8, addend: 0x0, symName: __ZN7testing8internal29PredicateFormatterFromMatcherINS_18PolymorphicMatcherINS0_18ContainerEqMatcherINSt3__13setINS4_12basic_stringIcNS4_11char_traitsIcEENS4_9allocatorIcEEEENS4_4lessISB_EENS9_ISB_EEEEEEEEEC2ESH_, symObjAddr: 0x16E04, symBinAddr: 0x100061D14, symSize: 0xA4 }
  - { offset: 0x3D7DE, size: 0x8, addend: 0x0, symName: __ZN7testing8internal18ContainerEqMatcherINSt3__13setINS2_12basic_stringIcNS2_11char_traitsIcEENS2_9allocatorIcEEEENS2_4lessIS9_EENS7_IS9_EEEEEC1ERKSD_, symObjAddr: 0x16F4C, symBinAddr: 0x100061E5C, symSize: 0x6C }
  - { offset: 0x3D817, size: 0x8, addend: 0x0, symName: __ZN7testing8internal18ContainerEqMatcherINSt3__13setINS2_12basic_stringIcNS2_11char_traitsIcEENS2_9allocatorIcEEEENS2_4lessIS9_EENS7_IS9_EEEEED1Ev, symObjAddr: 0x16FB8, symBinAddr: 0x100061EC8, symSize: 0x64 }
  - { offset: 0x3D844, size: 0x8, addend: 0x0, symName: __ZN7testing18PolymorphicMatcherINS_8internal18ContainerEqMatcherINSt3__13setINS3_12basic_stringIcNS3_11char_traitsIcEENS3_9allocatorIcEEEENS3_4lessISA_EENS8_ISA_EEEEEEEC1ERKSF_, symObjAddr: 0x1701C, symBinAddr: 0x100061F2C, symSize: 0x6C }
  - { offset: 0x3D87D, size: 0x8, addend: 0x0, symName: __ZN7testing18PolymorphicMatcherINS_8internal18ContainerEqMatcherINSt3__13setINS3_12basic_stringIcNS3_11char_traitsIcEENS3_9allocatorIcEEEENS3_4lessISA_EENS8_ISA_EEEEEEEC2ERKSF_, symObjAddr: 0x17088, symBinAddr: 0x100061F98, symSize: 0xA4 }
  - { offset: 0x3D8B6, size: 0x8, addend: 0x0, symName: __ZN7testing8internal18ContainerEqMatcherINSt3__13setINS2_12basic_stringIcNS2_11char_traitsIcEENS2_9allocatorIcEEEENS2_4lessIS9_EENS7_IS9_EEEEEC1ERKSE_, symObjAddr: 0x1712C, symBinAddr: 0x10006203C, symSize: 0x6C }
  - { offset: 0x3D8EC, size: 0x8, addend: 0x0, symName: __ZN7testing8internal18ContainerEqMatcherINSt3__13setINS2_12basic_stringIcNS2_11char_traitsIcEENS2_9allocatorIcEEEENS2_4lessIS9_EENS7_IS9_EEEEEC2ERKSE_, symObjAddr: 0x17198, symBinAddr: 0x1000620A8, symSize: 0xA4 }
  - { offset: 0x3D922, size: 0x8, addend: 0x0, symName: __ZN7testing8internal18ContainerEqMatcherINSt3__13setINS2_12basic_stringIcNS2_11char_traitsIcEENS2_9allocatorIcEEEENS2_4lessIS9_EENS7_IS9_EEEEEC2ERKSD_, symObjAddr: 0x1723C, symBinAddr: 0x10006214C, symSize: 0xA4 }
  - { offset: 0x3D95B, size: 0x8, addend: 0x0, symName: __ZN7testing8internal16StlContainerViewINSt3__13setINS2_12basic_stringIcNS2_11char_traitsIcEENS2_9allocatorIcEEEENS2_4lessIS9_EENS7_IS9_EEEEE4CopyERKSD_, symObjAddr: 0x172E8, symBinAddr: 0x1000621F8, symSize: 0x9C }
  - { offset: 0x3D97F, size: 0x8, addend: 0x0, symName: __ZN7testing8internal18ContainerEqMatcherINSt3__13setINS2_12basic_stringIcNS2_11char_traitsIcEENS2_9allocatorIcEEEENS2_4lessIS9_EENS7_IS9_EEEEED2Ev, symObjAddr: 0x17384, symBinAddr: 0x100062294, symSize: 0x64 }
  - { offset: 0x3D9AC, size: 0x8, addend: 0x0, symName: __ZNK7testing8internal11MatcherBaseIRKNSt3__13setINS2_12basic_stringIcNS2_11char_traitsIcEENS2_9allocatorIcEEEENS2_4lessIS9_EENS7_IS9_EEEEE7MatchesESF_, symObjAddr: 0x17458, symBinAddr: 0x100062368, symSize: 0x350 }
  - { offset: 0x3D9F4, size: 0x8, addend: 0x0, symName: __ZNK7testing8internal11MatcherBaseIRKNSt3__13setINS2_12basic_stringIcNS2_11char_traitsIcEENS2_9allocatorIcEEEENS2_4lessIS9_EENS7_IS9_EEEEE10DescribeToEPNS2_13basic_ostreamIcS6_EE, symObjAddr: 0x17BEC, symBinAddr: 0x1000626B8, symSize: 0x59C }
  - { offset: 0x3DA4A, size: 0x8, addend: 0x0, symName: __ZN7testing7MatcherIRKNSt3__13setINS1_12basic_stringIcNS1_11char_traitsIcEENS1_9allocatorIcEEEENS1_4lessIS8_EENS6_IS8_EEEEED1Ev, symObjAddr: 0x19698, symBinAddr: 0x100063898, symSize: 0x64 }
  - { offset: 0x3DA7C, size: 0x8, addend: 0x0, symName: __ZN7testing8internal15MatcherCastImplIRKNSt3__13setINS2_12basic_stringIcNS2_11char_traitsIcEENS2_9allocatorIcEEEENS2_4lessIS9_EENS7_IS9_EEEENS_18PolymorphicMatcherINS0_18ContainerEqMatcherISD_EEEEE4CastERKSJ_, symObjAddr: 0x19774, symBinAddr: 0x100063974, symSize: 0x68 }
  - { offset: 0x3DAA0, size: 0x8, addend: 0x0, symName: __ZN7testing8internal15MatcherCastImplIRKNSt3__13setINS2_12basic_stringIcNS2_11char_traitsIcEENS2_9allocatorIcEEEENS2_4lessIS9_EENS7_IS9_EEEENS_18PolymorphicMatcherINS0_18ContainerEqMatcherISD_EEEEE8CastImplILb0EEENS_7MatcherISF_EERKSJ_NS2_17integral_constantIbLb1EEENSQ_IbXT_EEE, symObjAddr: 0x197E4, symBinAddr: 0x1000639E4, symSize: 0x58 }
  - { offset: 0x3DAE6, size: 0x8, addend: 0x0, symName: __ZNK7testing18PolymorphicMatcherINS_8internal18ContainerEqMatcherINSt3__13setINS3_12basic_stringIcNS3_11char_traitsIcEENS3_9allocatorIcEEEENS3_4lessISA_EENS8_ISA_EEEEEEEcvNS_7MatcherIT_EEIRKSE_EEv, symObjAddr: 0x1983C, symBinAddr: 0x100063A3C, symSize: 0x178 }
  - { offset: 0x3DB24, size: 0x8, addend: 0x0, symName: __ZN7testing18PolymorphicMatcherINS_8internal18ContainerEqMatcherINSt3__13setINS3_12basic_stringIcNS3_11char_traitsIcEENS3_9allocatorIcEEEENS3_4lessISA_EENS8_ISA_EEEEEEE15MonomorphicImplIRKSE_EC1ERKSF_, symObjAddr: 0x199B4, symBinAddr: 0x100063BB4, symSize: 0x6C }
  - { offset: 0x3DB5D, size: 0x8, addend: 0x0, symName: __ZN7testing7MatcherIRKNSt3__13setINS1_12basic_stringIcNS1_11char_traitsIcEENS1_9allocatorIcEEEENS1_4lessIS8_EENS6_IS8_EEEEEC1EPKNS_16MatcherInterfaceISE_EE, symObjAddr: 0x19A20, symBinAddr: 0x100063C20, symSize: 0x6C }
  - { offset: 0x3DB96, size: 0x8, addend: 0x0, symName: __ZN7testing18PolymorphicMatcherINS_8internal18ContainerEqMatcherINSt3__13setINS3_12basic_stringIcNS3_11char_traitsIcEENS3_9allocatorIcEEEENS3_4lessISA_EENS8_ISA_EEEEEEE15MonomorphicImplIRKSE_EC2ERKSF_, symObjAddr: 0x19A8C, symBinAddr: 0x100063C8C, symSize: 0x170 }
  - { offset: 0x3DBD4, size: 0x8, addend: 0x0, symName: __ZN7testing16MatcherInterfaceIRKNSt3__13setINS1_12basic_stringIcNS1_11char_traitsIcEENS1_9allocatorIcEEEENS1_4lessIS8_EENS6_IS8_EEEEEC2Ev, symObjAddr: 0x19BFC, symBinAddr: 0x100063DFC, symSize: 0xF8 }
  - { offset: 0x3DC00, size: 0x8, addend: 0x0, symName: __ZN7testing16MatcherInterfaceIRKNSt3__13setINS1_12basic_stringIcNS1_11char_traitsIcEENS1_9allocatorIcEEEENS1_4lessIS8_EENS6_IS8_EEEEED2Ev, symObjAddr: 0x19CF4, symBinAddr: 0x100063EF4, symSize: 0x64 }
  - { offset: 0x3DC2C, size: 0x8, addend: 0x0, symName: __ZN7testing18PolymorphicMatcherINS_8internal18ContainerEqMatcherINSt3__13setINS3_12basic_stringIcNS3_11char_traitsIcEENS3_9allocatorIcEEEENS3_4lessISA_EENS8_ISA_EEEEEEE15MonomorphicImplIRKSE_ED1Ev, symObjAddr: 0x19D58, symBinAddr: 0x100063F58, symSize: 0x64 }
  - { offset: 0x3DC59, size: 0x8, addend: 0x0, symName: __ZN7testing18PolymorphicMatcherINS_8internal18ContainerEqMatcherINSt3__13setINS3_12basic_stringIcNS3_11char_traitsIcEENS3_9allocatorIcEEEENS3_4lessISA_EENS8_ISA_EEEEEEE15MonomorphicImplIRKSE_ED0Ev, symObjAddr: 0x19DBC, symBinAddr: 0x100063FBC, symSize: 0x68 }
  - { offset: 0x3DC86, size: 0x8, addend: 0x0, symName: __ZNK7testing18PolymorphicMatcherINS_8internal18ContainerEqMatcherINSt3__13setINS3_12basic_stringIcNS3_11char_traitsIcEENS3_9allocatorIcEEEENS3_4lessISA_EENS8_ISA_EEEEEEE15MonomorphicImplIRKSE_E10DescribeToEPNS3_13basic_ostreamIcS7_EE, symObjAddr: 0x19E24, symBinAddr: 0x100064024, symSize: 0x11C }
  - { offset: 0x3DCBB, size: 0x8, addend: 0x0, symName: __ZNK7testing18PolymorphicMatcherINS_8internal18ContainerEqMatcherINSt3__13setINS3_12basic_stringIcNS3_11char_traitsIcEENS3_9allocatorIcEEEENS3_4lessISA_EENS8_ISA_EEEEEEE15MonomorphicImplIRKSE_E18DescribeNegationToEPNS3_13basic_ostreamIcS7_EE, symObjAddr: 0x19F40, symBinAddr: 0x100064140, symSize: 0x11C }
  - { offset: 0x3DCF0, size: 0x8, addend: 0x0, symName: __ZNK7testing18PolymorphicMatcherINS_8internal18ContainerEqMatcherINSt3__13setINS3_12basic_stringIcNS3_11char_traitsIcEENS3_9allocatorIcEEEENS3_4lessISA_EENS8_ISA_EEEEEEE15MonomorphicImplIRKSE_E15MatchAndExplainESJ_PNS_19MatchResultListenerE, symObjAddr: 0x1A05C, symBinAddr: 0x10006425C, symSize: 0x15C }
  - { offset: 0x3DD34, size: 0x8, addend: 0x0, symName: __ZN7testing16MatcherInterfaceIRKNSt3__13setINS1_12basic_stringIcNS1_11char_traitsIcEENS1_9allocatorIcEEEENS1_4lessIS8_EENS6_IS8_EEEEED1Ev, symObjAddr: 0x1A26C, symBinAddr: 0x1000643B8, symSize: 0x54 }
  - { offset: 0x3DD60, size: 0x8, addend: 0x0, symName: __ZN7testing16MatcherInterfaceIRKNSt3__13setINS1_12basic_stringIcNS1_11char_traitsIcEENS1_9allocatorIcEEEENS1_4lessIS8_EENS6_IS8_EEEEED0Ev, symObjAddr: 0x1A2C0, symBinAddr: 0x10006440C, symSize: 0x50 }
  - { offset: 0x3DD8C, size: 0x8, addend: 0x0, symName: __ZN7testing18PolymorphicMatcherINS_8internal18ContainerEqMatcherINSt3__13setINS3_12basic_stringIcNS3_11char_traitsIcEENS3_9allocatorIcEEEENS3_4lessISA_EENS8_ISA_EEEEEEE15MonomorphicImplIRKSE_ED2Ev, symObjAddr: 0x1A5F4, symBinAddr: 0x10006445C, symSize: 0xC4 }
  - { offset: 0x3DDB9, size: 0x8, addend: 0x0, symName: __ZNK7testing8internal18ContainerEqMatcherINSt3__13setINS2_12basic_stringIcNS2_11char_traitsIcEENS2_9allocatorIcEEEENS2_4lessIS9_EENS7_IS9_EEEEE10DescribeToEPNS2_13basic_ostreamIcS6_EE, symObjAddr: 0x1A6B8, symBinAddr: 0x100064520, symSize: 0xE0 }
  - { offset: 0x3DE0F, size: 0x8, addend: 0x0, symName: __ZNK7testing8internal18ContainerEqMatcherINSt3__13setINS2_12basic_stringIcNS2_11char_traitsIcEENS2_9allocatorIcEEEENS2_4lessIS9_EENS7_IS9_EEEEE18DescribeNegationToEPNS2_13basic_ostreamIcS6_EE, symObjAddr: 0x1E9B8, symBinAddr: 0x10006466C, symSize: 0xE0 }
  - { offset: 0x3DE44, size: 0x8, addend: 0x0, symName: __ZNK7testing8internal18ContainerEqMatcherINSt3__13setINS2_12basic_stringIcNS2_11char_traitsIcEENS2_9allocatorIcEEEENS2_4lessIS9_EENS7_IS9_EEEEE15MatchAndExplainISD_EEbRKT_PNS_19MatchResultListenerE, symObjAddr: 0x1EA98, symBinAddr: 0x10006474C, symSize: 0xBC4 }
  - { offset: 0x3DF25, size: 0x8, addend: 0x0, symName: __ZN7testing8internal16StlContainerViewINSt3__13setINS2_12basic_stringIcNS2_11char_traitsIcEENS2_9allocatorIcEEEENS2_4lessIS9_EENS7_IS9_EEEEE14ConstReferenceERKSD_, symObjAddr: 0x1F664, symBinAddr: 0x100065318, symSize: 0x58 }
  - { offset: 0x3DF49, size: 0x8, addend: 0x0, symName: __ZN7testing7MatcherIRKNSt3__13setINS1_12basic_stringIcNS1_11char_traitsIcEENS1_9allocatorIcEEEENS1_4lessIS8_EENS6_IS8_EEEEEC2EPKNS_16MatcherInterfaceISE_EE, symObjAddr: 0x20894, symBinAddr: 0x1000656E8, symSize: 0x108 }
  - { offset: 0x3DF82, size: 0x8, addend: 0x0, symName: __ZN7testing8internal11MatcherBaseIRKNSt3__13setINS2_12basic_stringIcNS2_11char_traitsIcEENS2_9allocatorIcEEEENS2_4lessIS9_EENS7_IS9_EEEEEC2ISF_EEPKNS_16MatcherInterfaceIT_EE, symObjAddr: 0x2099C, symBinAddr: 0x1000657F0, symSize: 0x3AC }
  - { offset: 0x3DFC9, size: 0x8, addend: 0x0, symName: __ZN7testing7MatcherIRKNSt3__13setINS1_12basic_stringIcNS1_11char_traitsIcEENS1_9allocatorIcEEEENS1_4lessIS8_EENS6_IS8_EEEEED0Ev, symObjAddr: 0x20D48, symBinAddr: 0x100065B9C, symSize: 0x68 }
  - { offset: 0x3DFF5, size: 0x8, addend: 0x0, symName: __ZNK7testing8internal11MatcherBaseIRKNSt3__13setINS2_12basic_stringIcNS2_11char_traitsIcEENS2_9allocatorIcEEEENS2_4lessIS9_EENS7_IS9_EEEEE18DescribeNegationToEPNS2_13basic_ostreamIcS6_EE, symObjAddr: 0x20DB0, symBinAddr: 0x100065C04, symSize: 0x5A4 }
  - { offset: 0x3E02B, size: 0x8, addend: 0x0, symName: __ZN7testing8internal11MatcherBaseIRKNSt3__13setINS2_12basic_stringIcNS2_11char_traitsIcEENS2_9allocatorIcEEEENS2_4lessIS9_EENS7_IS9_EEEEE4InitIRPKNS_16MatcherInterfaceISF_EEEEvOT_, symObjAddr: 0x21354, symBinAddr: 0x1000661A8, symSize: 0x234 }
  - { offset: 0x3E069, size: 0x8, addend: 0x0, symName: __ZN7testing8internal11MatcherBaseIRKNSt3__13setINS2_12basic_stringIcNS2_11char_traitsIcEENS2_9allocatorIcEEEENS2_4lessIS9_EENS7_IS9_EEEEED1Ev, symObjAddr: 0x21588, symBinAddr: 0x1000663DC, symSize: 0x64 }
  - { offset: 0x3E093, size: 0x8, addend: 0x0, symName: __ZN7testing8internal11MatcherBaseIRKNSt3__13setINS2_12basic_stringIcNS2_11char_traitsIcEENS2_9allocatorIcEEEENS2_4lessIS9_EENS7_IS9_EEEEED0Ev, symObjAddr: 0x215EC, symBinAddr: 0x100066440, symSize: 0x68 }
  - { offset: 0x3E0BD, size: 0x8, addend: 0x0, symName: __ZN7testing8internal11MatcherBaseIRKNSt3__13setINS2_12basic_stringIcNS2_11char_traitsIcEENS2_9allocatorIcEEEENS2_4lessIS9_EENS7_IS9_EEEEE11ValuePolicyIPKNS_16MatcherInterfaceISF_EELb1EE4InitERSG_SL_, symObjAddr: 0x216B8, symBinAddr: 0x10006650C, symSize: 0x3B4 }
  - { offset: 0x3E0F2, size: 0x8, addend: 0x0, symName: __ZN7testing8internal11MatcherBaseIRKNSt3__13setINS2_12basic_stringIcNS2_11char_traitsIcEENS2_9allocatorIcEEEENS2_4lessIS9_EENS7_IS9_EEEEE19MatchAndExplainImplINSG_11ValuePolicyIPKNS_16MatcherInterfaceISF_EELb1EEEEEDTcldtclsrT_3Getfp_E15MatchAndExplainfp0_fp1_EERKSG_SF_PNS_19MatchResultListenerE, symObjAddr: 0x21A74, symBinAddr: 0x1000668C8, symSize: 0x1E0 }
  - { offset: 0x3E13D, size: 0x8, addend: 0x0, symName: __ZN7testing8internal11MatcherBaseIRKNSt3__13setINS2_12basic_stringIcNS2_11char_traitsIcEENS2_9allocatorIcEEEENS2_4lessIS9_EENS7_IS9_EEEEE12DescribeImplINSG_11ValuePolicyIPKNS_16MatcherInterfaceISF_EELb1EEEEEvRKSG_PNS2_13basic_ostreamIcS6_EEb, symObjAddr: 0x21C5C, symBinAddr: 0x100066AB0, symSize: 0x3A0 }
  - { offset: 0x3E188, size: 0x8, addend: 0x0, symName: __ZN7testing8internal11MatcherBaseIRKNSt3__13setINS2_12basic_stringIcNS2_11char_traitsIcEENS2_9allocatorIcEEEENS2_4lessIS9_EENS7_IS9_EEEEE16GetDescriberImplINSG_11ValuePolicyIPKNS_16MatcherInterfaceISF_EELb1EEEEEPKNS_25MatcherDescriberInterfaceERKSG_, symObjAddr: 0x22004, symBinAddr: 0x100066E58, symSize: 0x31C }
  - { offset: 0x3E1B6, size: 0x8, addend: 0x0, symName: __ZN7testing8internal13SharedPayloadINSt3__110unique_ptrIKNS_16MatcherInterfaceIRKNS2_3setINS2_12basic_stringIcNS2_11char_traitsIcEENS2_9allocatorIcEEEENS2_4lessISB_EENS9_ISB_EEEEEENS2_14default_deleteISJ_EEEEE7DestroyEPNS0_17SharedPayloadBaseE, symObjAddr: 0x22328, symBinAddr: 0x10006717C, symSize: 0xAC }
  - { offset: 0x3E1D9, size: 0x8, addend: 0x0, symName: __ZN7testing8internal11MatcherBaseIRKNSt3__13setINS2_12basic_stringIcNS2_11char_traitsIcEENS2_9allocatorIcEEEENS2_4lessIS9_EENS7_IS9_EEEEE11ValuePolicyIPKNS_16MatcherInterfaceISF_EELb1EE3GetERKSG_, symObjAddr: 0x223DC, symBinAddr: 0x100067230, symSize: 0x1BC }
  - { offset: 0x3E1FD, size: 0x8, addend: 0x0, symName: __ZNKSt3__110unique_ptrIKN7testing16MatcherInterfaceIRKNS_3setINS_12basic_stringIcNS_11char_traitsIcEENS_9allocatorIcEEEENS_4lessIS9_EENS7_IS9_EEEEEENS_14default_deleteISH_EEEdeB8ne190107Ev, symObjAddr: 0x22598, symBinAddr: 0x1000673EC, symSize: 0x144 }
  - { offset: 0x3E223, size: 0x8, addend: 0x0, symName: __ZNKSt3__117__compressed_pairIPKN7testing16MatcherInterfaceIRKNS_3setINS_12basic_stringIcNS_11char_traitsIcEENS_9allocatorIcEEEENS_4lessIS9_EENS7_IS9_EEEEEENS_14default_deleteISH_EEE5firstB8ne190107Ev, symObjAddr: 0x226DC, symBinAddr: 0x100067530, symSize: 0xEC }
  - { offset: 0x3E249, size: 0x8, addend: 0x0, symName: __ZNKSt3__122__compressed_pair_elemIPKN7testing16MatcherInterfaceIRKNS_3setINS_12basic_stringIcNS_11char_traitsIcEENS_9allocatorIcEEEENS_4lessIS9_EENS7_IS9_EEEEEELi0ELb0EE5__getB8ne190107Ev, symObjAddr: 0x227C8, symBinAddr: 0x10006761C, symSize: 0x8C }
  - { offset: 0x3E290, size: 0x8, addend: 0x0, symName: __ZNSt3__112__tuple_leafILm1EPKN7testing16MatcherInterfaceIRKNS_3setINS_12basic_stringIcNS_11char_traitsIcEENS_9allocatorIcEEEENS_4lessIS9_EENS7_IS9_EEEEEELb0EE3getB8ne190107Ev, symObjAddr: 0x22B5C, symBinAddr: 0x1000679B0, symSize: 0x8C }
  - { offset: 0x3E336, size: 0x8, addend: 0x0, symName: __ZNSt3__15tupleIJPKN7testing8internal11MatcherBaseIRKNS_3setINS_12basic_stringIcNS_11char_traitsIcEENS_9allocatorIcEEEENS_4lessISA_EENS8_ISA_EEEEEEPKNS1_16MatcherInterfaceISG_EEEEC1B8ne190107IJSJ_SN_ETnNS_9enable_ifIXsr4_AndINS_17integral_constantIbXeqsZT_sZT_EEENSO_17_EnableUTypesCtorIJDpT_EEEEE5valueEiE4typeELi0EEEDpOSU_, symObjAddr: 0x22BE8, symBinAddr: 0x100067A3C, symSize: 0x74 }
  - { offset: 0x3E394, size: 0x8, addend: 0x0, symName: __ZNSt3__15tupleIJPKN7testing8internal11MatcherBaseIRKNS_3setINS_12basic_stringIcNS_11char_traitsIcEENS_9allocatorIcEEEENS_4lessISA_EENS8_ISA_EEEEEEPKNS1_16MatcherInterfaceISG_EEEEC2B8ne190107IJSJ_SN_ETnNS_9enable_ifIXsr4_AndINS_17integral_constantIbXeqsZT_sZT_EEENSO_17_EnableUTypesCtorIJDpT_EEEEE5valueEiE4typeELi0EEEDpOSU_, symObjAddr: 0x22C5C, symBinAddr: 0x100067AB0, symSize: 0xE4 }
  - { offset: 0x3E3F2, size: 0x8, addend: 0x0, symName: __ZNSt3__112__tuple_implINS_15__tuple_indicesIJLm0ELm1EEEEJPKN7testing8internal11MatcherBaseIRKNS_3setINS_12basic_stringIcNS_11char_traitsIcEENS_9allocatorIcEEEENS_4lessISC_EENSA_ISC_EEEEEEPKNS3_16MatcherInterfaceISI_EEEEC1B8ne190107IJLm0ELm1EEJSL_SP_ETpTnmJEJEJSL_SP_EEENS1_IJXspT_EEEENS_13__tuple_typesIJDpT0_EEENS1_IJXspT1_EEEENST_IJDpT2_EEEDpOT3_, symObjAddr: 0x22D40, symBinAddr: 0x100067B94, symSize: 0x74 }
  - { offset: 0x3E4A8, size: 0x8, addend: 0x0, symName: __ZNSt3__112__tuple_implINS_15__tuple_indicesIJLm0ELm1EEEEJPKN7testing8internal11MatcherBaseIRKNS_3setINS_12basic_stringIcNS_11char_traitsIcEENS_9allocatorIcEEEENS_4lessISC_EENSA_ISC_EEEEEEPKNS3_16MatcherInterfaceISI_EEEEC2B8ne190107IJLm0ELm1EEJSL_SP_ETpTnmJEJEJSL_SP_EEENS1_IJXspT_EEEENS_13__tuple_typesIJDpT0_EEENS1_IJXspT1_EEEENST_IJDpT2_EEEDpOT3_, symObjAddr: 0x22DB4, symBinAddr: 0x100067C08, symSize: 0x168 }
  - { offset: 0x3E55E, size: 0x8, addend: 0x0, symName: __ZNSt3__112__tuple_leafILm0EPKN7testing8internal11MatcherBaseIRKNS_3setINS_12basic_stringIcNS_11char_traitsIcEENS_9allocatorIcEEEENS_4lessISA_EENS8_ISA_EEEEEELb0EEC2B8ne190107ISJ_TnNS_9enable_ifIXsr4_AndINS_17integral_constantIbXntu9__is_sameu14__remove_cvrefIT_ESK_EEEENS_16is_constructibleISJ_JSO_EEEEE5valueEiE4typeELi0EEEOSO_, symObjAddr: 0x22F1C, symBinAddr: 0x100067D70, symSize: 0x124 }
  - { offset: 0x3E5A6, size: 0x8, addend: 0x0, symName: __ZNSt3__112__tuple_leafILm1EPKN7testing16MatcherInterfaceIRKNS_3setINS_12basic_stringIcNS_11char_traitsIcEENS_9allocatorIcEEEENS_4lessIS9_EENS7_IS9_EEEEEELb0EEC2B8ne190107ISI_TnNS_9enable_ifIXsr4_AndINS_17integral_constantIbXntu9__is_sameu14__remove_cvrefIT_ESJ_EEEENS_16is_constructibleISI_JSN_EEEEE5valueEiE4typeELi0EEEOSN_, symObjAddr: 0x23040, symBinAddr: 0x100067E94, symSize: 0x124 }
  - { offset: 0x3E5EE, size: 0x8, addend: 0x0, symName: __ZN7testing8internal13SharedPayloadINSt3__110unique_ptrIKNS_16MatcherInterfaceIRKNS2_3setINS2_12basic_stringIcNS2_11char_traitsIcEENS2_9allocatorIcEEEENS2_4lessISB_EENS9_ISB_EEEEEENS2_14default_deleteISJ_EEEEED1Ev, symObjAddr: 0x23164, symBinAddr: 0x100067FB8, symSize: 0x64 }
  - { offset: 0x3E61A, size: 0x8, addend: 0x0, symName: __ZN7testing8internal13SharedPayloadINSt3__110unique_ptrIKNS_16MatcherInterfaceIRKNS2_3setINS2_12basic_stringIcNS2_11char_traitsIcEENS2_9allocatorIcEEEENS2_4lessISB_EENS9_ISB_EEEEEENS2_14default_deleteISJ_EEEEED2Ev, symObjAddr: 0x231C8, symBinAddr: 0x10006801C, symSize: 0x68 }
  - { offset: 0x3E646, size: 0x8, addend: 0x0, symName: __ZNSt3__110unique_ptrIKN7testing16MatcherInterfaceIRKNS_3setINS_12basic_stringIcNS_11char_traitsIcEENS_9allocatorIcEEEENS_4lessIS9_EENS7_IS9_EEEEEENS_14default_deleteISH_EEED1B8ne190107Ev, symObjAddr: 0x23230, symBinAddr: 0x100068084, symSize: 0x64 }
  - { offset: 0x3E670, size: 0x8, addend: 0x0, symName: __ZNSt3__110unique_ptrIKN7testing16MatcherInterfaceIRKNS_3setINS_12basic_stringIcNS_11char_traitsIcEENS_9allocatorIcEEEENS_4lessIS9_EENS7_IS9_EEEEEENS_14default_deleteISH_EEED2B8ne190107Ev, symObjAddr: 0x23294, symBinAddr: 0x1000680E8, symSize: 0x68 }
  - { offset: 0x3E69A, size: 0x8, addend: 0x0, symName: __ZNSt3__110unique_ptrIKN7testing16MatcherInterfaceIRKNS_3setINS_12basic_stringIcNS_11char_traitsIcEENS_9allocatorIcEEEENS_4lessIS9_EENS7_IS9_EEEEEENS_14default_deleteISH_EEE5resetB8ne190107EPSH_, symObjAddr: 0x232FC, symBinAddr: 0x100068150, symSize: 0x240 }
  - { offset: 0x3E6DE, size: 0x8, addend: 0x0, symName: __ZNSt3__117__compressed_pairIPKN7testing16MatcherInterfaceIRKNS_3setINS_12basic_stringIcNS_11char_traitsIcEENS_9allocatorIcEEEENS_4lessIS9_EENS7_IS9_EEEEEENS_14default_deleteISH_EEE5firstB8ne190107Ev, symObjAddr: 0x2353C, symBinAddr: 0x100068390, symSize: 0xEC }
  - { offset: 0x3E704, size: 0x8, addend: 0x0, symName: __ZNSt3__117__compressed_pairIPKN7testing16MatcherInterfaceIRKNS_3setINS_12basic_stringIcNS_11char_traitsIcEENS_9allocatorIcEEEENS_4lessIS9_EENS7_IS9_EEEEEENS_14default_deleteISH_EEE6secondB8ne190107Ev, symObjAddr: 0x23628, symBinAddr: 0x10006847C, symSize: 0xC4 }
  - { offset: 0x3E72A, size: 0x8, addend: 0x0, symName: __ZNKSt3__114default_deleteIKN7testing16MatcherInterfaceIRKNS_3setINS_12basic_stringIcNS_11char_traitsIcEENS_9allocatorIcEEEENS_4lessIS9_EENS7_IS9_EEEEEEEclB8ne190107EPSH_, symObjAddr: 0x236EC, symBinAddr: 0x100068540, symSize: 0x18C }
  - { offset: 0x3E75E, size: 0x8, addend: 0x0, symName: __ZNSt3__122__compressed_pair_elemIPKN7testing16MatcherInterfaceIRKNS_3setINS_12basic_stringIcNS_11char_traitsIcEENS_9allocatorIcEEEENS_4lessIS9_EENS7_IS9_EEEEEELi0ELb0EE5__getB8ne190107Ev, symObjAddr: 0x23878, symBinAddr: 0x1000686CC, symSize: 0x8C }
  - { offset: 0x3E784, size: 0x8, addend: 0x0, symName: __ZNSt3__122__compressed_pair_elemINS_14default_deleteIKN7testing16MatcherInterfaceIRKNS_3setINS_12basic_stringIcNS_11char_traitsIcEENS_9allocatorIcEEEENS_4lessISA_EENS8_ISA_EEEEEEEELi1ELb1EE5__getB8ne190107Ev, symObjAddr: 0x23904, symBinAddr: 0x100068758, symSize: 0x64 }
  - { offset: 0x3E7AA, size: 0x8, addend: 0x0, symName: __ZNSt3__110unique_ptrIKN7testing16MatcherInterfaceIRKNS_3setINS_12basic_stringIcNS_11char_traitsIcEENS_9allocatorIcEEEENS_4lessIS9_EENS7_IS9_EEEEEENS_14default_deleteISH_EEEC1B8ne190107ILb1EvEEPSH_, symObjAddr: 0x23968, symBinAddr: 0x1000687BC, symSize: 0x6C }
  - { offset: 0x3E7ED, size: 0x8, addend: 0x0, symName: __ZN7testing8internal13SharedPayloadINSt3__110unique_ptrIKNS_16MatcherInterfaceIRKNS2_3setINS2_12basic_stringIcNS2_11char_traitsIcEENS2_9allocatorIcEEEENS2_4lessISB_EENS9_ISB_EEEEEENS2_14default_deleteISJ_EEEEEC1EOSM_, symObjAddr: 0x239D4, symBinAddr: 0x100068828, symSize: 0x6C }
  - { offset: 0x3E825, size: 0x8, addend: 0x0, symName: __ZNSt3__110unique_ptrIKN7testing16MatcherInterfaceIRKNS_3setINS_12basic_stringIcNS_11char_traitsIcEENS_9allocatorIcEEEENS_4lessIS9_EENS7_IS9_EEEEEENS_14default_deleteISH_EEEC2B8ne190107ILb1EvEEPSH_, symObjAddr: 0x23A40, symBinAddr: 0x100068894, symSize: 0x250 }
  - { offset: 0x3E873, size: 0x8, addend: 0x0, symName: __ZNSt3__117__compressed_pairIPKN7testing16MatcherInterfaceIRKNS_3setINS_12basic_stringIcNS_11char_traitsIcEENS_9allocatorIcEEEENS_4lessIS9_EENS7_IS9_EEEEEENS_14default_deleteISH_EEEC1B8ne190107IRSI_NS_16__value_init_tagEEEOT_OT0_, symObjAddr: 0x23C90, symBinAddr: 0x100068AE4, symSize: 0x74 }
  - { offset: 0x3E8CB, size: 0x8, addend: 0x0, symName: __ZNSt3__117__compressed_pairIPKN7testing16MatcherInterfaceIRKNS_3setINS_12basic_stringIcNS_11char_traitsIcEENS_9allocatorIcEEEENS_4lessIS9_EENS7_IS9_EEEEEENS_14default_deleteISH_EEEC2B8ne190107IRSI_NS_16__value_init_tagEEEOT_OT0_, symObjAddr: 0x23D04, symBinAddr: 0x100068B58, symSize: 0x104 }
  - { offset: 0x3E923, size: 0x8, addend: 0x0, symName: __ZNSt3__122__compressed_pair_elemIPKN7testing16MatcherInterfaceIRKNS_3setINS_12basic_stringIcNS_11char_traitsIcEENS_9allocatorIcEEEENS_4lessIS9_EENS7_IS9_EEEEEELi0ELb0EEC2B8ne190107IRSI_TnNS_9enable_ifIXntsr7is_sameISJ_u7__decayIT_EEE5valueEiE4typeELi0EEEOSN_, symObjAddr: 0x23E08, symBinAddr: 0x100068C5C, symSize: 0x124 }
  - { offset: 0x3E96A, size: 0x8, addend: 0x0, symName: __ZNSt3__122__compressed_pair_elemINS_14default_deleteIKN7testing16MatcherInterfaceIRKNS_3setINS_12basic_stringIcNS_11char_traitsIcEENS_9allocatorIcEEEENS_4lessISA_EENS8_ISA_EEEEEEEELi1ELb1EEC2B8ne190107ENS_16__value_init_tagE, symObjAddr: 0x23F2C, symBinAddr: 0x100068D80, symSize: 0x48 }
  - { offset: 0x3E99F, size: 0x8, addend: 0x0, symName: __ZN7testing8internal13SharedPayloadINSt3__110unique_ptrIKNS_16MatcherInterfaceIRKNS2_3setINS2_12basic_stringIcNS2_11char_traitsIcEENS2_9allocatorIcEEEENS2_4lessISB_EENS9_ISB_EEEEEENS2_14default_deleteISJ_EEEEEC2EOSM_, symObjAddr: 0x23F74, symBinAddr: 0x100068DC8, symSize: 0xEC }
  - { offset: 0x3E9D7, size: 0x8, addend: 0x0, symName: __ZNSt3__110unique_ptrIKN7testing16MatcherInterfaceIRKNS_3setINS_12basic_stringIcNS_11char_traitsIcEENS_9allocatorIcEEEENS_4lessIS9_EENS7_IS9_EEEEEENS_14default_deleteISH_EEEC1B8ne190107EOSK_, symObjAddr: 0x240C8, symBinAddr: 0x100068EB4, symSize: 0x6C }
  - { offset: 0x3EA0F, size: 0x8, addend: 0x0, symName: __ZNSt3__110unique_ptrIKN7testing16MatcherInterfaceIRKNS_3setINS_12basic_stringIcNS_11char_traitsIcEENS_9allocatorIcEEEENS_4lessIS9_EENS7_IS9_EEEEEENS_14default_deleteISH_EEEC2B8ne190107EOSK_, symObjAddr: 0x2454C, symBinAddr: 0x100068F20, symSize: 0x2A4 }
  - { offset: 0x3EA49, size: 0x8, addend: 0x0, symName: __ZNSt3__110unique_ptrIKN7testing16MatcherInterfaceIRKNS_3setINS_12basic_stringIcNS_11char_traitsIcEENS_9allocatorIcEEEENS_4lessIS9_EENS7_IS9_EEEEEENS_14default_deleteISH_EEE7releaseB8ne190107Ev, symObjAddr: 0x247F0, symBinAddr: 0x1000691C4, symSize: 0x1BC }
  - { offset: 0x3EA7E, size: 0x8, addend: 0x0, symName: __ZNSt3__110unique_ptrIKN7testing16MatcherInterfaceIRKNS_3setINS_12basic_stringIcNS_11char_traitsIcEENS_9allocatorIcEEEENS_4lessIS9_EENS7_IS9_EEEEEENS_14default_deleteISH_EEE11get_deleterB8ne190107Ev, symObjAddr: 0x249AC, symBinAddr: 0x100069380, symSize: 0xB4 }
  - { offset: 0x3EAAA, size: 0x8, addend: 0x0, symName: __ZNSt3__117__compressed_pairIPKN7testing16MatcherInterfaceIRKNS_3setINS_12basic_stringIcNS_11char_traitsIcEENS_9allocatorIcEEEENS_4lessIS9_EENS7_IS9_EEEEEENS_14default_deleteISH_EEEC1B8ne190107ISI_SK_EEOT_OT0_, symObjAddr: 0x24A60, symBinAddr: 0x100069434, symSize: 0x74 }
  - { offset: 0x3EB02, size: 0x8, addend: 0x0, symName: __ZNSt3__117__compressed_pairIPKN7testing16MatcherInterfaceIRKNS_3setINS_12basic_stringIcNS_11char_traitsIcEENS_9allocatorIcEEEENS_4lessIS9_EENS7_IS9_EEEEEENS_14default_deleteISH_EEEC2B8ne190107ISI_SK_EEOT_OT0_, symObjAddr: 0x24AD4, symBinAddr: 0x1000694A8, symSize: 0x12C }
  - { offset: 0x3EB5A, size: 0x8, addend: 0x0, symName: __ZNSt3__122__compressed_pair_elemIPKN7testing16MatcherInterfaceIRKNS_3setINS_12basic_stringIcNS_11char_traitsIcEENS_9allocatorIcEEEENS_4lessIS9_EENS7_IS9_EEEEEELi0ELb0EEC2B8ne190107ISI_TnNS_9enable_ifIXntsr7is_sameISJ_u7__decayIT_EEE5valueEiE4typeELi0EEEOSM_, symObjAddr: 0x24C00, symBinAddr: 0x1000695D4, symSize: 0x124 }
  - { offset: 0x3EBA1, size: 0x8, addend: 0x0, symName: __ZNSt3__122__compressed_pair_elemINS_14default_deleteIKN7testing16MatcherInterfaceIRKNS_3setINS_12basic_stringIcNS_11char_traitsIcEENS_9allocatorIcEEEENS_4lessISA_EENS8_ISA_EEEEEEEELi1ELb1EEC2B8ne190107ISJ_TnNS_9enable_ifIXntsr7is_sameISK_u7__decayIT_EEE5valueEiE4typeELi0EEEOSN_, symObjAddr: 0x24D24, symBinAddr: 0x1000696F8, symSize: 0x4C }
  - { offset: 0x3EBE8, size: 0x8, addend: 0x0, symName: __ZN7testing8internal11MatcherBaseIRKNSt3__13setINS2_12basic_stringIcNS2_11char_traitsIcEENS2_9allocatorIcEEEENS2_4lessIS9_EENS7_IS9_EEEEED2Ev, symObjAddr: 0x24D70, symBinAddr: 0x100069744, symSize: 0x140 }
  - { offset: 0x3EC12, size: 0x8, addend: 0x0, symName: __ZN7testing8internal11MatcherBaseIRKNSt3__13setINS2_12basic_stringIcNS2_11char_traitsIcEENS2_9allocatorIcEEEENS2_4lessIS9_EENS7_IS9_EEEEE7DestroyEv, symObjAddr: 0x24EB0, symBinAddr: 0x100069884, symSize: 0x468 }
  - { offset: 0x3EC38, size: 0x8, addend: 0x0, symName: __ZNK7testing8internal11MatcherBaseIRKNSt3__13setINS2_12basic_stringIcNS2_11char_traitsIcEENS2_9allocatorIcEEEENS2_4lessIS9_EENS7_IS9_EEEEE8IsSharedEv, symObjAddr: 0x25318, symBinAddr: 0x100069CEC, symSize: 0x27C }
  - { offset: 0x3EC5E, size: 0x8, addend: 0x0, symName: __ZNK7testing8internal11MatcherBaseIRKNSt3__13setINS2_12basic_stringIcNS2_11char_traitsIcEENS2_9allocatorIcEEEENS2_4lessIS9_EENS7_IS9_EEEEE15MatchAndExplainESF_PNS_19MatchResultListenerE, symObjAddr: 0x25AC8, symBinAddr: 0x100069F68, symSize: 0x5D4 }
  - { offset: 0x3ECE9, size: 0x8, addend: 0x0, symName: __ZN7testing7MatcherIRKNSt3__13setINS1_12basic_stringIcNS1_11char_traitsIcEENS1_9allocatorIcEEEENS1_4lessIS8_EENS6_IS8_EEEEED2Ev, symObjAddr: 0x2D590, symBinAddr: 0x10006A570, symSize: 0x64 }
  - { offset: 0x3ED15, size: 0x8, addend: 0x0, symName: __ZN7testing8internal29PredicateFormatterFromMatcherINS_18PolymorphicMatcherINS0_18ContainerEqMatcherINSt3__13setINS4_12basic_stringIcNS4_11char_traitsIcEENS4_9allocatorIcEEEENS4_4lessISB_EENS9_ISB_EEEEEEEEED2Ev, symObjAddr: 0x2D5F4, symBinAddr: 0x10006A5D4, symSize: 0x64 }
  - { offset: 0x3ED42, size: 0x8, addend: 0x0, symName: __ZN7testing18PolymorphicMatcherINS_8internal18ContainerEqMatcherINSt3__13setINS3_12basic_stringIcNS3_11char_traitsIcEENS3_9allocatorIcEEEENS3_4lessISA_EENS8_ISA_EEEEEEED2Ev, symObjAddr: 0x2D658, symBinAddr: 0x10006A638, symSize: 0x64 }
  - { offset: 0x3ED6F, size: 0x8, addend: 0x0, symName: __ZN7testing8internal15TestFactoryImplIN12_GLOBAL__N_127FindQueryMatches_Union_TestEEC2Ev, symObjAddr: 0x2E074, symBinAddr: 0x10006A69C, symSize: 0xF8 }
  - { offset: 0x3ED9C, size: 0x8, addend: 0x0, symName: __ZN7testing8internal15TestFactoryImplIN12_GLOBAL__N_127FindQueryMatches_Union_TestEED1Ev, symObjAddr: 0x2E16C, symBinAddr: 0x10006A794, symSize: 0x64 }
  - { offset: 0x3EDC9, size: 0x8, addend: 0x0, symName: __ZN7testing8internal15TestFactoryImplIN12_GLOBAL__N_127FindQueryMatches_Union_TestEED0Ev, symObjAddr: 0x2E1D0, symBinAddr: 0x10006A7F8, symSize: 0x68 }
  - { offset: 0x3EDF6, size: 0x8, addend: 0x0, symName: __ZN7testing8internal15TestFactoryImplIN12_GLOBAL__N_127FindQueryMatches_Union_TestEE10CreateTestEv, symObjAddr: 0x2E238, symBinAddr: 0x10006A860, symSize: 0xFC }
  - { offset: 0x3EE1C, size: 0x8, addend: 0x0, symName: __ZN7testing8internal15TestFactoryImplIN12_GLOBAL__N_127FindQueryMatches_Union_TestEED2Ev, symObjAddr: 0x2E334, symBinAddr: 0x10006A95C, symSize: 0x64 }
  - { offset: 0x3EE49, size: 0x8, addend: 0x0, symName: __ZN12_GLOBAL__N_127FindQueryMatches_Union_TestC1Ev, symObjAddr: 0x2E398, symBinAddr: 0x10006A9C0, symSize: 0x64 }
  - { offset: 0x3EE73, size: 0x8, addend: 0x0, symName: __ZN12_GLOBAL__N_127FindQueryMatches_Union_TestC2Ev, symObjAddr: 0x2E3FC, symBinAddr: 0x10006AA24, symSize: 0xF8 }
  - { offset: 0x3EE9D, size: 0x8, addend: 0x0, symName: __ZN12_GLOBAL__N_127FindQueryMatches_Union_TestD1Ev, symObjAddr: 0x2E4F4, symBinAddr: 0x10006AB1C, symSize: 0x64 }
  - { offset: 0x3EEC7, size: 0x8, addend: 0x0, symName: __ZN12_GLOBAL__N_127FindQueryMatches_Union_TestD0Ev, symObjAddr: 0x2E558, symBinAddr: 0x10006AB80, symSize: 0x68 }
  - { offset: 0x3EEF1, size: 0x8, addend: 0x0, symName: __ZN12_GLOBAL__N_127FindQueryMatches_Union_Test8TestBodyEv, symObjAddr: 0x2E5C0, symBinAddr: 0x10006ABE8, symSize: 0x1354 }
  - { offset: 0x3EF78, size: 0x8, addend: 0x0, symName: __ZN12_GLOBAL__N_127FindQueryMatches_Union_TestD2Ev, symObjAddr: 0x2F914, symBinAddr: 0x10006BF3C, symSize: 0x64 }
  - { offset: 0x3EFA2, size: 0x8, addend: 0x0, symName: __ZN7testing8internal15TestFactoryImplIN12_GLOBAL__N_134FindQueryMatches_Intersection_TestEEC2Ev, symObjAddr: 0x2F978, symBinAddr: 0x10006BFA0, symSize: 0xF8 }
  - { offset: 0x3EFCF, size: 0x8, addend: 0x0, symName: __ZN7testing8internal15TestFactoryImplIN12_GLOBAL__N_134FindQueryMatches_Intersection_TestEED1Ev, symObjAddr: 0x2FA70, symBinAddr: 0x10006C098, symSize: 0x64 }
  - { offset: 0x3EFFC, size: 0x8, addend: 0x0, symName: __ZN7testing8internal15TestFactoryImplIN12_GLOBAL__N_134FindQueryMatches_Intersection_TestEED0Ev, symObjAddr: 0x2FAD4, symBinAddr: 0x10006C0FC, symSize: 0x68 }
  - { offset: 0x3F029, size: 0x8, addend: 0x0, symName: __ZN7testing8internal15TestFactoryImplIN12_GLOBAL__N_134FindQueryMatches_Intersection_TestEE10CreateTestEv, symObjAddr: 0x2FB3C, symBinAddr: 0x10006C164, symSize: 0xFC }
  - { offset: 0x3F04F, size: 0x8, addend: 0x0, symName: __ZN7testing8internal15TestFactoryImplIN12_GLOBAL__N_134FindQueryMatches_Intersection_TestEED2Ev, symObjAddr: 0x2FC38, symBinAddr: 0x10006C260, symSize: 0x64 }
  - { offset: 0x3F07C, size: 0x8, addend: 0x0, symName: __ZN12_GLOBAL__N_134FindQueryMatches_Intersection_TestC1Ev, symObjAddr: 0x2FC9C, symBinAddr: 0x10006C2C4, symSize: 0x64 }
  - { offset: 0x3F0A6, size: 0x8, addend: 0x0, symName: __ZN12_GLOBAL__N_134FindQueryMatches_Intersection_TestC2Ev, symObjAddr: 0x2FD00, symBinAddr: 0x10006C328, symSize: 0xF8 }
  - { offset: 0x3F0D0, size: 0x8, addend: 0x0, symName: __ZN12_GLOBAL__N_134FindQueryMatches_Intersection_TestD1Ev, symObjAddr: 0x2FDF8, symBinAddr: 0x10006C420, symSize: 0x64 }
  - { offset: 0x3F0FA, size: 0x8, addend: 0x0, symName: __ZN12_GLOBAL__N_134FindQueryMatches_Intersection_TestD0Ev, symObjAddr: 0x2FE5C, symBinAddr: 0x10006C484, symSize: 0x68 }
  - { offset: 0x3F124, size: 0x8, addend: 0x0, symName: __ZN12_GLOBAL__N_134FindQueryMatches_Intersection_Test8TestBodyEv, symObjAddr: 0x2FEC4, symBinAddr: 0x10006C4EC, symSize: 0x1900 }
  - { offset: 0x3F1C5, size: 0x8, addend: 0x0, symName: __ZN12_GLOBAL__N_134FindQueryMatches_Intersection_TestD2Ev, symObjAddr: 0x317C4, symBinAddr: 0x10006DDEC, symSize: 0x64 }
  - { offset: 0x3F1EF, size: 0x8, addend: 0x0, symName: __ZNSt16initializer_listINSt3__112basic_stringIcNS0_11char_traitsIcEENS0_9allocatorIcEEEEEC1B8ne190107Ev, symObjAddr: 0x31828, symBinAddr: 0x10006DE50, symSize: 0x64 }
  - { offset: 0x3F219, size: 0x8, addend: 0x0, symName: __ZNSt16initializer_listINSt3__112basic_stringIcNS0_11char_traitsIcEENS0_9allocatorIcEEEEEC2B8ne190107Ev, symObjAddr: 0x3188C, symBinAddr: 0x10006DEB4, symSize: 0xD8 }
  - { offset: 0x3F243, size: 0x8, addend: 0x0, symName: __ZN7testing8internal15TestFactoryImplIN12_GLOBAL__N_132FindQueryMatches_Difference_TestEEC2Ev, symObjAddr: 0x31964, symBinAddr: 0x10006DF8C, symSize: 0xF8 }
  - { offset: 0x3F270, size: 0x8, addend: 0x0, symName: __ZN7testing8internal15TestFactoryImplIN12_GLOBAL__N_132FindQueryMatches_Difference_TestEED1Ev, symObjAddr: 0x31A5C, symBinAddr: 0x10006E084, symSize: 0x64 }
  - { offset: 0x3F29D, size: 0x8, addend: 0x0, symName: __ZN7testing8internal15TestFactoryImplIN12_GLOBAL__N_132FindQueryMatches_Difference_TestEED0Ev, symObjAddr: 0x31AC0, symBinAddr: 0x10006E0E8, symSize: 0x68 }
  - { offset: 0x3F2CA, size: 0x8, addend: 0x0, symName: __ZN7testing8internal15TestFactoryImplIN12_GLOBAL__N_132FindQueryMatches_Difference_TestEE10CreateTestEv, symObjAddr: 0x31B28, symBinAddr: 0x10006E150, symSize: 0xFC }
  - { offset: 0x3F2F0, size: 0x8, addend: 0x0, symName: __ZN7testing8internal15TestFactoryImplIN12_GLOBAL__N_132FindQueryMatches_Difference_TestEED2Ev, symObjAddr: 0x31C24, symBinAddr: 0x10006E24C, symSize: 0x64 }
  - { offset: 0x3F31D, size: 0x8, addend: 0x0, symName: __ZN12_GLOBAL__N_132FindQueryMatches_Difference_TestC1Ev, symObjAddr: 0x31C88, symBinAddr: 0x10006E2B0, symSize: 0x64 }
  - { offset: 0x3F347, size: 0x8, addend: 0x0, symName: __ZN12_GLOBAL__N_132FindQueryMatches_Difference_TestC2Ev, symObjAddr: 0x31CEC, symBinAddr: 0x10006E314, symSize: 0xF8 }
  - { offset: 0x3F371, size: 0x8, addend: 0x0, symName: __ZN12_GLOBAL__N_132FindQueryMatches_Difference_TestD1Ev, symObjAddr: 0x31DE4, symBinAddr: 0x10006E40C, symSize: 0x64 }
  - { offset: 0x3F39B, size: 0x8, addend: 0x0, symName: __ZN12_GLOBAL__N_132FindQueryMatches_Difference_TestD0Ev, symObjAddr: 0x31E48, symBinAddr: 0x10006E470, symSize: 0x68 }
  - { offset: 0x3F3C5, size: 0x8, addend: 0x0, symName: __ZN12_GLOBAL__N_132FindQueryMatches_Difference_Test8TestBodyEv, symObjAddr: 0x31EB0, symBinAddr: 0x10006E4D8, symSize: 0x1D20 }
  - { offset: 0x3F480, size: 0x8, addend: 0x0, symName: __ZN12_GLOBAL__N_132FindQueryMatches_Difference_TestD2Ev, symObjAddr: 0x33BD0, symBinAddr: 0x1000701F8, symSize: 0x64 }
  - { offset: 0x3F4AA, size: 0x8, addend: 0x0, symName: __ZN7testing8internal15TestFactoryImplIN12_GLOBAL__N_141FindQueryMatches_LongCombinedQueries_TestEEC2Ev, symObjAddr: 0x33C34, symBinAddr: 0x10007025C, symSize: 0xF8 }
  - { offset: 0x3F4D7, size: 0x8, addend: 0x0, symName: __ZN7testing8internal15TestFactoryImplIN12_GLOBAL__N_141FindQueryMatches_LongCombinedQueries_TestEED1Ev, symObjAddr: 0x33D2C, symBinAddr: 0x100070354, symSize: 0x64 }
  - { offset: 0x3F504, size: 0x8, addend: 0x0, symName: __ZN7testing8internal15TestFactoryImplIN12_GLOBAL__N_141FindQueryMatches_LongCombinedQueries_TestEED0Ev, symObjAddr: 0x33D90, symBinAddr: 0x1000703B8, symSize: 0x68 }
  - { offset: 0x3F531, size: 0x8, addend: 0x0, symName: __ZN7testing8internal15TestFactoryImplIN12_GLOBAL__N_141FindQueryMatches_LongCombinedQueries_TestEE10CreateTestEv, symObjAddr: 0x33DF8, symBinAddr: 0x100070420, symSize: 0xFC }
  - { offset: 0x3F557, size: 0x8, addend: 0x0, symName: __ZN7testing8internal15TestFactoryImplIN12_GLOBAL__N_141FindQueryMatches_LongCombinedQueries_TestEED2Ev, symObjAddr: 0x33EF4, symBinAddr: 0x10007051C, symSize: 0x64 }
  - { offset: 0x3F584, size: 0x8, addend: 0x0, symName: __ZN12_GLOBAL__N_141FindQueryMatches_LongCombinedQueries_TestC1Ev, symObjAddr: 0x33F58, symBinAddr: 0x100070580, symSize: 0x64 }
  - { offset: 0x3F5AE, size: 0x8, addend: 0x0, symName: __ZN12_GLOBAL__N_141FindQueryMatches_LongCombinedQueries_TestC2Ev, symObjAddr: 0x33FBC, symBinAddr: 0x1000705E4, symSize: 0xF8 }
  - { offset: 0x3F5D8, size: 0x8, addend: 0x0, symName: __ZN12_GLOBAL__N_141FindQueryMatches_LongCombinedQueries_TestD1Ev, symObjAddr: 0x340B4, symBinAddr: 0x1000706DC, symSize: 0x64 }
  - { offset: 0x3F602, size: 0x8, addend: 0x0, symName: __ZN12_GLOBAL__N_141FindQueryMatches_LongCombinedQueries_TestD0Ev, symObjAddr: 0x34118, symBinAddr: 0x100070740, symSize: 0x68 }
  - { offset: 0x3F62C, size: 0x8, addend: 0x0, symName: __ZN12_GLOBAL__N_141FindQueryMatches_LongCombinedQueries_Test8TestBodyEv, symObjAddr: 0x34180, symBinAddr: 0x1000707A8, symSize: 0x1398 }
  - { offset: 0x3F6B3, size: 0x8, addend: 0x0, symName: __ZN12_GLOBAL__N_141FindQueryMatches_LongCombinedQueries_TestD2Ev, symObjAddr: 0x35518, symBinAddr: 0x100071B40, symSize: 0x64 }
  - { offset: 0x3F6EE, size: 0x8, addend: 0x0, symName: __GLOBAL__sub_I_find_query_matches_tests.cpp, symObjAddr: 0x42888, symBinAddr: 0x100075B08, symSize: 0x38 }
  - { offset: 0x4169F, size: 0x8, addend: 0x0, symName: _.str, symObjAddr: 0x2E280, symBinAddr: 0x100187880, symSize: 0x0 }
  - { offset: 0x416CF, size: 0x8, addend: 0x0, symName: _.str.1, symObjAddr: 0x2E2A0, symBinAddr: 0x1001878A0, symSize: 0x0 }
  - { offset: 0x416EB, size: 0x8, addend: 0x0, symName: __ZN12_GLOBAL__N_127GatherTokens_BasicTest_Test10test_info_E, symObjAddr: 0xC74A0, symBinAddr: 0x10028C620, symSize: 0x0 }
  - { offset: 0x417B7, size: 0x8, addend: 0x0, symName: __ZN12_GLOBAL__N_121GatherTokens_Nom_Test10test_info_E, symObjAddr: 0xC74C0, symBinAddr: 0x10028C640, symSize: 0x0 }
  - { offset: 0x41883, size: 0x8, addend: 0x0, symName: __ZN12_GLOBAL__N_124GatherTokens_Colors_Test10test_info_E, symObjAddr: 0xC74E0, symBinAddr: 0x10028C660, symSize: 0x0 }
  - { offset: 0x4ABE3, size: 0x8, addend: 0x0, symName: _.str.4, symObjAddr: 0x2E2C0, symBinAddr: 0x1001878C0, symSize: 0x0 }
  - { offset: 0x4AC1C, size: 0x8, addend: 0x0, symName: _.str.6, symObjAddr: 0x2E2E0, symBinAddr: 0x1001878E0, symSize: 0x0 }
  - { offset: 0x4AC55, size: 0x8, addend: 0x0, symName: _.str.10, symObjAddr: 0x2E3E0, symBinAddr: 0x1001879E0, symSize: 0x0 }
  - { offset: 0x4AC72, size: 0x8, addend: 0x0, symName: _.str.11, symObjAddr: 0x2E420, symBinAddr: 0x100187A20, symSize: 0x0 }
  - { offset: 0x4AC8F, size: 0x8, addend: 0x0, symName: _.str.12, symObjAddr: 0x2E440, symBinAddr: 0x100187A40, symSize: 0x0 }
  - { offset: 0x4ACA0, size: 0x8, addend: 0x0, symName: _.str.13, symObjAddr: 0x2E460, symBinAddr: 0x100187A60, symSize: 0x0 }
  - { offset: 0x4ACB1, size: 0x8, addend: 0x0, symName: _.str.14, symObjAddr: 0x2E480, symBinAddr: 0x100187A80, symSize: 0x0 }
  - { offset: 0x4ACC2, size: 0x8, addend: 0x0, symName: _.str.15, symObjAddr: 0x2E4A0, symBinAddr: 0x100187AA0, symSize: 0x0 }
  - { offset: 0x4ACD3, size: 0x8, addend: 0x0, symName: _.str.16, symObjAddr: 0x2E4E0, symBinAddr: 0x100187AE0, symSize: 0x0 }
  - { offset: 0x4ACE4, size: 0x8, addend: 0x0, symName: _.str.17, symObjAddr: 0x2E500, symBinAddr: 0x100187B00, symSize: 0x0 }
  - { offset: 0x4AD03, size: 0x8, addend: 0x0, symName: _.str.35, symObjAddr: 0x2E520, symBinAddr: 0x100187B20, symSize: 0x0 }
  - { offset: 0x4AD22, size: 0x8, addend: 0x0, symName: _.str.36, symObjAddr: 0x2E540, symBinAddr: 0x100187B40, symSize: 0x0 }
  - { offset: 0x4AD35, size: 0x8, addend: 0x0, symName: _.str.37, symObjAddr: 0x2E560, symBinAddr: 0x100187B60, symSize: 0x0 }
  - { offset: 0x4AD48, size: 0x8, addend: 0x0, symName: _.str.38, symObjAddr: 0x2E580, symBinAddr: 0x100187B80, symSize: 0x0 }
  - { offset: 0x4AD67, size: 0x8, addend: 0x0, symName: _.str.39, symObjAddr: 0x2E620, symBinAddr: 0x100187C20, symSize: 0x0 }
  - { offset: 0x4AD84, size: 0x8, addend: 0x0, symName: _.str.40, symObjAddr: 0x2E640, symBinAddr: 0x100187C40, symSize: 0x0 }
  - { offset: 0x4ADA1, size: 0x8, addend: 0x0, symName: _.str.41, symObjAddr: 0x2E660, symBinAddr: 0x100187C60, symSize: 0x0 }
  - { offset: 0x4ADB4, size: 0x8, addend: 0x0, symName: _.str.42, symObjAddr: 0x2E680, symBinAddr: 0x100187C80, symSize: 0x0 }
  - { offset: 0x4ADD1, size: 0x8, addend: 0x0, symName: _.str.44, symObjAddr: 0x2E6A0, symBinAddr: 0x100187CA0, symSize: 0x0 }
  - { offset: 0x4ADF0, size: 0x8, addend: 0x0, symName: _.str.51, symObjAddr: 0x2E6C0, symBinAddr: 0x100187CC0, symSize: 0x0 }
  - { offset: 0x4AE0F, size: 0x8, addend: 0x0, symName: _.str.52, symObjAddr: 0x2E6E0, symBinAddr: 0x100187CE0, symSize: 0x0 }
  - { offset: 0x4AE22, size: 0x8, addend: 0x0, symName: _.str.53, symObjAddr: 0x2E700, symBinAddr: 0x100187D00, symSize: 0x0 }
  - { offset: 0x4AE41, size: 0x8, addend: 0x0, symName: _.str.54, symObjAddr: 0x2E760, symBinAddr: 0x100187D60, symSize: 0x0 }
  - { offset: 0x4AE54, size: 0x8, addend: 0x0, symName: _.str.55, symObjAddr: 0x2E780, symBinAddr: 0x100187D80, symSize: 0x0 }
  - { offset: 0x4AE67, size: 0x8, addend: 0x0, symName: _.str.56, symObjAddr: 0x2E7A0, symBinAddr: 0x100187DA0, symSize: 0x0 }
  - { offset: 0x4B1BF, size: 0x8, addend: 0x0, symName: _.str.62, symObjAddr: 0x2E800, symBinAddr: 0x100187E00, symSize: 0x0 }
  - { offset: 0x4B1D2, size: 0x8, addend: 0x0, symName: _.str.66, symObjAddr: 0x2E860, symBinAddr: 0x100187E60, symSize: 0x0 }
  - { offset: 0x4B1E3, size: 0x8, addend: 0x0, symName: _.str.69, symObjAddr: 0x2E880, symBinAddr: 0x100187E80, symSize: 0x0 }
  - { offset: 0x4B1F6, size: 0x8, addend: 0x0, symName: _.str.71, symObjAddr: 0x2E8A0, symBinAddr: 0x100187EA0, symSize: 0x0 }
  - { offset: 0x4B207, size: 0x8, addend: 0x0, symName: _.str.75, symObjAddr: 0x37BE0, symBinAddr: 0x1001BA0C0, symSize: 0x0 }
  - { offset: 0x4B224, size: 0x8, addend: 0x0, symName: _.str.77, symObjAddr: 0x2E9A0, symBinAddr: 0x100187FA0, symSize: 0x0 }
  - { offset: 0x4B241, size: 0x8, addend: 0x0, symName: _.str.78, symObjAddr: 0x2E9E0, symBinAddr: 0x100187FE0, symSize: 0x0 }
  - { offset: 0x4B252, size: 0x8, addend: 0x0, symName: _.str.79, symObjAddr: 0x2EA00, symBinAddr: 0x100188000, symSize: 0x0 }
  - { offset: 0x4B263, size: 0x8, addend: 0x0, symName: _.str.80, symObjAddr: 0x2EA20, symBinAddr: 0x100188020, symSize: 0x0 }
  - { offset: 0x4B274, size: 0x8, addend: 0x0, symName: _.str.81, symObjAddr: 0x2EA40, symBinAddr: 0x100188040, symSize: 0x0 }
  - { offset: 0x4B285, size: 0x8, addend: 0x0, symName: _.str.82, symObjAddr: 0x2EB40, symBinAddr: 0x100188140, symSize: 0x0 }
  - { offset: 0x4B2A2, size: 0x8, addend: 0x0, symName: _.str.83, symObjAddr: 0x2EBA0, symBinAddr: 0x1001881A0, symSize: 0x0 }
  - { offset: 0x4B2B3, size: 0x8, addend: 0x0, symName: _.str.84, symObjAddr: 0x2EBC0, symBinAddr: 0x1001881C0, symSize: 0x0 }
  - { offset: 0x4B2C4, size: 0x8, addend: 0x0, symName: _.str.85, symObjAddr: 0x2EBE0, symBinAddr: 0x1001881E0, symSize: 0x0 }
  - { offset: 0x4B2D5, size: 0x8, addend: 0x0, symName: _.str.86, symObjAddr: 0x2EC00, symBinAddr: 0x100188200, symSize: 0x0 }
  - { offset: 0x4B2E6, size: 0x8, addend: 0x0, symName: _.str.87, symObjAddr: 0x2EC20, symBinAddr: 0x100188220, symSize: 0x0 }
  - { offset: 0x4B2F7, size: 0x8, addend: 0x0, symName: _.str.88, symObjAddr: 0x2EC40, symBinAddr: 0x100188240, symSize: 0x0 }
  - { offset: 0x4B308, size: 0x8, addend: 0x0, symName: _.str.89, symObjAddr: 0x2EC60, symBinAddr: 0x100188260, symSize: 0x0 }
  - { offset: 0x4B31B, size: 0x8, addend: 0x0, symName: _.str.90, symObjAddr: 0x2EC80, symBinAddr: 0x100188280, symSize: 0x0 }
  - { offset: 0x4B33A, size: 0x8, addend: 0x0, symName: _.str.91, symObjAddr: 0x2ECE0, symBinAddr: 0x1001882E0, symSize: 0x0 }
  - { offset: 0x4B359, size: 0x8, addend: 0x0, symName: _.str.92, symObjAddr: 0x2ED80, symBinAddr: 0x100188380, symSize: 0x0 }
  - { offset: 0x4B36C, size: 0x8, addend: 0x0, symName: _.str.93, symObjAddr: 0x2EDA0, symBinAddr: 0x1001883A0, symSize: 0x0 }
  - { offset: 0x4B389, size: 0x8, addend: 0x0, symName: ___cxx_global_var_init, symObjAddr: 0x2CB1C, symBinAddr: 0x10007941C, symSize: 0x4A4 }
  - { offset: 0x4B3AE, size: 0x8, addend: 0x0, symName: __ZN7testing8internal15TestFactoryImplIN12_GLOBAL__N_127GatherTokens_BasicTest_TestEEC1Ev, symObjAddr: 0xAEC, symBinAddr: 0x100075B40, symSize: 0x64 }
  - { offset: 0x4B3DB, size: 0x8, addend: 0x0, symName: ___cxx_global_var_init.3, symObjAddr: 0x2CFC0, symBinAddr: 0x1000798C0, symSize: 0x4A4 }
  - { offset: 0x4B3F4, size: 0x8, addend: 0x0, symName: __ZN7testing8internal15TestFactoryImplIN12_GLOBAL__N_121GatherTokens_Nom_TestEEC1Ev, symObjAddr: 0xBB4, symBinAddr: 0x100075BA4, symSize: 0x64 }
  - { offset: 0x4B421, size: 0x8, addend: 0x0, symName: ___cxx_global_var_init.5, symObjAddr: 0x2D464, symBinAddr: 0x100079D64, symSize: 0x4A4 }
  - { offset: 0x4B43A, size: 0x8, addend: 0x0, symName: __ZN7testing8internal15TestFactoryImplIN12_GLOBAL__N_124GatherTokens_Colors_TestEEC1Ev, symObjAddr: 0xC18, symBinAddr: 0x100075C08, symSize: 0x64 }
  - { offset: 0x4B467, size: 0x8, addend: 0x0, symName: __ZN7testing8internal15TestFactoryImplIN12_GLOBAL__N_127GatherTokens_BasicTest_TestEEC2Ev, symObjAddr: 0x2038, symBinAddr: 0x100075C6C, symSize: 0xF8 }
  - { offset: 0x4B494, size: 0x8, addend: 0x0, symName: __ZN7testing8internal15TestFactoryImplIN12_GLOBAL__N_127GatherTokens_BasicTest_TestEED1Ev, symObjAddr: 0x21E4, symBinAddr: 0x100075D64, symSize: 0x64 }
  - { offset: 0x4B4C1, size: 0x8, addend: 0x0, symName: __ZN7testing8internal15TestFactoryImplIN12_GLOBAL__N_127GatherTokens_BasicTest_TestEED0Ev, symObjAddr: 0x2248, symBinAddr: 0x100075DC8, symSize: 0x68 }
  - { offset: 0x4B4EE, size: 0x8, addend: 0x0, symName: __ZN7testing8internal15TestFactoryImplIN12_GLOBAL__N_127GatherTokens_BasicTest_TestEE10CreateTestEv, symObjAddr: 0x22B0, symBinAddr: 0x100075E30, symSize: 0xFC }
  - { offset: 0x4B514, size: 0x8, addend: 0x0, symName: __ZN7testing8internal15TestFactoryImplIN12_GLOBAL__N_127GatherTokens_BasicTest_TestEED2Ev, symObjAddr: 0x2450, symBinAddr: 0x100075F2C, symSize: 0x64 }
  - { offset: 0x4B541, size: 0x8, addend: 0x0, symName: __ZN12_GLOBAL__N_127GatherTokens_BasicTest_TestC1Ev, symObjAddr: 0x2510, symBinAddr: 0x100075F90, symSize: 0x64 }
  - { offset: 0x4B56B, size: 0x8, addend: 0x0, symName: __ZN12_GLOBAL__N_127GatherTokens_BasicTest_TestC2Ev, symObjAddr: 0x2574, symBinAddr: 0x100075FF4, symSize: 0xF8 }
  - { offset: 0x4B595, size: 0x8, addend: 0x0, symName: __ZN12_GLOBAL__N_127GatherTokens_BasicTest_TestD1Ev, symObjAddr: 0x266C, symBinAddr: 0x1000760EC, symSize: 0x64 }
  - { offset: 0x4B5BF, size: 0x8, addend: 0x0, symName: __ZN12_GLOBAL__N_127GatherTokens_BasicTest_TestD0Ev, symObjAddr: 0x26D0, symBinAddr: 0x100076150, symSize: 0x68 }
  - { offset: 0x4B5E9, size: 0x8, addend: 0x0, symName: __ZN12_GLOBAL__N_127GatherTokens_BasicTest_Test8TestBodyEv, symObjAddr: 0x2738, symBinAddr: 0x1000761B8, symSize: 0xB34 }
  - { offset: 0x4B64E, size: 0x8, addend: 0x0, symName: __ZN12_GLOBAL__N_127GatherTokens_BasicTest_TestD2Ev, symObjAddr: 0x32C4, symBinAddr: 0x100076CEC, symSize: 0x64 }
  - { offset: 0x4B792, size: 0x8, addend: 0x0, symName: __ZN7testing7MessagelsIA7_cEERS0_RKT_, symObjAddr: 0x4854, symBinAddr: 0x100076D50, symSize: 0x140 }
  - { offset: 0x4B81E, size: 0x8, addend: 0x0, symName: __ZN7testing7MessagelsIA2_cEERS0_RKT_, symObjAddr: 0x4B0C, symBinAddr: 0x100076E90, symSize: 0x140 }
  - { offset: 0x4B8A4, size: 0x8, addend: 0x0, symName: __ZN7testing8internal15TestFactoryImplIN12_GLOBAL__N_121GatherTokens_Nom_TestEEC2Ev, symObjAddr: 0x2A654, symBinAddr: 0x100076FD0, symSize: 0xF8 }
  - { offset: 0x4B8D1, size: 0x8, addend: 0x0, symName: __ZN7testing8internal15TestFactoryImplIN12_GLOBAL__N_121GatherTokens_Nom_TestEED1Ev, symObjAddr: 0x2A74C, symBinAddr: 0x1000770C8, symSize: 0x64 }
  - { offset: 0x4B8FE, size: 0x8, addend: 0x0, symName: __ZN7testing8internal15TestFactoryImplIN12_GLOBAL__N_121GatherTokens_Nom_TestEED0Ev, symObjAddr: 0x2A7B0, symBinAddr: 0x10007712C, symSize: 0x68 }
  - { offset: 0x4B92B, size: 0x8, addend: 0x0, symName: __ZN7testing8internal15TestFactoryImplIN12_GLOBAL__N_121GatherTokens_Nom_TestEE10CreateTestEv, symObjAddr: 0x2A818, symBinAddr: 0x100077194, symSize: 0xFC }
  - { offset: 0x4B951, size: 0x8, addend: 0x0, symName: __ZN7testing8internal15TestFactoryImplIN12_GLOBAL__N_121GatherTokens_Nom_TestEED2Ev, symObjAddr: 0x2A914, symBinAddr: 0x100077290, symSize: 0x64 }
  - { offset: 0x4B97E, size: 0x8, addend: 0x0, symName: __ZN12_GLOBAL__N_121GatherTokens_Nom_TestC1Ev, symObjAddr: 0x2A978, symBinAddr: 0x1000772F4, symSize: 0x64 }
  - { offset: 0x4B9A8, size: 0x8, addend: 0x0, symName: __ZN12_GLOBAL__N_121GatherTokens_Nom_TestC2Ev, symObjAddr: 0x2A9DC, symBinAddr: 0x100077358, symSize: 0xF8 }
  - { offset: 0x4B9D2, size: 0x8, addend: 0x0, symName: __ZN12_GLOBAL__N_121GatherTokens_Nom_TestD1Ev, symObjAddr: 0x2AAD4, symBinAddr: 0x100077450, symSize: 0x64 }
  - { offset: 0x4B9FC, size: 0x8, addend: 0x0, symName: __ZN12_GLOBAL__N_121GatherTokens_Nom_TestD0Ev, symObjAddr: 0x2AB38, symBinAddr: 0x1000774B4, symSize: 0x68 }
  - { offset: 0x4BA26, size: 0x8, addend: 0x0, symName: __ZN12_GLOBAL__N_121GatherTokens_Nom_Test8TestBodyEv, symObjAddr: 0x2ABA0, symBinAddr: 0x10007751C, symSize: 0xC0C }
  - { offset: 0x4BA8B, size: 0x8, addend: 0x0, symName: __ZN12_GLOBAL__N_121GatherTokens_Nom_TestD2Ev, symObjAddr: 0x2B7AC, symBinAddr: 0x100078128, symSize: 0x64 }
  - { offset: 0x4BAB5, size: 0x8, addend: 0x0, symName: __ZN7testing8internal15TestFactoryImplIN12_GLOBAL__N_124GatherTokens_Colors_TestEEC2Ev, symObjAddr: 0x2B810, symBinAddr: 0x10007818C, symSize: 0xF8 }
  - { offset: 0x4BAE2, size: 0x8, addend: 0x0, symName: __ZN7testing8internal15TestFactoryImplIN12_GLOBAL__N_124GatherTokens_Colors_TestEED1Ev, symObjAddr: 0x2B908, symBinAddr: 0x100078284, symSize: 0x64 }
  - { offset: 0x4BB0F, size: 0x8, addend: 0x0, symName: __ZN7testing8internal15TestFactoryImplIN12_GLOBAL__N_124GatherTokens_Colors_TestEED0Ev, symObjAddr: 0x2B96C, symBinAddr: 0x1000782E8, symSize: 0x68 }
  - { offset: 0x4BB3C, size: 0x8, addend: 0x0, symName: __ZN7testing8internal15TestFactoryImplIN12_GLOBAL__N_124GatherTokens_Colors_TestEE10CreateTestEv, symObjAddr: 0x2B9D4, symBinAddr: 0x100078350, symSize: 0xFC }
  - { offset: 0x4BB62, size: 0x8, addend: 0x0, symName: __ZN7testing8internal15TestFactoryImplIN12_GLOBAL__N_124GatherTokens_Colors_TestEED2Ev, symObjAddr: 0x2BAD0, symBinAddr: 0x10007844C, symSize: 0x64 }
  - { offset: 0x4BB8F, size: 0x8, addend: 0x0, symName: __ZN12_GLOBAL__N_124GatherTokens_Colors_TestC1Ev, symObjAddr: 0x2BB34, symBinAddr: 0x1000784B0, symSize: 0x64 }
  - { offset: 0x4BBB9, size: 0x8, addend: 0x0, symName: __ZN12_GLOBAL__N_124GatherTokens_Colors_TestC2Ev, symObjAddr: 0x2BB98, symBinAddr: 0x100078514, symSize: 0xF8 }
  - { offset: 0x4BBE3, size: 0x8, addend: 0x0, symName: __ZN12_GLOBAL__N_124GatherTokens_Colors_TestD1Ev, symObjAddr: 0x2BC90, symBinAddr: 0x10007860C, symSize: 0x64 }
  - { offset: 0x4BC0D, size: 0x8, addend: 0x0, symName: __ZN12_GLOBAL__N_124GatherTokens_Colors_TestD0Ev, symObjAddr: 0x2BCF4, symBinAddr: 0x100078670, symSize: 0x68 }
  - { offset: 0x4BC37, size: 0x8, addend: 0x0, symName: __ZN12_GLOBAL__N_124GatherTokens_Colors_Test8TestBodyEv, symObjAddr: 0x2BD5C, symBinAddr: 0x1000786D8, symSize: 0xC50 }
  - { offset: 0x4BC9C, size: 0x8, addend: 0x0, symName: __ZN12_GLOBAL__N_124GatherTokens_Colors_TestD2Ev, symObjAddr: 0x2C9AC, symBinAddr: 0x100079328, symSize: 0x64 }
  - { offset: 0x4BCC6, size: 0x8, addend: 0x0, symName: __GLOBAL__sub_I_gather_tokens_tests.cpp, symObjAddr: 0x2D908, symBinAddr: 0x10007A208, symSize: 0x2C }
  - { offset: 0x4DBE0, size: 0x8, addend: 0x0, symName: _.str, symObjAddr: 0xDA600, symBinAddr: 0x100188440, symSize: 0x0 }
  - { offset: 0x4DC10, size: 0x8, addend: 0x0, symName: _.str.1, symObjAddr: 0xDA620, symBinAddr: 0x100188460, symSize: 0x0 }
  - { offset: 0x4DC2C, size: 0x8, addend: 0x0, symName: __ZN12_GLOBAL__N_129SearchEngine_MissingFile_Test10test_info_E, symObjAddr: 0x275740, symBinAddr: 0x10028C680, symSize: 0x0 }
  - { offset: 0x4DDBE, size: 0x8, addend: 0x0, symName: __ZN12_GLOBAL__N_127SearchEngine_cplusplus_Test10test_info_E, symObjAddr: 0x275760, symBinAddr: 0x10028C6A0, symSize: 0x0 }
  - { offset: 0x4DE8C, size: 0x8, addend: 0x0, symName: __ZN12_GLOBAL__N_128SearchEngine_uiccs_news_Test10test_info_E, symObjAddr: 0x275780, symBinAddr: 0x10028C6C0, symSize: 0x0 }
  - { offset: 0x4DF55, size: 0x8, addend: 0x0, symName: __ZN12_GLOBAL__N_115strWhitespaceEqENSt3__112basic_stringIcNS0_11char_traitsIcEENS0_9allocatorIcEEEES6_, symObjAddr: 0x8624, symBinAddr: 0x10007F098, symSize: 0x6C8 }
  - { offset: 0x4E011, size: 0x8, addend: 0x0, symName: __ZN7testing8internal12TypeIdHelperIN12_GLOBAL__N_112SearchEngineEE6dummy_E, symObjAddr: 0x2757A0, symBinAddr: 0x10028C6E0, symSize: 0x0 }
  - { offset: 0x4E040, size: 0x8, addend: 0x0, symName: __ZN7testing8internal9GetTypeIdIN12_GLOBAL__N_112SearchEngineEEEPKvv, symObjAddr: 0xEC, symBinAddr: 0x10007A23C, symSize: 0xC }
  - { offset: 0x574A9, size: 0x8, addend: 0x0, symName: __ZNSt3__115regex_constantsanB8ne190107ENS0_15match_flag_typeES1_, symObjAddr: 0x187A0, symBinAddr: 0x1000889E8, symSize: 0x7C }
  - { offset: 0x574E6, size: 0x8, addend: 0x0, symName: __ZNSt3__115regex_constantsaNB8ne190107ERNS0_15match_flag_typeES1_, symObjAddr: 0x24270, symBinAddr: 0x1000944B8, symSize: 0x180 }
  - { offset: 0x57523, size: 0x8, addend: 0x0, symName: __ZNSt3__115regex_constantscoB8ne190107ENS0_15match_flag_typeE, symObjAddr: 0x243F8, symBinAddr: 0x100094640, symSize: 0x54 }
  - { offset: 0x57551, size: 0x8, addend: 0x0, symName: __ZNSt3__115regex_constantsorB8ne190107ENS0_15match_flag_typeES1_, symObjAddr: 0x24454, symBinAddr: 0x10009469C, symSize: 0x7C }
  - { offset: 0x5758E, size: 0x8, addend: 0x0, symName: __ZNSt3__115regex_constantsoRB8ne190107ERNS0_15match_flag_typeES1_, symObjAddr: 0x25268, symBinAddr: 0x1000954B0, symSize: 0x180 }
  - { offset: 0x575CB, size: 0x8, addend: 0x0, symName: __ZNSt3__115regex_constants13__get_grammarB8ne190107ENS0_18syntax_option_typeE, symObjAddr: 0x25E78, symBinAddr: 0x1000960C0, symSize: 0x4C }
  - { offset: 0x575F9, size: 0x8, addend: 0x0, symName: __ZNSt3__115regex_constantsoRB8ne190107ERNS0_18syntax_option_typeES1_, symObjAddr: 0x7189C, symBinAddr: 0x1000E14D0, symSize: 0x180 }
  - { offset: 0x57636, size: 0x8, addend: 0x0, symName: __ZNSt3__115regex_constantsorB8ne190107ENS0_18syntax_option_typeES1_, symObjAddr: 0x72118, symBinAddr: 0x1000E1D4C, symSize: 0x7C }
  - { offset: 0x57673, size: 0x8, addend: 0x0, symName: __ZNSt3__115regex_constantsanB8ne190107ENS0_18syntax_option_typeES1_, symObjAddr: 0x7FE60, symBinAddr: 0x1000EFA94, symSize: 0x7C }
  - { offset: 0x576C8, size: 0x8, addend: 0x0, symName: __ZNSt3__16ranges5__cpo9iter_moveE, symObjAddr: 0xEA0C8, symBinAddr: 0x1001C2668, symSize: 0x0 }
  - { offset: 0x5CFC2, size: 0x8, addend: 0x0, symName: __ZNSt3__17advanceB8ne190107IPNS_12basic_stringIcNS_11char_traitsIcEENS_9allocatorIcEEEEllTnNS_9enable_ifIXsr11is_integralIT1_EE5valueEiE4typeELi0EEEvRT_T0_, symObjAddr: 0x129E0, symBinAddr: 0x100085068, symSize: 0x70 }
  - { offset: 0x65834, size: 0x8, addend: 0x0, symName: __ZNSt3__17advanceB8ne190107IPNS_7__stateIcEEllTnNS_9enable_ifIXsr11is_integralIT1_EE5valueEiE4typeELi0EEEvRT_T0_, symObjAddr: 0x35050, symBinAddr: 0x1000A5298, symSize: 0x70 }
  - { offset: 0x658A5, size: 0x8, addend: 0x0, symName: __ZNSt3__17advanceB8ne190107IPKcllTnNS_9enable_ifIXsr11is_integralIT1_EE5valueEiE4typeELi0EEEvRT_T0_, symObjAddr: 0x413A8, symBinAddr: 0x1000B15F0, symSize: 0x70 }
  - { offset: 0x65D41, size: 0x8, addend: 0x0, symName: __ZNSt3__17advanceB8ne190107IPNS_9sub_matchIPKcEEllTnNS_9enable_ifIXsr11is_integralIT1_EE5valueEiE4typeELi0EEEvRT_T0_, symObjAddr: 0x44D8C, symBinAddr: 0x1000B4FD4, symSize: 0x70 }
  - { offset: 0x661DD, size: 0x8, addend: 0x0, symName: __ZNSt3__17advanceB8ne190107IPNS_4pairImPKcEEllTnNS_9enable_ifIXsr11is_integralIT1_EE5valueEiE4typeELi0EEEvRT_T0_, symObjAddr: 0x488A8, symBinAddr: 0x1000B8AF0, symSize: 0x70 }
  - { offset: 0x66B65, size: 0x8, addend: 0x0, symName: __ZNSt3__17advanceB8ne190107INS_11__wrap_iterIPKcEEllTnNS_9enable_ifIXsr11is_integralIT1_EE5valueEiE4typeELi0EEEvRT_T0_, symObjAddr: 0x690F4, symBinAddr: 0x1000D90DC, symSize: 0x70 }
  - { offset: 0x672D0, size: 0x8, addend: 0x0, symName: __ZNSt3__14endlB8ne190107IcNS_11char_traitsIcEEEERNS_13basic_ostreamIT_T0_EES7_, symObjAddr: 0x76D8, symBinAddr: 0x10007E3F0, symSize: 0x348 }
  - { offset: 0x674E2, size: 0x8, addend: 0x0, symName: __ZNSt3__1eqB8ne190107IPNS_12basic_stringIcNS_11char_traitsIcEENS_9allocatorIcEEEEEEbRKNS_11__wrap_iterIT_EESC_, symObjAddr: 0x7F04, symBinAddr: 0x10007EC1C, symSize: 0x90 }
  - { offset: 0x6754E, size: 0x8, addend: 0x0, symName: __ZNSt3__122__make_exception_guardB8ne190107INS_6vectorINS_12basic_stringIcNS_11char_traitsIcEENS_9allocatorIcEEEENS5_IS7_EEE16__destroy_vectorEEENS_28__exception_guard_exceptionsIT_EESC_, symObjAddr: 0xD0C4, symBinAddr: 0x100080230, symSize: 0x74 }
  - { offset: 0x67583, size: 0x8, addend: 0x0, symName: __ZNSt3__119__allocate_at_leastB8ne190107INS_9allocatorINS_12basic_stringIcNS_11char_traitsIcEENS1_IcEEEEEEEENS_19__allocation_resultINS_16allocator_traitsIT_E7pointerEEERSA_m, symObjAddr: 0xE670, symBinAddr: 0x1000815BC, symSize: 0x40 }
  - { offset: 0x677B1, size: 0x8, addend: 0x0, symName: __ZNSt3__120__throw_length_errorB8ne190107EPKc, symObjAddr: 0xF118, symBinAddr: 0x100081C14, symSize: 0xA4 }
  - { offset: 0x677DA, size: 0x8, addend: 0x0, symName: __ZNSt3__131__annotate_contiguous_containerB8ne190107INS_9allocatorINS_12basic_stringIcNS_11char_traitsIcEENS1_IcEEEEEEEEvPKvS9_S9_S9_, symObjAddr: 0xFB40, symBinAddr: 0x100082414, symSize: 0x4C }
  - { offset: 0x67836, size: 0x8, addend: 0x0, symName: __ZNSt3__112__to_addressB8ne190107INS_12basic_stringIcNS_11char_traitsIcEENS_9allocatorIcEEEEEEPT_S8_, symObjAddr: 0xFB94, symBinAddr: 0x100082468, symSize: 0x14 }
  - { offset: 0x6786B, size: 0x8, addend: 0x0, symName: __ZNSt3__130__uninitialized_allocator_copyB8ne190107INS_9allocatorINS_12basic_stringIcNS_11char_traitsIcEENS1_IcEEEEEEPKS6_S9_PS6_EET2_RT_T0_T1_SB_, symObjAddr: 0xFE74, symBinAddr: 0x1000826BC, symSize: 0x264 }
  - { offset: 0x67911, size: 0x8, addend: 0x0, symName: __ZNSt3__114__unwrap_rangeB8ne190107IPKNS_12basic_stringIcNS_11char_traitsIcEENS_9allocatorIcEEEES8_EEDaT_T0_, symObjAddr: 0x10840, symBinAddr: 0x100083088, symSize: 0x3C }
  - { offset: 0x6795D, size: 0x8, addend: 0x0, symName: __ZNSt3__135__uninitialized_allocator_copy_implB8ne190107INS_9allocatorINS_12basic_stringIcNS_11char_traitsIcEENS1_IcEEEEEEPKS6_S9_PS6_EET2_RT_T0_T1_SB_, symObjAddr: 0x10884, symBinAddr: 0x1000830CC, symSize: 0x520 }
  - { offset: 0x67A09, size: 0x8, addend: 0x0, symName: __ZNSt3__113__unwrap_iterB8ne190107IPNS_12basic_stringIcNS_11char_traitsIcEENS_9allocatorIcEEEENS_18__unwrap_iter_implIS7_Lb1EEETnNS_9enable_ifIXsr21is_copy_constructibleIT_EE5valueEiE4typeELi0EEEDTclsrT0_8__unwrapclsr3stdE7declvalISB_EEEESB_, symObjAddr: 0x10DAC, symBinAddr: 0x1000835F4, symSize: 0x24 }
  - { offset: 0x67A4D, size: 0x8, addend: 0x0, symName: __ZNSt3__113__rewrap_iterB8ne190107IPNS_12basic_stringIcNS_11char_traitsIcEENS_9allocatorIcEEEES7_NS_18__unwrap_iter_implIS7_Lb1EEEEET_SA_T0_, symObjAddr: 0x10DD8, symBinAddr: 0x100083620, symSize: 0x48 }
  - { offset: 0x67BA4, size: 0x8, addend: 0x0, symName: __ZNSt3__113__unwrap_iterB8ne190107IPKNS_12basic_stringIcNS_11char_traitsIcEENS_9allocatorIcEEEENS_18__unwrap_iter_implIS8_Lb1EEETnNS_9enable_ifIXsr21is_copy_constructibleIT_EE5valueEiE4typeELi0EEEDTclsrT0_8__unwrapclsr3stdE7declvalISC_EEEESC_, symObjAddr: 0x11078, symBinAddr: 0x1000838C0, symSize: 0x24 }
  - { offset: 0x67C3C, size: 0x8, addend: 0x0, symName: __ZNSt3__112__to_addressB8ne190107IKNS_12basic_stringIcNS_11char_traitsIcEENS_9allocatorIcEEEEEEPT_S9_, symObjAddr: 0x11144, symBinAddr: 0x10008398C, symSize: 0x14 }
  - { offset: 0x67C71, size: 0x8, addend: 0x0, symName: __ZNSt3__122__make_exception_guardB8ne190107INS_29_AllocatorDestroyRangeReverseINS_9allocatorINS_12basic_stringIcNS_11char_traitsIcEENS2_IcEEEEEEPS7_EEEENS_28__exception_guard_exceptionsIT_EESC_, symObjAddr: 0x11338, symBinAddr: 0x100083B80, symSize: 0x204 }
  - { offset: 0x67CA8, size: 0x8, addend: 0x0, symName: __ZNSt3__119__allocator_destroyB8ne190107INS_9allocatorINS_12basic_stringIcNS_11char_traitsIcEENS1_IcEEEEEENS_16reverse_iteratorIPS6_EESA_EEvRT_T0_T1_, symObjAddr: 0x12068, symBinAddr: 0x100084754, symSize: 0x244 }
  - { offset: 0x67D14, size: 0x8, addend: 0x0, symName: __ZNSt3__1neB8ne190107IPNS_12basic_stringIcNS_11char_traitsIcEENS_9allocatorIcEEEES7_EEbRKNS_16reverse_iteratorIT_EERKNS8_IT0_EEQrqXnecldtfp_4baseEcldtfp0_4baseERNS_14convertible_toIbEEE, symObjAddr: 0x12320, symBinAddr: 0x100084A0C, symSize: 0x90 }
  - { offset: 0x67D60, size: 0x8, addend: 0x0, symName: __ZNSt3__112__to_addressB8ne190107INS_16reverse_iteratorIPNS_12basic_stringIcNS_11char_traitsIcEENS_9allocatorIcEEEEEETnNS_9enable_ifIXsr4_AndINS_8is_classIT_EENS_15_IsFancyPointerISC_EEEE5valueEiE4typeELi0EEEu7__decayIDTclsr19__to_address_helperISC_EE6__callclsr3stdE7declvalIRKSC_EEEEESJ_, symObjAddr: 0x123E8, symBinAddr: 0x100084AD4, symSize: 0x5C }
  - { offset: 0x67DC5, size: 0x8, addend: 0x0, symName: __ZNSt3__14prevB8ne190107IPNS_12basic_stringIcNS_11char_traitsIcEENS_9allocatorIcEEEETnNS_9enable_ifIXsr29__has_input_iterator_categoryIT_EE5valueEiE4typeELi0EEES9_S9_NS_15iterator_traitsIS9_E15difference_typeE, symObjAddr: 0x127EC, symBinAddr: 0x100084E74, symSize: 0x1EC }
  - { offset: 0x67E14, size: 0x8, addend: 0x0, symName: __ZNSt3__19__advanceB8ne190107IPNS_12basic_stringIcNS_11char_traitsIcEENS_9allocatorIcEEEEEEvRT_NS_15iterator_traitsIS8_E15difference_typeENS_26random_access_iterator_tagE, symObjAddr: 0x12A74, symBinAddr: 0x1000850E0, symSize: 0x160 }
  - { offset: 0x67EEF, size: 0x8, addend: 0x0, symName: __ZNSt3__113regex_replaceB8ne190107INS_12regex_traitsIcEEcNS_11char_traitsIcEENS_9allocatorIcEEEENS_12basic_stringIT0_T1_T2_EERKSB_RKNS_11basic_regexIS8_T_EEPKS8_NS_15regex_constants15match_flag_typeE, symObjAddr: 0x166D0, symBinAddr: 0x100086A70, symSize: 0x210 }
  - { offset: 0x67F7E, size: 0x8, addend: 0x0, symName: __ZNSt3__1plB8ne190107IcNS_11char_traitsIcEENS_9allocatorIcEEEENS_12basic_stringIT_T0_T1_EERKS9_PKS6_, symObjAddr: 0x168E8, symBinAddr: 0x100086C88, symSize: 0x578 }
  - { offset: 0x68025, size: 0x8, addend: 0x0, symName: __ZNSt3__113regex_replaceB8ne190107INS_20back_insert_iteratorINS_12basic_stringIcNS_11char_traitsIcEENS_9allocatorIcEEEEEENS_11__wrap_iterIPKcEENS_12regex_traitsIcEEcEET_SF_T0_SG_RKNS_11basic_regexIT2_T1_EEPKSI_NS_15regex_constants15match_flag_typeE, symObjAddr: 0x170CC, symBinAddr: 0x100087314, symSize: 0xBB8 }
  - { offset: 0x68134, size: 0x8, addend: 0x0, symName: __ZNSt3__113back_inserterB8ne190107INS_12basic_stringIcNS_11char_traitsIcEENS_9allocatorIcEEEEEENS_20back_insert_iteratorIT_EERS8_, symObjAddr: 0x17C8C, symBinAddr: 0x100087ED4, symSize: 0x1E4 }
  - { offset: 0x68676, size: 0x8, addend: 0x0, symName: __ZNSt3__14copyB8ne190107INS_11__wrap_iterIPKcEENS_20back_insert_iteratorINS_12basic_stringIcNS_11char_traitsIcEENS_9allocatorIcEEEEEEEET0_T_SE_SD_, symObjAddr: 0x18824, symBinAddr: 0x100088A6C, symSize: 0x9C }
  - { offset: 0x686DC, size: 0x8, addend: 0x0, symName: __ZNSt3__112regex_searchB8ne190107IPKcNS_9allocatorINS_9sub_matchINS_11__wrap_iterIS2_EEEEEEcNS_12regex_traitsIcEEEEbNS5_IT_EESC_RNS_13match_resultsISC_T0_EERKNS_11basic_regexIT1_T2_EENS_15regex_constants15match_flag_typeE, symObjAddr: 0x1BE98, symBinAddr: 0x10008C0E0, symSize: 0x514 }
  - { offset: 0x68799, size: 0x8, addend: 0x0, symName: __ZNSt3__112__to_addressB8ne190107INS_9sub_matchINS_11__wrap_iterIPKcEEEEEEPT_S8_, symObjAddr: 0x1DC28, symBinAddr: 0x10008DE70, symSize: 0x14 }
  - { offset: 0x687CF, size: 0x8, addend: 0x0, symName: __ZNSt3__112__destroy_atB8ne190107INS_9sub_matchINS_11__wrap_iterIPKcEEEETnNS_9enable_ifIXntsr8is_arrayIT_EE5valueEiE4typeELi0EEEvPS8_, symObjAddr: 0x1DC44, symBinAddr: 0x10008DE8C, symSize: 0x10 }
  - { offset: 0x68807, size: 0x8, addend: 0x0, symName: __ZNSt3__131__annotate_contiguous_containerB8ne190107INS_9allocatorINS_9sub_matchINS_11__wrap_iterIPKcEEEEEEEEvPKvSA_SA_SA_, symObjAddr: 0x1DF28, symBinAddr: 0x10008E170, symSize: 0x4C }
  - { offset: 0x68B4A, size: 0x8, addend: 0x0, symName: __ZNSt3__112__to_addressB8ne190107INS_9sub_matchIPKcEEEEPT_S6_, symObjAddr: 0x23B30, symBinAddr: 0x100093D78, symSize: 0x14 }
  - { offset: 0x68B80, size: 0x8, addend: 0x0, symName: __ZNSt3__112__destroy_atB8ne190107INS_9sub_matchIPKcEETnNS_9enable_ifIXntsr8is_arrayIT_EE5valueEiE4typeELi0EEEvPS6_, symObjAddr: 0x23B4C, symBinAddr: 0x100093D94, symSize: 0x10 }
  - { offset: 0x68BB8, size: 0x8, addend: 0x0, symName: __ZNSt3__131__annotate_contiguous_containerB8ne190107INS_9allocatorINS_9sub_matchIPKcEEEEEEvPKvS8_S8_S8_, symObjAddr: 0x23E30, symBinAddr: 0x100094078, symSize: 0x4C }
  - { offset: 0x68C14, size: 0x8, addend: 0x0, symName: __ZNSt3__119__throw_regex_errorB8ne190107ILNS_15regex_constants10error_typeE12EEEvv, symObjAddr: 0x2C334, symBinAddr: 0x10009C57C, symSize: 0x98 }
  - { offset: 0x68C39, size: 0x8, addend: 0x0, symName: __ZNSt3__14nextB8ne190107IPKcTnNS_9enable_ifIXsr29__has_input_iterator_categoryIT_EE5valueEiE4typeELi0EEES4_S4_NS_15iterator_traitsIS4_E15difference_typeE, symObjAddr: 0x2C690, symBinAddr: 0x10009C8D8, symSize: 0x1B4 }
  - { offset: 0x68C88, size: 0x8, addend: 0x0, symName: __ZNSt3__119__throw_regex_errorB8ne190107ILNS_15regex_constants10error_typeE16EEEvv, symObjAddr: 0x2C8B8, symBinAddr: 0x10009CB00, symSize: 0x98 }
  - { offset: 0x68CAE, size: 0x8, addend: 0x0, symName: __ZNSt3__112__to_addressB8ne190107INS_7__stateIcEEEEPT_S4_, symObjAddr: 0x2DDCC, symBinAddr: 0x10009E014, symSize: 0x14 }
  - { offset: 0x68CE4, size: 0x8, addend: 0x0, symName: __ZNSt3__131__annotate_contiguous_containerB8ne190107INS_9allocatorINS_7__stateIcEEEEEEvPKvS6_S6_S6_, symObjAddr: 0x2E734, symBinAddr: 0x10009E97C, symSize: 0x4C }
  - { offset: 0x68D3F, size: 0x8, addend: 0x0, symName: __ZNSt3__114__construct_atB8ne190107INS_7__stateIcEEJS2_EPS2_EEPT_S5_DpOT0_, symObjAddr: 0x2EAFC, symBinAddr: 0x10009ED44, symSize: 0x6C }
  - { offset: 0x68DB9, size: 0x8, addend: 0x0, symName: __ZNSt3__112construct_atB8ne190107INS_7__stateIcEEJS2_EPS2_EEPT_S5_DpOT0_, symObjAddr: 0x2EB70, symBinAddr: 0x10009EDB8, symSize: 0xE0 }
  - { offset: 0x68E2B, size: 0x8, addend: 0x0, symName: __ZNSt3__13maxB8ne190107ImEERKT_S3_S3_, symObjAddr: 0x31BE8, symBinAddr: 0x1000A1E30, symSize: 0xD4 }
  - { offset: 0x68E6E, size: 0x8, addend: 0x0, symName: __ZNSt3__13maxB8ne190107ImNS_6__lessIvvEEEERKT_S5_S5_T0_, symObjAddr: 0x31F0C, symBinAddr: 0x1000A2154, symSize: 0x270 }
  - { offset: 0x68ECE, size: 0x8, addend: 0x0, symName: __ZNSt3__119__allocate_at_leastB8ne190107INS_9allocatorINS_7__stateIcEEEEEENS_19__allocation_resultINS_16allocator_traitsIT_E7pointerEEERS7_m, symObjAddr: 0x32828, symBinAddr: 0x1000A2A70, symSize: 0x40 }
  - { offset: 0x68F11, size: 0x8, addend: 0x0, symName: __ZNSt3__134__uninitialized_allocator_relocateB8ne190107INS_9allocatorINS_7__stateIcEEEES3_EEvRT_PT0_S8_S8_, symObjAddr: 0x33194, symBinAddr: 0x1000A33DC, symSize: 0x54C }
  - { offset: 0x68FBE, size: 0x8, addend: 0x0, symName: __ZNSt3__14swapB8ne190107IPNS_7__stateIcEEEENS_9enable_ifIXaasr21is_move_constructibleIT_EE5valuesr18is_move_assignableIS5_EE5valueEvE4typeERS5_S8_, symObjAddr: 0x336E8, symBinAddr: 0x1000A3930, symSize: 0x190 }
  - { offset: 0x6900F, size: 0x8, addend: 0x0, symName: __ZNSt3__122__make_exception_guardB8ne190107INS_29_AllocatorDestroyRangeReverseINS_9allocatorINS_7__stateIcEEEEPS4_EEEENS_28__exception_guard_exceptionsIT_EES9_, symObjAddr: 0x33A80, symBinAddr: 0x1000A3CC8, symSize: 0x204 }
  - { offset: 0x69046, size: 0x8, addend: 0x0, symName: __ZNSt3__119__allocator_destroyB8ne190107INS_9allocatorINS_7__stateIcEEEEPS3_S5_EEvRT_T0_T1_, symObjAddr: 0x33DCC, symBinAddr: 0x1000A4014, symSize: 0xF4 }
  - { offset: 0x690AA, size: 0x8, addend: 0x0, symName: __ZNSt3__112__destroy_atB8ne190107INS_7__stateIcEETnNS_9enable_ifIXntsr8is_arrayIT_EE5valueEiE4typeELi0EEEvPS4_, symObjAddr: 0x34274, symBinAddr: 0x1000A44BC, symSize: 0x5C }
  - { offset: 0x690E1, size: 0x8, addend: 0x0, symName: __ZNSt3__119__allocator_destroyB8ne190107INS_9allocatorINS_7__stateIcEEEENS_16reverse_iteratorIPS3_EES7_EEvRT_T0_T1_, symObjAddr: 0x3476C, symBinAddr: 0x1000A49B4, symSize: 0x244 }
  - { offset: 0x6914D, size: 0x8, addend: 0x0, symName: __ZNSt3__1neB8ne190107IPNS_7__stateIcEES3_EEbRKNS_16reverse_iteratorIT_EERKNS4_IT0_EEQrqXnecldtfp_4baseEcldtfp0_4baseERNS_14convertible_toIbEEE, symObjAddr: 0x34A24, symBinAddr: 0x1000A4C6C, symSize: 0x90 }
  - { offset: 0x69199, size: 0x8, addend: 0x0, symName: __ZNSt3__112__to_addressB8ne190107INS_16reverse_iteratorIPNS_7__stateIcEEEETnNS_9enable_ifIXsr4_AndINS_8is_classIT_EENS_15_IsFancyPointerIS8_EEEE5valueEiE4typeELi0EEEu7__decayIDTclsr19__to_address_helperIS8_EE6__callclsr3stdE7declvalIRKS8_EEEEESF_, symObjAddr: 0x34ABC, symBinAddr: 0x1000A4D04, symSize: 0x5C }
  - { offset: 0x691FE, size: 0x8, addend: 0x0, symName: __ZNSt3__14prevB8ne190107IPNS_7__stateIcEETnNS_9enable_ifIXsr29__has_input_iterator_categoryIT_EE5valueEiE4typeELi0EEES5_S5_NS_15iterator_traitsIS5_E15difference_typeE, symObjAddr: 0x34E5C, symBinAddr: 0x1000A50A4, symSize: 0x1EC }
  - { offset: 0x6924D, size: 0x8, addend: 0x0, symName: __ZNSt3__19__advanceB8ne190107IPNS_7__stateIcEEEEvRT_NS_15iterator_traitsIS4_E15difference_typeENS_26random_access_iterator_tagE, symObjAddr: 0x350C8, symBinAddr: 0x1000A5310, symSize: 0x160 }
  - { offset: 0x69298, size: 0x8, addend: 0x0, symName: __ZNSt3__112__to_addressB8ne190107INS_4pairImPKcEEEEPT_S6_, symObjAddr: 0x37624, symBinAddr: 0x1000A786C, symSize: 0x14 }
  - { offset: 0x692CE, size: 0x8, addend: 0x0, symName: __ZNSt3__112__destroy_atB8ne190107INS_4pairImPKcEETnNS_9enable_ifIXntsr8is_arrayIT_EE5valueEiE4typeELi0EEEvPS6_, symObjAddr: 0x37640, symBinAddr: 0x1000A7888, symSize: 0x10 }
  - { offset: 0x69306, size: 0x8, addend: 0x0, symName: __ZNSt3__131__annotate_contiguous_containerB8ne190107INS_9allocatorINS_4pairImPKcEEEEEEvPKvS8_S8_S8_, symObjAddr: 0x3791C, symBinAddr: 0x1000A7B64, symSize: 0x4C }
  - { offset: 0x69361, size: 0x8, addend: 0x0, symName: __ZNSt3__114__construct_atB8ne190107INS_9sub_matchIPKcEEJRKS4_EPS4_EEPT_S9_DpOT0_, symObjAddr: 0x39CF0, symBinAddr: 0x1000A9F38, symSize: 0x6C }
  - { offset: 0x693DB, size: 0x8, addend: 0x0, symName: __ZNSt3__112construct_atB8ne190107INS_9sub_matchIPKcEEJRKS4_EPS4_EEPT_S9_DpOT0_, symObjAddr: 0x39D64, symBinAddr: 0x1000A9FAC, symSize: 0xAC }
  - { offset: 0x6944D, size: 0x8, addend: 0x0, symName: __ZNSt3__119__allocate_at_leastB8ne190107INS_9allocatorINS_9sub_matchIPKcEEEEEENS_19__allocation_resultINS_16allocator_traitsIT_E7pointerEEERS9_m, symObjAddr: 0x3AF90, symBinAddr: 0x1000AB1D8, symSize: 0x40 }
  - { offset: 0x69490, size: 0x8, addend: 0x0, symName: __ZNSt3__134__uninitialized_allocator_relocateB8ne190107INS_9allocatorINS_9sub_matchIPKcEEEES5_EEvRT_PT0_SA_SA_, symObjAddr: 0x3BBD0, symBinAddr: 0x1000ABE18, symSize: 0xA8 }
  - { offset: 0x694F9, size: 0x8, addend: 0x0, symName: __ZNSt3__14swapB8ne190107IPNS_9sub_matchIPKcEEEENS_9enable_ifIXaasr21is_move_constructibleIT_EE5valuesr18is_move_assignableIS7_EE5valueEvE4typeERS7_SA_, symObjAddr: 0x3BC80, symBinAddr: 0x1000ABEC8, symSize: 0x190 }
  - { offset: 0x6954A, size: 0x8, addend: 0x0, symName: __ZNSt3__114__construct_atB8ne190107INS_4pairImPKcEEJEPS4_EEPT_S7_DpOT0_, symObjAddr: 0x3E670, symBinAddr: 0x1000AE8B8, symSize: 0x24 }
  - { offset: 0x695B1, size: 0x8, addend: 0x0, symName: __ZNSt3__112construct_atB8ne190107INS_4pairImPKcEEJEPS4_EEPT_S7_DpOT0_, symObjAddr: 0x3E69C, symBinAddr: 0x1000AE8E4, symSize: 0xA0 }
  - { offset: 0x69610, size: 0x8, addend: 0x0, symName: __ZNSt3__119__allocate_at_leastB8ne190107INS_9allocatorINS_4pairImPKcEEEEEENS_19__allocation_resultINS_16allocator_traitsIT_E7pointerEEERS9_m, symObjAddr: 0x3F9D8, symBinAddr: 0x1000AFC20, symSize: 0x40 }
  - { offset: 0x69653, size: 0x8, addend: 0x0, symName: __ZNSt3__134__uninitialized_allocator_relocateB8ne190107INS_9allocatorINS_4pairImPKcEEEES5_EEvRT_PT0_SA_SA_, symObjAddr: 0x4060C, symBinAddr: 0x1000B0854, symSize: 0xA8 }
  - { offset: 0x696BC, size: 0x8, addend: 0x0, symName: __ZNSt3__14swapB8ne190107IPNS_4pairImPKcEEEENS_9enable_ifIXaasr21is_move_constructibleIT_EE5valuesr18is_move_assignableIS7_EE5valueEvE4typeERS7_SA_, symObjAddr: 0x406BC, symBinAddr: 0x1000B0904, symSize: 0x190 }
  - { offset: 0x6970E, size: 0x8, addend: 0x0, symName: __ZNSt3__19__advanceB8ne190107IPKcEEvRT_NS_15iterator_traitsIS3_E15difference_typeENS_26random_access_iterator_tagE, symObjAddr: 0x41420, symBinAddr: 0x1000B1668, symSize: 0x158 }
  - { offset: 0x69758, size: 0x8, addend: 0x0, symName: __ZNSt3__122__make_exception_guardB8ne190107INS_6vectorINS_9sub_matchIPKcEENS_9allocatorIS5_EEE16__destroy_vectorEEENS_28__exception_guard_exceptionsIT_EESB_, symObjAddr: 0x41F6C, symBinAddr: 0x1000B21B4, symSize: 0x74 }
  - { offset: 0x6978D, size: 0x8, addend: 0x0, symName: __ZNSt3__130__uninitialized_allocator_copyB8ne190107INS_9allocatorINS_9sub_matchIPKcEEEEPS5_S7_S7_EET2_RT_T0_T1_S8_, symObjAddr: 0x42ABC, symBinAddr: 0x1000B2D04, symSize: 0x264 }
  - { offset: 0x69833, size: 0x8, addend: 0x0, symName: __ZNSt3__114__unwrap_rangeB8ne190107IPNS_9sub_matchIPKcEES5_EEDaT_T0_, symObjAddr: 0x42D28, symBinAddr: 0x1000B2F70, symSize: 0x3C }
  - { offset: 0x6987F, size: 0x8, addend: 0x0, symName: __ZNSt3__135__uninitialized_allocator_copy_implB8ne190107INS_9allocatorINS_9sub_matchIPKcEEEEPS5_S7_S7_EET2_RT_T0_T1_S8_, symObjAddr: 0x42D6C, symBinAddr: 0x1000B2FB4, symSize: 0x520 }
  - { offset: 0x6992B, size: 0x8, addend: 0x0, symName: __ZNSt3__113__unwrap_iterB8ne190107IPNS_9sub_matchIPKcEENS_18__unwrap_iter_implIS5_Lb1EEETnNS_9enable_ifIXsr21is_copy_constructibleIT_EE5valueEiE4typeELi0EEEDTclsrT0_8__unwrapclsr3stdE7declvalIS9_EEEES9_, symObjAddr: 0x43294, symBinAddr: 0x1000B34DC, symSize: 0x24 }
  - { offset: 0x6996F, size: 0x8, addend: 0x0, symName: __ZNSt3__113__rewrap_iterB8ne190107IPNS_9sub_matchIPKcEES5_NS_18__unwrap_iter_implIS5_Lb1EEEEET_S8_T0_, symObjAddr: 0x432C0, symBinAddr: 0x1000B3508, symSize: 0x48 }
  - { offset: 0x69AE0, size: 0x8, addend: 0x0, symName: __ZNSt3__122__make_exception_guardB8ne190107INS_29_AllocatorDestroyRangeReverseINS_9allocatorINS_9sub_matchIPKcEEEEPS6_EEEENS_28__exception_guard_exceptionsIT_EESB_, symObjAddr: 0x437AC, symBinAddr: 0x1000B39F4, symSize: 0x204 }
  - { offset: 0x69B17, size: 0x8, addend: 0x0, symName: __ZNSt3__114__construct_atB8ne190107INS_9sub_matchIPKcEEJRS4_EPS4_EEPT_S8_DpOT0_, symObjAddr: 0x43EEC, symBinAddr: 0x1000B4134, symSize: 0x6C }
  - { offset: 0x69B6A, size: 0x8, addend: 0x0, symName: __ZNSt3__112construct_atB8ne190107INS_9sub_matchIPKcEEJRS4_EPS4_EEPT_S8_DpOT0_, symObjAddr: 0x43F60, symBinAddr: 0x1000B41A8, symSize: 0xAC }
  - { offset: 0x69BDC, size: 0x8, addend: 0x0, symName: __ZNSt3__119__allocator_destroyB8ne190107INS_9allocatorINS_9sub_matchIPKcEEEENS_16reverse_iteratorIPS5_EES9_EEvRT_T0_T1_, symObjAddr: 0x444A8, symBinAddr: 0x1000B46F0, symSize: 0x244 }
  - { offset: 0x69C48, size: 0x8, addend: 0x0, symName: __ZNSt3__1neB8ne190107IPNS_9sub_matchIPKcEES5_EEbRKNS_16reverse_iteratorIT_EERKNS6_IT0_EEQrqXnecldtfp_4baseEcldtfp0_4baseERNS_14convertible_toIbEEE, symObjAddr: 0x44760, symBinAddr: 0x1000B49A8, symSize: 0x90 }
  - { offset: 0x69C94, size: 0x8, addend: 0x0, symName: __ZNSt3__112__to_addressB8ne190107INS_16reverse_iteratorIPNS_9sub_matchIPKcEEEETnNS_9enable_ifIXsr4_AndINS_8is_classIT_EENS_15_IsFancyPointerISA_EEEE5valueEiE4typeELi0EEEu7__decayIDTclsr19__to_address_helperISA_EE6__callclsr3stdE7declvalIRKSA_EEEEESH_, symObjAddr: 0x447F8, symBinAddr: 0x1000B4A40, symSize: 0x5C }
  - { offset: 0x69CF9, size: 0x8, addend: 0x0, symName: __ZNSt3__14prevB8ne190107IPNS_9sub_matchIPKcEETnNS_9enable_ifIXsr29__has_input_iterator_categoryIT_EE5valueEiE4typeELi0EEES7_S7_NS_15iterator_traitsIS7_E15difference_typeE, symObjAddr: 0x44B98, symBinAddr: 0x1000B4DE0, symSize: 0x1EC }
  - { offset: 0x69D48, size: 0x8, addend: 0x0, symName: __ZNSt3__19__advanceB8ne190107IPNS_9sub_matchIPKcEEEEvRT_NS_15iterator_traitsIS6_E15difference_typeENS_26random_access_iterator_tagE, symObjAddr: 0x44E04, symBinAddr: 0x1000B504C, symSize: 0x160 }
  - { offset: 0x69DE5, size: 0x8, addend: 0x0, symName: __ZNSt3__122__make_exception_guardB8ne190107INS_6vectorINS_4pairImPKcEENS_9allocatorIS5_EEE16__destroy_vectorEEENS_28__exception_guard_exceptionsIT_EESB_, symObjAddr: 0x45A90, symBinAddr: 0x1000B5CD8, symSize: 0x74 }
  - { offset: 0x69E1A, size: 0x8, addend: 0x0, symName: __ZNSt3__130__uninitialized_allocator_copyB8ne190107INS_9allocatorINS_4pairImPKcEEEEPS5_S7_S7_EET2_RT_T0_T1_S8_, symObjAddr: 0x465D8, symBinAddr: 0x1000B6820, symSize: 0x264 }
  - { offset: 0x69EC0, size: 0x8, addend: 0x0, symName: __ZNSt3__114__unwrap_rangeB8ne190107IPNS_4pairImPKcEES5_EEDaT_T0_, symObjAddr: 0x46844, symBinAddr: 0x1000B6A8C, symSize: 0x3C }
  - { offset: 0x69F0C, size: 0x8, addend: 0x0, symName: __ZNSt3__135__uninitialized_allocator_copy_implB8ne190107INS_9allocatorINS_4pairImPKcEEEEPS5_S7_S7_EET2_RT_T0_T1_S8_, symObjAddr: 0x46888, symBinAddr: 0x1000B6AD0, symSize: 0x520 }
  - { offset: 0x69FB8, size: 0x8, addend: 0x0, symName: __ZNSt3__113__unwrap_iterB8ne190107IPNS_4pairImPKcEENS_18__unwrap_iter_implIS5_Lb1EEETnNS_9enable_ifIXsr21is_copy_constructibleIT_EE5valueEiE4typeELi0EEEDTclsrT0_8__unwrapclsr3stdE7declvalIS9_EEEES9_, symObjAddr: 0x46DB0, symBinAddr: 0x1000B6FF8, symSize: 0x24 }
  - { offset: 0x69FFC, size: 0x8, addend: 0x0, symName: __ZNSt3__113__rewrap_iterB8ne190107IPNS_4pairImPKcEES5_NS_18__unwrap_iter_implIS5_Lb1EEEEET_S8_T0_, symObjAddr: 0x46DDC, symBinAddr: 0x1000B7024, symSize: 0x48 }
  - { offset: 0x6A16D, size: 0x8, addend: 0x0, symName: __ZNSt3__122__make_exception_guardB8ne190107INS_29_AllocatorDestroyRangeReverseINS_9allocatorINS_4pairImPKcEEEEPS6_EEEENS_28__exception_guard_exceptionsIT_EESB_, symObjAddr: 0x472C8, symBinAddr: 0x1000B7510, symSize: 0x204 }
  - { offset: 0x6A1A4, size: 0x8, addend: 0x0, symName: __ZNSt3__114__construct_atB8ne190107INS_4pairImPKcEEJRS4_EPS4_EEPT_S8_DpOT0_, symObjAddr: 0x47A08, symBinAddr: 0x1000B7C50, symSize: 0x6C }
  - { offset: 0x6A1F7, size: 0x8, addend: 0x0, symName: __ZNSt3__112construct_atB8ne190107INS_4pairImPKcEEJRS4_EPS4_EEPT_S8_DpOT0_, symObjAddr: 0x47A7C, symBinAddr: 0x1000B7CC4, symSize: 0xAC }
  - { offset: 0x6A269, size: 0x8, addend: 0x0, symName: __ZNSt3__119__allocator_destroyB8ne190107INS_9allocatorINS_4pairImPKcEEEENS_16reverse_iteratorIPS5_EES9_EEvRT_T0_T1_, symObjAddr: 0x47FC4, symBinAddr: 0x1000B820C, symSize: 0x244 }
  - { offset: 0x6A2D5, size: 0x8, addend: 0x0, symName: __ZNSt3__1neB8ne190107IPNS_4pairImPKcEES5_EEbRKNS_16reverse_iteratorIT_EERKNS6_IT0_EEQrqXnecldtfp_4baseEcldtfp0_4baseERNS_14convertible_toIbEEE, symObjAddr: 0x4827C, symBinAddr: 0x1000B84C4, symSize: 0x90 }
  - { offset: 0x6A321, size: 0x8, addend: 0x0, symName: __ZNSt3__112__to_addressB8ne190107INS_16reverse_iteratorIPNS_4pairImPKcEEEETnNS_9enable_ifIXsr4_AndINS_8is_classIT_EENS_15_IsFancyPointerISA_EEEE5valueEiE4typeELi0EEEu7__decayIDTclsr19__to_address_helperISA_EE6__callclsr3stdE7declvalIRKSA_EEEEESH_, symObjAddr: 0x48314, symBinAddr: 0x1000B855C, symSize: 0x5C }
  - { offset: 0x6A386, size: 0x8, addend: 0x0, symName: __ZNSt3__14prevB8ne190107IPNS_4pairImPKcEETnNS_9enable_ifIXsr29__has_input_iterator_categoryIT_EE5valueEiE4typeELi0EEES7_S7_NS_15iterator_traitsIS7_E15difference_typeE, symObjAddr: 0x486B4, symBinAddr: 0x1000B88FC, symSize: 0x1EC }
  - { offset: 0x6A3D5, size: 0x8, addend: 0x0, symName: __ZNSt3__19__advanceB8ne190107IPNS_4pairImPKcEEEEvRT_NS_15iterator_traitsIS6_E15difference_typeENS_26random_access_iterator_tagE, symObjAddr: 0x48920, symBinAddr: 0x1000B8B68, symSize: 0x158 }
  - { offset: 0x6A472, size: 0x8, addend: 0x0, symName: __ZNSt3__18distanceB8ne190107IPKcEENS_15iterator_traitsIT_E15difference_typeES4_S4_, symObjAddr: 0x49638, symBinAddr: 0x1000B9880, symSize: 0x2C }
  - { offset: 0x6A4B6, size: 0x8, addend: 0x0, symName: __ZNSt3__144__annotate_double_ended_contiguous_containerB8ne190107INS_9allocatorINS_7__stateIcEEEEEEvPKvS6_S6_S6_S6_S6_, symObjAddr: 0x4CF80, symBinAddr: 0x1000BD080, symSize: 0x5C }
  - { offset: 0x6A52E, size: 0x8, addend: 0x0, symName: __ZNSt3__110__distanceB8ne190107IPKcEENS_15iterator_traitsIT_E15difference_typeES4_S4_NS_26random_access_iterator_tagE, symObjAddr: 0x4D234, symBinAddr: 0x1000BD2A8, symSize: 0x20 }
  - { offset: 0x6A926, size: 0x8, addend: 0x0, symName: __ZNSt3__14swapB8ne190107IPPNS_7__stateIcEEEENS_9enable_ifIXaasr21is_move_constructibleIT_EE5valuesr18is_move_assignableIS6_EE5valueEvE4typeERS6_S9_, symObjAddr: 0x547A4, symBinAddr: 0x1000C4818, symSize: 0x190 }
  - { offset: 0x6A977, size: 0x8, addend: 0x0, symName: __ZNSt3__14moveB8ne190107IPPNS_7__stateIcEES4_EET0_T_S6_S5_, symObjAddr: 0x54CC8, symBinAddr: 0x1000C4D3C, symSize: 0x218 }
  - { offset: 0x6A9D5, size: 0x8, addend: 0x0, symName: __ZNSt3__112__to_addressB8ne190107IPNS_7__stateIcEEEEPT_S5_, symObjAddr: 0x5507C, symBinAddr: 0x1000C50F0, symSize: 0x14 }
  - { offset: 0x6AA0A, size: 0x8, addend: 0x0, symName: __ZNSt3__16__moveB8ne190107INS_17_ClassicAlgPolicyEPPNS_7__stateIcEES5_S5_EENS_4pairIT0_T2_EES7_T1_S8_, symObjAddr: 0x55098, symBinAddr: 0x1000C510C, symSize: 0x44 }
  - { offset: 0x6AA76, size: 0x8, addend: 0x0, symName: __ZNSt3__124__copy_move_unwrap_itersB8ne190107INS_11__move_implINS_17_ClassicAlgPolicyEEEPPNS_7__stateIcEES7_S7_TnNS_9enable_ifIXsr12__can_rewrapIT0_T2_EE5valueEiE4typeELi0EEENS_4pairIS9_SA_EES9_T1_SA_, symObjAddr: 0x550E4, symBinAddr: 0x1000C5158, symSize: 0x3B8 }
  - { offset: 0x6AB0F, size: 0x8, addend: 0x0, symName: __ZNSt3__114__unwrap_rangeB8ne190107IPPNS_7__stateIcEES4_EEDaT_T0_, symObjAddr: 0x554A4, symBinAddr: 0x1000C5518, symSize: 0x3C }
  - { offset: 0x6ACE5, size: 0x8, addend: 0x0, symName: __ZNSt3__113__unwrap_iterB8ne190107IPPNS_7__stateIcEENS_18__unwrap_iter_implIS4_Lb1EEETnNS_9enable_ifIXsr21is_copy_constructibleIT_EE5valueEiE4typeELi0EEEDTclsrT0_8__unwrapclsr3stdE7declvalIS8_EEEES8_, symObjAddr: 0x55554, symBinAddr: 0x1000C55C8, symSize: 0x24 }
  - { offset: 0x6AD29, size: 0x8, addend: 0x0, symName: __ZNSt3__19make_pairB8ne190107IPPNS_7__stateIcEES4_EENS_4pairINS_18__unwrap_ref_decayIT_E4typeENS6_IT0_E4typeEEEOS7_OSA_, symObjAddr: 0x55580, symBinAddr: 0x1000C55F4, symSize: 0x230 }
  - { offset: 0x6AD7A, size: 0x8, addend: 0x0, symName: __ZNSt3__114__rewrap_rangeB8ne190107IPPNS_7__stateIcEES4_S4_EET0_S5_T1_, symObjAddr: 0x557B8, symBinAddr: 0x1000C582C, symSize: 0x2C }
  - { offset: 0x6ADCF, size: 0x8, addend: 0x0, symName: __ZNSt3__113__rewrap_iterB8ne190107IPPNS_7__stateIcEES4_NS_18__unwrap_iter_implIS4_Lb1EEEEET_S7_T0_, symObjAddr: 0x557EC, symBinAddr: 0x1000C5860, symSize: 0x48 }
  - { offset: 0x6AE74, size: 0x8, addend: 0x0, symName: __ZNSt3__119__copy_trivial_implB8ne190107IPNS_7__stateIcEES3_EENS_4pairIPT_PT0_EES6_S6_S8_, symObjAddr: 0x55CD8, symBinAddr: 0x1000C5D4C, symSize: 0x2F0 }
  - { offset: 0x6AEE3, size: 0x8, addend: 0x0, symName: __ZNSt3__119__constexpr_memmoveB8ne190107IPNS_7__stateIcEES3_TnNS_9enable_ifIXsr23__is_always_bitcastableIT0_T_EE5valueEiE4typeELi0EEEPS6_S9_PS5_NS_15__element_countE, symObjAddr: 0x55FD0, symBinAddr: 0x1000C6044, symSize: 0xBC }
  - { offset: 0x6AF51, size: 0x8, addend: 0x0, symName: __ZNSt3__19make_pairB8ne190107IRPPNS_7__stateIcEES4_EENS_4pairINS_18__unwrap_ref_decayIT_E4typeENS7_IT0_E4typeEEEOS8_OSB_, symObjAddr: 0x56094, symBinAddr: 0x1000C6108, symSize: 0x230 }
  - { offset: 0x6AFF5, size: 0x8, addend: 0x0, symName: __ZNSt3__18distanceB8ne190107INS_13move_iteratorIPPNS_7__stateIcEEEEEENS_15iterator_traitsIT_E15difference_typeES8_S8_, symObjAddr: 0x56B0C, symBinAddr: 0x1000C6B80, symSize: 0x5C }
  - { offset: 0x6B038, size: 0x8, addend: 0x0, symName: __ZNSt3__114__construct_atB8ne190107IPNS_7__stateIcEEJS3_EPS3_EEPT_S6_DpOT0_, symObjAddr: 0x57284, symBinAddr: 0x1000C72F8, symSize: 0x6C }
  - { offset: 0x6B0B2, size: 0x8, addend: 0x0, symName: __ZNSt3__112construct_atB8ne190107IPNS_7__stateIcEEJS3_EPS3_EEPT_S6_DpOT0_, symObjAddr: 0x572F8, symBinAddr: 0x1000C736C, symSize: 0x158 }
  - { offset: 0x6B124, size: 0x8, addend: 0x0, symName: __ZNSt3__110__distanceB8ne190107INS_13move_iteratorIPPNS_7__stateIcEEEEEENS_15iterator_traitsIT_E15difference_typeES8_S8_NS_26random_access_iterator_tagE, symObjAddr: 0x57848, symBinAddr: 0x1000C78BC, symSize: 0x1E0 }
  - { offset: 0x6B17B, size: 0x8, addend: 0x0, symName: __ZNSt3__1miB8ne190107IPPNS_7__stateIcEES4_EEDTmicldtfp_4baseEcldtfp0_4baseEERKNS_13move_iteratorIT_EERKNS6_IT0_EE, symObjAddr: 0x57A30, symBinAddr: 0x1000C7AA4, symSize: 0x17C }
  - { offset: 0x6B1CA, size: 0x8, addend: 0x0, symName: __ZNSt3__114__construct_atB8ne190107IPNS_7__stateIcEEJRKS3_EPS3_EEPT_S8_DpOT0_, symObjAddr: 0x57CF8, symBinAddr: 0x1000C7D6C, symSize: 0x6C }
  - { offset: 0x6B21D, size: 0x8, addend: 0x0, symName: __ZNSt3__112construct_atB8ne190107IPNS_7__stateIcEEJRKS3_EPS3_EEPT_S8_DpOT0_, symObjAddr: 0x57D6C, symBinAddr: 0x1000C7DE0, symSize: 0x158 }
  - { offset: 0x6B28F, size: 0x8, addend: 0x0, symName: __ZNSt3__113move_backwardB8ne190107IPPNS_7__stateIcEES4_EET0_T_S6_S5_, symObjAddr: 0x5811C, symBinAddr: 0x1000C8190, symSize: 0x218 }
  - { offset: 0x6B2EC, size: 0x8, addend: 0x0, symName: __ZNSt3__115__move_backwardB8ne190107INS_17_ClassicAlgPolicyEPPNS_7__stateIcEES5_S5_EENS_4pairIT0_T2_EES7_T1_S8_, symObjAddr: 0x5833C, symBinAddr: 0x1000C83B0, symSize: 0x44 }
  - { offset: 0x6B358, size: 0x8, addend: 0x0, symName: __ZNSt3__124__copy_move_unwrap_itersB8ne190107INS_20__move_backward_implINS_17_ClassicAlgPolicyEEEPPNS_7__stateIcEES7_S7_TnNS_9enable_ifIXsr12__can_rewrapIT0_T2_EE5valueEiE4typeELi0EEENS_4pairIS9_SA_EES9_T1_SA_, symObjAddr: 0x58388, symBinAddr: 0x1000C83FC, symSize: 0x3B8 }
  - { offset: 0x6B440, size: 0x8, addend: 0x0, symName: __ZNSt3__128__copy_backward_trivial_implB8ne190107IPNS_7__stateIcEES3_EENS_4pairIPT_PT0_EES6_S6_S8_, symObjAddr: 0x587B4, symBinAddr: 0x1000C8828, symSize: 0x2F0 }
  - { offset: 0x6B4B2, size: 0x8, addend: 0x0, symName: __ZNSt3__19make_pairB8ne190107IRPPNS_7__stateIcEES5_EENS_4pairINS_18__unwrap_ref_decayIT_E4typeENS7_IT0_E4typeEEEOS8_OSB_, symObjAddr: 0x58AAC, symBinAddr: 0x1000C8B20, symSize: 0x230 }
  - { offset: 0x6B503, size: 0x8, addend: 0x0, symName: __ZNSt3__119__allocate_at_leastB8ne190107INS_9allocatorIPNS_7__stateIcEEEEEENS_19__allocation_resultINS_16allocator_traitsIT_E7pointerEEERS8_m, symObjAddr: 0x59778, symBinAddr: 0x1000C97EC, symSize: 0x40 }
  - { offset: 0x6B547, size: 0x8, addend: 0x0, symName: __ZNSt3__112__destroy_atB8ne190107IPNS_7__stateIcEETnNS_9enable_ifIXntsr8is_arrayIT_EE5valueEiE4typeELi0EEEvPS5_, symObjAddr: 0x5B110, symBinAddr: 0x1000CB184, symSize: 0x10 }
  - { offset: 0x6B57E, size: 0x8, addend: 0x0, symName: __ZNSt3__1eqB8ne190107ERKNS_16__deque_iteratorINS_7__stateIcEEPS2_RS2_PS3_lLl42EEES8_, symObjAddr: 0x5C6D8, symBinAddr: 0x1000CC6C0, symSize: 0x108 }
  - { offset: 0x6B5BB, size: 0x8, addend: 0x0, symName: __ZNSt3__18distanceB8ne190107IPNS_9sub_matchIPKcEEEENS_15iterator_traitsIT_E15difference_typeES7_S7_, symObjAddr: 0x61174, symBinAddr: 0x1000D115C, symSize: 0x2C }
  - { offset: 0x6B5FE, size: 0x8, addend: 0x0, symName: __ZNSt3__14nextB8ne190107IPNS_9sub_matchIPKcEETnNS_9enable_ifIXsr29__has_input_iterator_categoryIT_EE5valueEiE4typeELi0EEES7_S7_NS_15iterator_traitsIS7_E15difference_typeE, symObjAddr: 0x611A8, symBinAddr: 0x1000D1190, symSize: 0x1B4 }
  - { offset: 0x6B64C, size: 0x8, addend: 0x0, symName: __ZNSt3__14copyB8ne190107IPNS_9sub_matchIPKcEES5_EET0_T_S7_S6_, symObjAddr: 0x61364, symBinAddr: 0x1000D134C, symSize: 0x218 }
  - { offset: 0x6B6A9, size: 0x8, addend: 0x0, symName: __ZNSt3__16__copyB8ne190107INS_17_ClassicAlgPolicyEPNS_9sub_matchIPKcEES6_S6_EENS_4pairIT0_T2_EES8_T1_S9_, symObjAddr: 0x61584, symBinAddr: 0x1000D156C, symSize: 0x44 }
  - { offset: 0x6B715, size: 0x8, addend: 0x0, symName: __ZNSt3__124__copy_move_unwrap_itersB8ne190107INS_11__copy_implINS_17_ClassicAlgPolicyEEEPNS_9sub_matchIPKcEES8_S8_TnNS_9enable_ifIXsr12__can_rewrapIT0_T2_EE5valueEiE4typeELi0EEENS_4pairISA_SB_EESA_T1_SB_, symObjAddr: 0x617CC, symBinAddr: 0x1000D17B4, symSize: 0x3B8 }
  - { offset: 0x6B87E, size: 0x8, addend: 0x0, symName: __ZNSt3__19make_pairB8ne190107IPNS_9sub_matchIPKcEES5_EENS_4pairINS_18__unwrap_ref_decayIT_E4typeENS7_IT0_E4typeEEEOS8_OSB_, symObjAddr: 0x61F64, symBinAddr: 0x1000D1F4C, symSize: 0x230 }
  - { offset: 0x6B8CF, size: 0x8, addend: 0x0, symName: __ZNSt3__114__rewrap_rangeB8ne190107IPNS_9sub_matchIPKcEES5_S5_EET0_S6_T1_, symObjAddr: 0x6219C, symBinAddr: 0x1000D2184, symSize: 0x2C }
  - { offset: 0x6B925, size: 0x8, addend: 0x0, symName: __ZNSt3__110__distanceB8ne190107IPNS_9sub_matchIPKcEEEENS_15iterator_traitsIT_E15difference_typeES7_S7_NS_26random_access_iterator_tagE, symObjAddr: 0x62204, symBinAddr: 0x1000D21EC, symSize: 0x28 }
  - { offset: 0x6B973, size: 0x8, addend: 0x0, symName: __ZNSt3__18distanceB8ne190107IPNS_4pairImPKcEEEENS_15iterator_traitsIT_E15difference_typeES7_S7_, symObjAddr: 0x6278C, symBinAddr: 0x1000D2774, symSize: 0x2C }
  - { offset: 0x6B9B6, size: 0x8, addend: 0x0, symName: __ZNSt3__14nextB8ne190107IPNS_4pairImPKcEETnNS_9enable_ifIXsr29__has_input_iterator_categoryIT_EE5valueEiE4typeELi0EEES7_S7_NS_15iterator_traitsIS7_E15difference_typeE, symObjAddr: 0x627C0, symBinAddr: 0x1000D27A8, symSize: 0x1B4 }
  - { offset: 0x6BA04, size: 0x8, addend: 0x0, symName: __ZNSt3__14copyB8ne190107IPNS_4pairImPKcEES5_EET0_T_S7_S6_, symObjAddr: 0x6297C, symBinAddr: 0x1000D2964, symSize: 0x218 }
  - { offset: 0x6BA61, size: 0x8, addend: 0x0, symName: __ZNSt3__16__copyB8ne190107INS_17_ClassicAlgPolicyEPNS_4pairImPKcEES6_S6_EENS2_IT0_T2_EES7_T1_S8_, symObjAddr: 0x62B9C, symBinAddr: 0x1000D2B84, symSize: 0x44 }
  - { offset: 0x6BACD, size: 0x8, addend: 0x0, symName: __ZNSt3__124__copy_move_unwrap_itersB8ne190107INS_11__copy_implINS_17_ClassicAlgPolicyEEEPNS_4pairImPKcEES8_S8_TnNS_9enable_ifIXsr12__can_rewrapIT0_T2_EE5valueEiE4typeELi0EEENS4_ISA_SB_EESA_T1_SB_, symObjAddr: 0x62DE4, symBinAddr: 0x1000D2DCC, symSize: 0x3B8 }
  - { offset: 0x6BB66, size: 0x8, addend: 0x0, symName: __ZNSt3__19make_pairB8ne190107IPNS_4pairImPKcEES5_EENS1_INS_18__unwrap_ref_decayIT_E4typeENS6_IT0_E4typeEEEOS7_OSA_, symObjAddr: 0x6357C, symBinAddr: 0x1000D3564, symSize: 0x230 }
  - { offset: 0x6BBB7, size: 0x8, addend: 0x0, symName: __ZNSt3__114__rewrap_rangeB8ne190107IPNS_4pairImPKcEES5_S5_EET0_S6_T1_, symObjAddr: 0x637B4, symBinAddr: 0x1000D379C, symSize: 0x2C }
  - { offset: 0x6BC0D, size: 0x8, addend: 0x0, symName: __ZNSt3__110__distanceB8ne190107IPNS_4pairImPKcEEEENS_15iterator_traitsIT_E15difference_typeES7_S7_NS_26random_access_iterator_tagE, symObjAddr: 0x63A74, symBinAddr: 0x1000D3A5C, symSize: 0x28 }
  - { offset: 0x6BC5B, size: 0x8, addend: 0x0, symName: __ZNSt3__16fill_nB8ne190107IPNS_9sub_matchIPKcEEmS4_EET_S6_T0_RKT1_, symObjAddr: 0x63C2C, symBinAddr: 0x1000D3C14, symSize: 0x80 }
  - { offset: 0x6BCBE, size: 0x8, addend: 0x0, symName: __ZNSt3__18__fill_nB8ne190107IPNS_9sub_matchIPKcEEmS4_EET_S6_T0_RKT1_, symObjAddr: 0x63CB4, symBinAddr: 0x1000D3C9C, symSize: 0x144 }
  - { offset: 0x6BD22, size: 0x8, addend: 0x0, symName: __ZNSt3__121__convert_to_integralB8ne190107Em, symObjAddr: 0x63E00, symBinAddr: 0x1000D3DE8, symSize: 0x14 }
  - { offset: 0x6BD4E, size: 0x8, addend: 0x0, symName: __ZNSt3__14nextB8ne190107INS_11__wrap_iterIPKcEETnNS_9enable_ifIXsr29__has_input_iterator_categoryIT_EE5valueEiE4typeELi0EEES6_S6_NS_15iterator_traitsIS6_E15difference_typeE, symObjAddr: 0x64068, symBinAddr: 0x1000D4050, symSize: 0x1D0 }
  - { offset: 0x6BD9C, size: 0x8, addend: 0x0, symName: __ZNSt3__114__construct_atB8ne190107INS_9sub_matchINS_11__wrap_iterIPKcEEEEJEPS6_EEPT_S9_DpOT0_, symObjAddr: 0x66704, symBinAddr: 0x1000D66EC, symSize: 0x24 }
  - { offset: 0x6BE03, size: 0x8, addend: 0x0, symName: __ZNSt3__112construct_atB8ne190107INS_9sub_matchINS_11__wrap_iterIPKcEEEEJEPS6_EEPT_S9_DpOT0_, symObjAddr: 0x66730, symBinAddr: 0x1000D6718, symSize: 0xA0 }
  - { offset: 0x6BE62, size: 0x8, addend: 0x0, symName: __ZNSt3__119__allocate_at_leastB8ne190107INS_9allocatorINS_9sub_matchINS_11__wrap_iterIPKcEEEEEEEENS_19__allocation_resultINS_16allocator_traitsIT_E7pointerEEERSB_m, symObjAddr: 0x67950, symBinAddr: 0x1000D7938, symSize: 0x40 }
  - { offset: 0x6BEA5, size: 0x8, addend: 0x0, symName: __ZNSt3__134__uninitialized_allocator_relocateB8ne190107INS_9allocatorINS_9sub_matchINS_11__wrap_iterIPKcEEEEEES7_EEvRT_PT0_SC_SC_, symObjAddr: 0x68590, symBinAddr: 0x1000D8578, symSize: 0xA8 }
  - { offset: 0x6BF0E, size: 0x8, addend: 0x0, symName: __ZNSt3__14swapB8ne190107IPNS_9sub_matchINS_11__wrap_iterIPKcEEEEEENS_9enable_ifIXaasr21is_move_constructibleIT_EE5valuesr18is_move_assignableIS9_EE5valueEvE4typeERS9_SC_, symObjAddr: 0x68640, symBinAddr: 0x1000D8628, symSize: 0x190 }
  - { offset: 0x6BF60, size: 0x8, addend: 0x0, symName: __ZNSt3__19__advanceB8ne190107INS_11__wrap_iterIPKcEEEEvRT_NS_15iterator_traitsIS5_E15difference_typeENS_26random_access_iterator_tagE, symObjAddr: 0x6916C, symBinAddr: 0x1000D9154, symSize: 0x6C }
  - { offset: 0x6BFAA, size: 0x8, addend: 0x0, symName: __ZNSt3__1eqB8ne190107IPKcEEbRKNS_11__wrap_iterIT_EES7_, symObjAddr: 0x695FC, symBinAddr: 0x1000D95E4, symSize: 0x90 }
  - { offset: 0x6BFED, size: 0x8, addend: 0x0, symName: __ZNSt3__1eqB8ne190107INS_11__wrap_iterIPKcEEEEbRKNS_9sub_matchIT_EES9_, symObjAddr: 0x69694, symBinAddr: 0x1000D967C, symSize: 0x94 }
  - { offset: 0x6C033, size: 0x8, addend: 0x0, symName: __ZNSt3__18distanceB8ne190107INS_11__wrap_iterIPKcEEEENS_15iterator_traitsIT_E15difference_typeES6_S6_, symObjAddr: 0x6A4C4, symBinAddr: 0x1000DA4AC, symSize: 0x5C }
  - { offset: 0x6C076, size: 0x8, addend: 0x0, symName: __ZNSt3__110__distanceB8ne190107INS_11__wrap_iterIPKcEEEENS_15iterator_traitsIT_E15difference_typeES6_S6_NS_26random_access_iterator_tagE, symObjAddr: 0x6AA9C, symBinAddr: 0x1000DAA84, symSize: 0x1E0 }
  - { offset: 0x6C0CD, size: 0x8, addend: 0x0, symName: __ZNSt3__1miB8ne190107IPKcS2_EEDTmicldtfp_4baseEcldtfp0_4baseEERKNS_11__wrap_iterIT_EERKNS4_IT0_EE, symObjAddr: 0x6AC84, symBinAddr: 0x1000DAC6C, symSize: 0x8C }
  - { offset: 0x6C119, size: 0x8, addend: 0x0, symName: __ZNSt3__119__allocate_at_leastB8ne190107INS_9allocatorIcEEEENS_19__allocation_resultINS_16allocator_traitsIT_E7pointerEEERS5_m, symObjAddr: 0x6B1E8, symBinAddr: 0x1000DB1D0, symSize: 0x40 }
  - { offset: 0x6C15C, size: 0x8, addend: 0x0, symName: __ZNSt3__112__to_addressB8ne190107INS_11__wrap_iterIPKcEETnNS_9enable_ifIXsr4_AndINS_8is_classIT_EENS_15_IsFancyPointerIS7_EEEE5valueEiE4typeELi0EEEu7__decayIDTclsr19__to_address_helperIS7_EE6__callclsr3stdE7declvalIRKS7_EEEEESE_, symObjAddr: 0x6C16C, symBinAddr: 0x1000DC154, symSize: 0x5C }
  - { offset: 0x6C197, size: 0x8, addend: 0x0, symName: __ZNSt3__119__constexpr_memmoveB8ne190107IcKcTnNS_9enable_ifIXsr23__is_always_bitcastableIT0_T_EE5valueEiE4typeELi0EEEPS4_S7_PS3_NS_15__element_countE, symObjAddr: 0x6C1D0, symBinAddr: 0x1000DC1B8, symSize: 0x60 }
  - { offset: 0x6C26D, size: 0x8, addend: 0x0, symName: __ZNSt3__16__copyB8ne190107INS_17_ClassicAlgPolicyENS_11__wrap_iterIPKcEES5_NS_20back_insert_iteratorINS_12basic_stringIcNS_11char_traitsIcEENS_9allocatorIcEEEEEEEENS_4pairIT0_T2_EESF_T1_SG_, symObjAddr: 0x6CDAC, symBinAddr: 0x1000DC9E0, symSize: 0x8C }
  - { offset: 0x6C2D9, size: 0x8, addend: 0x0, symName: __ZNSt3__124__copy_move_unwrap_itersB8ne190107INS_11__copy_implINS_17_ClassicAlgPolicyEEENS_11__wrap_iterIPKcEES7_NS_20back_insert_iteratorINS_12basic_stringIcNS_11char_traitsIcEENS_9allocatorIcEEEEEETnNS_9enable_ifIXsr12__can_rewrapIT0_T2_EE5valueEiE4typeELi0EEENS_4pairISH_SI_EESH_T1_SI_, symObjAddr: 0x6CE40, symBinAddr: 0x1000DCA74, symSize: 0x3EC }
  - { offset: 0x6C36F, size: 0x8, addend: 0x0, symName: __ZNSt3__114__unwrap_rangeB8ne190107INS_11__wrap_iterIPKcEES4_EEDaT_T0_, symObjAddr: 0x6D234, symBinAddr: 0x1000DCE68, symSize: 0x6C }
  - { offset: 0x6C48F, size: 0x8, addend: 0x0, symName: __ZNSt3__113__unwrap_iterB8ne190107INS_20back_insert_iteratorINS_12basic_stringIcNS_11char_traitsIcEENS_9allocatorIcEEEEEENS_18__unwrap_iter_implIS8_Lb0EEETnNS_9enable_ifIXsr21is_copy_constructibleIT_EE5valueEiE4typeELi0EEEDTclsrT0_8__unwrapclsr3stdE7declvalISC_EEEESC_, symObjAddr: 0x6D604, symBinAddr: 0x1000DD238, symSize: 0x3C }
  - { offset: 0x6C4D3, size: 0x8, addend: 0x0, symName: __ZNSt3__19make_pairB8ne190107INS_11__wrap_iterIPKcEENS_20back_insert_iteratorINS_12basic_stringIcNS_11char_traitsIcEENS_9allocatorIcEEEEEEEENS_4pairINS_18__unwrap_ref_decayIT_E4typeENSE_IT0_E4typeEEEOSF_OSI_, symObjAddr: 0x6D648, symBinAddr: 0x1000DD27C, symSize: 0x230 }
  - { offset: 0x6C524, size: 0x8, addend: 0x0, symName: __ZNSt3__114__rewrap_rangeB8ne190107INS_11__wrap_iterIPKcEES4_S3_EET0_S5_T1_, symObjAddr: 0x6D880, symBinAddr: 0x1000DD4B4, symSize: 0x48 }
  - { offset: 0x6C579, size: 0x8, addend: 0x0, symName: __ZNSt3__113__rewrap_iterB8ne190107INS_20back_insert_iteratorINS_12basic_stringIcNS_11char_traitsIcEENS_9allocatorIcEEEEEES8_NS_18__unwrap_iter_implIS8_Lb0EEEEET_SB_T0_, symObjAddr: 0x6D8D0, symBinAddr: 0x1000DD504, symSize: 0x80 }
  - { offset: 0x6C61E, size: 0x8, addend: 0x0, symName: __ZNSt3__113__unwrap_iterB8ne190107INS_11__wrap_iterIPKcEENS_18__unwrap_iter_implIS4_Lb1EEETnNS_9enable_ifIXsr21is_copy_constructibleIT_EE5valueEiE4typeELi0EEEDTclsrT0_8__unwrapclsr3stdE7declvalIS8_EEEES8_, symObjAddr: 0x6DBE4, symBinAddr: 0x1000DD818, symSize: 0x34 }
  - { offset: 0x6C6B5, size: 0x8, addend: 0x0, symName: __ZNSt3__19make_pairB8ne190107IPKcNS_20back_insert_iteratorINS_12basic_stringIcNS_11char_traitsIcEENS_9allocatorIcEEEEEEEENS_4pairINS_18__unwrap_ref_decayIT_E4typeENSC_IT0_E4typeEEEOSD_OSG_, symObjAddr: 0x6E29C, symBinAddr: 0x1000DDED0, symSize: 0x230 }
  - { offset: 0x6C822, size: 0x8, addend: 0x0, symName: __ZNSt3__113__rewrap_iterB8ne190107INS_11__wrap_iterIPKcEES3_NS_18__unwrap_iter_implIS4_Lb1EEEEET_S7_T0_, symObjAddr: 0x6E808, symBinAddr: 0x1000DE43C, symSize: 0x64 }
  - { offset: 0x6C878, size: 0x8, addend: 0x0, symName: __ZNSt3__119__throw_regex_errorB8ne190107ILNS_15regex_constants10error_typeE3EEEvv, symObjAddr: 0x6EE08, symBinAddr: 0x1000DEA3C, symSize: 0x98 }
  - { offset: 0x6C89D, size: 0x8, addend: 0x0, symName: __ZNSt3__16fill_nB8ne190107IPcmcEET_S2_T0_RKT1_, symObjAddr: 0x70B8C, symBinAddr: 0x1000E07C0, symSize: 0x6C }
  - { offset: 0x6C900, size: 0x8, addend: 0x0, symName: __ZNSt3__18__fill_nB8ne190107IPcmcEET_S2_T0_RKT1_, symObjAddr: 0x70C00, symBinAddr: 0x1000E0834, symSize: 0x1A8 }
  - { offset: 0x6C963, size: 0x8, addend: 0x0, symName: __ZNSt3__19use_facetB8ne190107INS_7collateIcEEEERKT_RKNS_6localeE, symObjAddr: 0x71670, symBinAddr: 0x1000E12A4, symSize: 0x14C }
  - { offset: 0x6C999, size: 0x8, addend: 0x0, symName: __ZNSt3__119__throw_regex_errorB8ne190107ILNS_15regex_constants10error_typeE17EEEvv, symObjAddr: 0x72078, symBinAddr: 0x1000E1CAC, symSize: 0x98 }
  - { offset: 0x6CE30, size: 0x8, addend: 0x0, symName: __ZNSt3__119__throw_regex_errorB8ne190107ILNS_15regex_constants10error_typeE14EEEvv, symObjAddr: 0x73A00, symBinAddr: 0x1000E3634, symSize: 0x98 }
  - { offset: 0x6D88D, size: 0x8, addend: 0x0, symName: __ZNSt3__14swapB8ne190107IPNS_13__empty_stateIcEEEENS_9enable_ifIXaasr21is_move_constructibleIT_EE5valuesr18is_move_assignableIS5_EE5valueEvE4typeERS5_S8_, symObjAddr: 0x77C78, symBinAddr: 0x1000E78AC, symSize: 0x190 }
  - { offset: 0x6D8DE, size: 0x8, addend: 0x0, symName: __ZNSt3__14swapB8ne190107IPNS_19__shared_weak_countEEENS_9enable_ifIXaasr21is_move_constructibleIT_EE5valuesr18is_move_assignableIS4_EE5valueEvE4typeERS4_S7_, symObjAddr: 0x77E10, symBinAddr: 0x1000E7A44, symSize: 0x190 }
  - { offset: 0x6D930, size: 0x8, addend: 0x0, symName: __ZNSt3__119__throw_regex_errorB8ne190107ILNS_15regex_constants10error_typeE6EEEvv, symObjAddr: 0x7FB78, symBinAddr: 0x1000EF7AC, symSize: 0x98 }
  - { offset: 0x6D9DB, size: 0x8, addend: 0x0, symName: __ZNSt3__18__is_eolB8ne190107IcEEbT_, symObjAddr: 0x80B04, symBinAddr: 0x1000F0738, symSize: 0x44 }
  - { offset: 0x6DA12, size: 0x8, addend: 0x0, symName: __ZNSt3__14prevB8ne190107IPKcTnNS_9enable_ifIXsr29__has_input_iterator_categoryIT_EE5valueEiE4typeELi0EEES4_S4_NS_15iterator_traitsIS4_E15difference_typeE, symObjAddr: 0x80B50, symBinAddr: 0x1000F0784, symSize: 0x1EC }
  - { offset: 0x6DC6A, size: 0x8, addend: 0x0, symName: __ZNSt3__134__libcpp_atomic_refcount_incrementB8ne190107IlEET_RS1_, symObjAddr: 0x84FDC, symBinAddr: 0x1000F4C10, symSize: 0x78 }
  - { offset: 0x6DCA0, size: 0x8, addend: 0x0, symName: __ZNSt3__119__throw_regex_errorB8ne190107ILNS_15regex_constants10error_typeE11EEEvv, symObjAddr: 0x87104, symBinAddr: 0x1000F6D38, symSize: 0x98 }
  - { offset: 0x6DF26, size: 0x8, addend: 0x0, symName: __ZNSt3__119__throw_regex_errorB8ne190107ILNS_15regex_constants10error_typeE4EEEvv, symObjAddr: 0x8ACFC, symBinAddr: 0x1000FA930, symSize: 0x98 }
  - { offset: 0x6E36B, size: 0x8, addend: 0x0, symName: __ZNSt3__15equalB8ne190107IPKcS2_EEbT_S3_T0_, symObjAddr: 0x916B8, symBinAddr: 0x1001012EC, symSize: 0x34 }
  - { offset: 0x6E3C5, size: 0x8, addend: 0x0, symName: __ZNSt3__15equalB8ne190107IPKcS2_NS_10__equal_toEEEbT_S4_T0_T1_, symObjAddr: 0x916F4, symBinAddr: 0x100101328, symSize: 0x1D4 }
  - { offset: 0x6E43D, size: 0x8, addend: 0x0, symName: __ZNSt3__117__equal_iter_implB8ne190107IKcS1_NS_10__equal_toETnNS_9enable_ifIXaaaaaa15__desugars_to_vINS_11__equal_tagET1_T_T0_Entsr11is_volatileIS6_EE5valuentsr11is_volatileIS7_EE5valuesr41__libcpp_is_trivially_equality_comparableIS6_S7_EE5valueEiE4typeELi0EEEbPS6_SA_PS7_RS5_, symObjAddr: 0x918D0, symBinAddr: 0x100101504, symSize: 0x40 }
  - { offset: 0x6E4B1, size: 0x8, addend: 0x0, symName: __ZNSt3__113__unwrap_iterB8ne190107IPKcNS_18__unwrap_iter_implIS2_Lb1EEETnNS_9enable_ifIXsr21is_copy_constructibleIT_EE5valueEiE4typeELi0EEEDTclsrT0_8__unwrapclsr3stdE7declvalIS6_EEEES6_, symObjAddr: 0x91918, symBinAddr: 0x10010154C, symSize: 0x24 }
  - { offset: 0x6E4F5, size: 0x8, addend: 0x0, symName: __ZNSt3__124__constexpr_memcmp_equalB8ne190107IccEEbPKT_PKT0_NS_15__element_countE, symObjAddr: 0x91944, symBinAddr: 0x100101578, symSize: 0x48 }
  - { offset: 0x6E5B0, size: 0x8, addend: 0x0, symName: __ZNSt3__1eqB8ne190107IcNS_11char_traitsIcEENS_9allocatorIcEEEEbRKNS_12basic_stringIT_T0_T1_EEPKS6_, symObjAddr: 0x933EC, symBinAddr: 0x100103020, symSize: 0x210 }
  - { offset: 0x6E60A, size: 0x8, addend: 0x0, symName: __ZNSt3__1eqB8ne190107IcNS_11char_traitsIcEEEEbNS_17basic_string_viewIT_T0_EENS_13type_identityIS6_E4typeE, symObjAddr: 0x989D8, symBinAddr: 0x10010860C, symSize: 0x260 }
  - { offset: 0x6E661, size: 0x8, addend: 0x0, symName: __ZNSt3__128__char_traits_length_checkedB8ne190107INS_11char_traitsIcEEEEmPKNT_9char_typeE, symObjAddr: 0x9916C, symBinAddr: 0x1001089E0, symSize: 0x24 }
  - { offset: 0x6E699, size: 0x8, addend: 0x0, symName: __ZNSt3__112__to_addressB8ne190107INS_4pairIccEEEEPT_S4_, symObjAddr: 0x99F98, symBinAddr: 0x10010980C, symSize: 0x14 }
  - { offset: 0x6E6CF, size: 0x8, addend: 0x0, symName: __ZNSt3__112__destroy_atB8ne190107INS_4pairIccEETnNS_9enable_ifIXntsr8is_arrayIT_EE5valueEiE4typeELi0EEEvPS4_, symObjAddr: 0x99FB4, symBinAddr: 0x100109828, symSize: 0x10 }
  - { offset: 0x6E707, size: 0x8, addend: 0x0, symName: __ZNSt3__131__annotate_contiguous_containerB8ne190107INS_9allocatorINS_4pairIccEEEEEEvPKvS6_S6_S6_, symObjAddr: 0x9A290, symBinAddr: 0x100109B04, symSize: 0x4C }
  - { offset: 0x6E763, size: 0x8, addend: 0x0, symName: __ZNSt3__112__to_addressB8ne190107INS_4pairINS_12basic_stringIcNS_11char_traitsIcEENS_9allocatorIcEEEES7_EEEEPT_SA_, symObjAddr: 0x9B4DC, symBinAddr: 0x10010AD50, symSize: 0x14 }
  - { offset: 0x6E799, size: 0x8, addend: 0x0, symName: __ZNSt3__112__destroy_atB8ne190107INS_4pairINS_12basic_stringIcNS_11char_traitsIcEENS_9allocatorIcEEEES7_EETnNS_9enable_ifIXntsr8is_arrayIT_EE5valueEiE4typeELi0EEEvPSA_, symObjAddr: 0x9B4F8, symBinAddr: 0x10010AD6C, symSize: 0x5C }
  - { offset: 0x6E7D1, size: 0x8, addend: 0x0, symName: __ZNSt3__131__annotate_contiguous_containerB8ne190107INS_9allocatorINS_4pairINS_12basic_stringIcNS_11char_traitsIcEENS1_IcEEEES7_EEEEEEvPKvSB_SB_SB_, symObjAddr: 0x9B8FC, symBinAddr: 0x10010B170, symSize: 0x4C }
  - { offset: 0x6E82D, size: 0x8, addend: 0x0, symName: __ZNSt3__112__destroy_atB8ne190107IcTnNS_9enable_ifIXntsr8is_arrayIT_EE5valueEiE4typeELi0EEEvPS2_, symObjAddr: 0x9CAF8, symBinAddr: 0x10010C36C, symSize: 0x10 }
  - { offset: 0x6E865, size: 0x8, addend: 0x0, symName: __ZNSt3__131__annotate_contiguous_containerB8ne190107INS_9allocatorIcEEEEvPKvS4_S4_S4_, symObjAddr: 0x9CDCC, symBinAddr: 0x10010C640, symSize: 0x4C }
  - { offset: 0x6E8C0, size: 0x8, addend: 0x0, symName: __ZNSt3__1eqB8ne190107IccccEEbRKNS_4pairIT_T0_EERKNS1_IT1_T2_EE, symObjAddr: 0x9D374, symBinAddr: 0x10010CB84, symSize: 0x1C0 }
  - { offset: 0x6E922, size: 0x8, addend: 0x0, symName: __ZNSt3__1leB8ne190107ENS_15strong_orderingENS_20_CmpUnspecifiedParamE, symObjAddr: 0x9DD8C, symBinAddr: 0x10010D59C, symSize: 0x20 }
  - { offset: 0x6E959, size: 0x8, addend: 0x0, symName: __ZNSt3__14findB8ne190107INS_11__wrap_iterIPKcEEcEET_S5_S5_RKT0_, symObjAddr: 0x9E570, symBinAddr: 0x10010DC74, symSize: 0x278 }
  - { offset: 0x6E9C8, size: 0x8, addend: 0x0, symName: __ZNSt3__18distanceB8ne190107IPcEENS_15iterator_traitsIT_E15difference_typeES3_S3_, symObjAddr: 0x9FBB8, symBinAddr: 0x10010F2BC, symSize: 0x2C }
  - { offset: 0x6EA0C, size: 0x8, addend: 0x0, symName: __ZNSt3__110__distanceB8ne190107IPcEENS_15iterator_traitsIT_E15difference_typeES3_S3_NS_26random_access_iterator_tagE, symObjAddr: 0xA012C, symBinAddr: 0x10010F830, symSize: 0x20 }
  - { offset: 0x6EA5A, size: 0x8, addend: 0x0, symName: __ZNSt3__16__findB8ne190107IKccNS_10__identityETnNS_9enable_ifIXaaaasr13__is_identityIT1_EE5valuesr41__libcpp_is_trivially_equality_comparableIT_T0_EE5valueeqstS5_Li1EEiE4typeELi0EEEPS5_S9_S9_RKS6_RS4_, symObjAddr: 0xA1524, symBinAddr: 0x1001109E0, symSize: 0xEC }
  - { offset: 0x6EAE3, size: 0x8, addend: 0x0, symName: __ZNSt3__114__construct_atB8ne190107IcJcEPcEEPT_S3_DpOT0_, symObjAddr: 0xA2F80, symBinAddr: 0x1001123E8, symSize: 0x58 }
  - { offset: 0x6EB5D, size: 0x8, addend: 0x0, symName: __ZNSt3__112construct_atB8ne190107IcJcEPcEEPT_S3_DpOT0_, symObjAddr: 0xA2FE0, symBinAddr: 0x100112448, symSize: 0x14C }
  - { offset: 0x6EBCF, size: 0x8, addend: 0x0, symName: __ZNSt3__134__uninitialized_allocator_relocateB8ne190107INS_9allocatorIcEEcEEvRT_PT0_S6_S6_, symObjAddr: 0xA52C8, symBinAddr: 0x100114730, symSize: 0x48 }
  - { offset: 0x6EC38, size: 0x8, addend: 0x0, symName: __ZNSt3__14swapB8ne190107IPcEENS_9enable_ifIXaasr21is_move_constructibleIT_EE5valuesr18is_move_assignableIS3_EE5valueEvE4typeERS3_S6_, symObjAddr: 0xA5318, symBinAddr: 0x100114780, symSize: 0x190 }
  - { offset: 0x6EC89, size: 0x8, addend: 0x0, symName: __ZNSt3__114__construct_atB8ne190107IcJRKcEPcEEPT_S5_DpOT0_, symObjAddr: 0xA6714, symBinAddr: 0x100115B7C, symSize: 0x58 }
  - { offset: 0x6ECDC, size: 0x8, addend: 0x0, symName: __ZNSt3__112construct_atB8ne190107IcJRKcEPcEEPT_S5_DpOT0_, symObjAddr: 0xA6774, symBinAddr: 0x100115BDC, symSize: 0x14C }
  - { offset: 0x6ED4E, size: 0x8, addend: 0x0, symName: __ZNSt3__17__is_07B8ne190107Eh, symObjAddr: 0xA6AAC, symBinAddr: 0x100115F14, symSize: 0x20 }
  - { offset: 0x6ED7C, size: 0x8, addend: 0x0, symName: __ZNSt3__17__is_89B8ne190107Eh, symObjAddr: 0xA6AD4, symBinAddr: 0x100115F3C, symSize: 0x20 }
  - { offset: 0x6EDAA, size: 0x8, addend: 0x0, symName: __ZNSt3__110__to_lowerB8ne190107Eh, symObjAddr: 0xA6AFC, symBinAddr: 0x100115F64, symSize: 0x18 }
  - { offset: 0x6EDD9, size: 0x8, addend: 0x0, symName: __ZNSt3__119__throw_regex_errorB8ne190107ILNS_15regex_constants10error_typeE5EEEvv, symObjAddr: 0xA6B1C, symBinAddr: 0x100115F84, symSize: 0x98 }
  - { offset: 0x6EDFE, size: 0x8, addend: 0x0, symName: __ZNSt3__16searchB8ne190107IPKcPcEET_S4_S4_T0_S5_, symObjAddr: 0xADCD8, symBinAddr: 0x10011D140, symSize: 0x3C }
  - { offset: 0x6EE67, size: 0x8, addend: 0x0, symName: __ZNSt3__119__throw_regex_errorB8ne190107ILNS_15regex_constants10error_typeE1EEEvv, symObjAddr: 0xADD98, symBinAddr: 0x10011D200, symSize: 0x98 }
  - { offset: 0x6EE8C, size: 0x8, addend: 0x0, symName: __ZNSt3__16searchB8ne190107IPKcPcNS_10__equal_toEEET_S5_S5_T0_S6_T1_, symObjAddr: 0xAE1E4, symBinAddr: 0x10011D64C, symSize: 0x200 }
  - { offset: 0x6EF25, size: 0x8, addend: 0x0, symName: __ZNSt3__113__search_implB8ne190107IPKcS2_PcS3_NS_10__equal_toENS_10__identityES5_TnNS_9enable_ifIXaasr37__has_random_access_iterator_categoryIT_EE5valuesr37__has_random_access_iterator_categoryIT1_EE5valueEiE4typeELi0EEENS_4pairIS7_S7_EES7_T0_S8_T2_RT3_RT4_RT5_, symObjAddr: 0xAE3EC, symBinAddr: 0x10011D854, symSize: 0x374 }
  - { offset: 0x6F015, size: 0x8, addend: 0x0, symName: __ZNSt3__19make_pairB8ne190107IRPKcS3_EENS_4pairINS_18__unwrap_ref_decayIT_E4typeENS5_IT0_E4typeEEEOS6_OS9_, symObjAddr: 0xAE768, symBinAddr: 0x10011DBD0, symSize: 0x230 }
  - { offset: 0x6F066, size: 0x8, addend: 0x0, symName: __ZNSt3__127__search_random_access_implB8ne190107INS_17_ClassicAlgPolicyEPKcS3_PcS4_NS_10__equal_toENS_10__identityES6_llEENS_4pairIT0_S8_EES8_T1_T2_T3_RT4_RT5_RT6_T7_T8_, symObjAddr: 0xAE9A0, symBinAddr: 0x10011DE08, symSize: 0x9B0 }
  - { offset: 0x6F1D5, size: 0x8, addend: 0x0, symName: __ZNSt3__18__invokeB8ne190107IRNS_10__equal_toEJRKcRcEEEDTclclsr3stdE7declvalIT_EEspclsr3stdE7declvalIT0_EEEEOS6_DpOS7_, symObjAddr: 0xAF614, symBinAddr: 0x10011EA7C, symSize: 0xA0 }
  - { offset: 0x6F236, size: 0x8, addend: 0x0, symName: __ZNSt3__18__invokeB8ne190107IRNS_10__identityEJRKcEEEDTclclsr3stdE7declvalIT_EEspclsr3stdE7declvalIT0_EEEEOS5_DpOS6_, symObjAddr: 0xAF6BC, symBinAddr: 0x10011EB24, symSize: 0x98 }
  - { offset: 0x6F284, size: 0x8, addend: 0x0, symName: __ZNSt3__18__invokeB8ne190107IRNS_10__identityEJRcEEEDTclclsr3stdE7declvalIT_EEspclsr3stdE7declvalIT0_EEEEOS4_DpOS5_, symObjAddr: 0xAF75C, symBinAddr: 0x10011EBC4, symSize: 0x98 }
  - { offset: 0x6F2D2, size: 0x8, addend: 0x0, symName: __ZNSt3__19make_pairB8ne190107IRPKcS2_EENS_4pairINS_18__unwrap_ref_decayIT_E4typeENS5_IT0_E4typeEEEOS6_OS9_, symObjAddr: 0xAF7FC, symBinAddr: 0x10011EC64, symSize: 0x230 }
  - { offset: 0x6F3AE, size: 0x8, addend: 0x0, symName: __ZNSt3__18distanceB8ne190107INS_11__wrap_iterIPcEEEENS_15iterator_traitsIT_E15difference_typeES5_S5_, symObjAddr: 0xB1E14, symBinAddr: 0x10012127C, symSize: 0x5C }
  - { offset: 0x6F3F1, size: 0x8, addend: 0x0, symName: __ZNSt3__110__distanceB8ne190107INS_11__wrap_iterIPcEEEENS_15iterator_traitsIT_E15difference_typeES5_S5_NS_26random_access_iterator_tagE, symObjAddr: 0xB23EC, symBinAddr: 0x100121854, symSize: 0x1E0 }
  - { offset: 0x6F448, size: 0x8, addend: 0x0, symName: __ZNSt3__1miB8ne190107IPcS1_EEDTmicldtfp_4baseEcldtfp0_4baseEERKNS_11__wrap_iterIT_EERKNS3_IT0_EE, symObjAddr: 0xB25D4, symBinAddr: 0x100121A3C, symSize: 0x8C }
  - { offset: 0x6F494, size: 0x8, addend: 0x0, symName: __ZNSt3__112__to_addressB8ne190107INS_11__wrap_iterIPcEETnNS_9enable_ifIXsr4_AndINS_8is_classIT_EENS_15_IsFancyPointerIS6_EEEE5valueEiE4typeELi0EEEu7__decayIDTclsr19__to_address_helperIS6_EE6__callclsr3stdE7declvalIRKS6_EEEEESD_, symObjAddr: 0xB29F8, symBinAddr: 0x100121E60, symSize: 0x5C }
  - { offset: 0x6F537, size: 0x8, addend: 0x0, symName: __ZNSt3__134__uninitialized_allocator_relocateB8ne190107INS_9allocatorINS_12basic_stringIcNS_11char_traitsIcEENS1_IcEEEEEES6_EEvRT_PT0_SB_SB_, symObjAddr: 0xB52A4, symBinAddr: 0x10012470C, symSize: 0xA8 }
  - { offset: 0x6F5A0, size: 0x8, addend: 0x0, symName: __ZNSt3__14swapB8ne190107IPNS_12basic_stringIcNS_11char_traitsIcEENS_9allocatorIcEEEEEENS_9enable_ifIXaasr21is_move_constructibleIT_EE5valuesr18is_move_assignableIS9_EE5valueEvE4typeERS9_SC_, symObjAddr: 0xB5354, symBinAddr: 0x1001247BC, symSize: 0x190 }
  - { offset: 0x6F5F2, size: 0x8, addend: 0x0, symName: __ZNSt3__119__throw_regex_errorB8ne190107ILNS_15regex_constants10error_typeE2EEEvv, symObjAddr: 0xB5CBC, symBinAddr: 0x100125124, symSize: 0x98 }
  - { offset: 0x6F617, size: 0x8, addend: 0x0, symName: __ZNSt3__19make_pairB8ne190107INS_12basic_stringIcNS_11char_traitsIcEENS_9allocatorIcEEEES6_EENS_4pairINS_18__unwrap_ref_decayIT_E4typeENS8_IT0_E4typeEEEOS9_OSC_, symObjAddr: 0xB6F2C, symBinAddr: 0x100126394, symSize: 0xDC }
  - { offset: 0x6F667, size: 0x8, addend: 0x0, symName: __ZNSt3__119__throw_regex_errorB8ne190107ILNS_15regex_constants10error_typeE9EEEvv, symObjAddr: 0xB7654, symBinAddr: 0x100126ABC, symSize: 0x98 }
  - { offset: 0x6F68C, size: 0x8, addend: 0x0, symName: __ZNSt3__114__construct_atB8ne190107INS_4pairINS_12basic_stringIcNS_11char_traitsIcEENS_9allocatorIcEEEES7_EEJS8_EPS8_EEPT_SB_DpOT0_, symObjAddr: 0xB89D4, symBinAddr: 0x100127E3C, symSize: 0x6C }
  - { offset: 0x6F706, size: 0x8, addend: 0x0, symName: __ZNSt3__112construct_atB8ne190107INS_4pairINS_12basic_stringIcNS_11char_traitsIcEENS_9allocatorIcEEEES7_EEJS8_EPS8_EEPT_SB_DpOT0_, symObjAddr: 0xB8A48, symBinAddr: 0x100127EB0, symSize: 0xE0 }
  - { offset: 0x6F778, size: 0x8, addend: 0x0, symName: __ZNSt3__119__allocate_at_leastB8ne190107INS_9allocatorINS_4pairINS_12basic_stringIcNS_11char_traitsIcEENS1_IcEEEES7_EEEEEENS_19__allocation_resultINS_16allocator_traitsIT_E7pointerEEERSC_m, symObjAddr: 0xBA938, symBinAddr: 0x100129DA0, symSize: 0x40 }
  - { offset: 0x6F7BB, size: 0x8, addend: 0x0, symName: __ZNSt3__134__uninitialized_allocator_relocateB8ne190107INS_9allocatorINS_4pairINS_12basic_stringIcNS_11char_traitsIcEENS1_IcEEEES7_EEEES8_EEvRT_PT0_SD_SD_, symObjAddr: 0xBB094, symBinAddr: 0x10012A4FC, symSize: 0xA8 }
  - { offset: 0x6F824, size: 0x8, addend: 0x0, symName: __ZNSt3__14swapB8ne190107IPNS_4pairINS_12basic_stringIcNS_11char_traitsIcEENS_9allocatorIcEEEES7_EEEENS_9enable_ifIXaasr21is_move_constructibleIT_EE5valuesr18is_move_assignableISB_EE5valueEvE4typeERSB_SE_, symObjAddr: 0xBB144, symBinAddr: 0x10012A5AC, symSize: 0x190 }
  - { offset: 0x6F875, size: 0x8, addend: 0x0, symName: __ZNSt3__19make_pairB8ne190107IccEENS_4pairINS_18__unwrap_ref_decayIT_E4typeENS2_IT0_E4typeEEEOS3_OS6_, symObjAddr: 0xBBFB8, symBinAddr: 0x10012B420, symSize: 0x1FC }
  - { offset: 0x6F8C6, size: 0x8, addend: 0x0, symName: __ZNSt3__19make_pairB8ne190107IRcS1_EENS_4pairINS_18__unwrap_ref_decayIT_E4typeENS3_IT0_E4typeEEEOS4_OS7_, symObjAddr: 0xBC1BC, symBinAddr: 0x10012B624, symSize: 0x1FC }
  - { offset: 0x6F917, size: 0x8, addend: 0x0, symName: __ZNSt3__114__construct_atB8ne190107INS_4pairIccEEJS2_EPS2_EEPT_S5_DpOT0_, symObjAddr: 0xBD644, symBinAddr: 0x10012CAAC, symSize: 0x58 }
  - { offset: 0x6F991, size: 0x8, addend: 0x0, symName: __ZNSt3__112construct_atB8ne190107INS_4pairIccEEJS2_EPS2_EEPT_S5_DpOT0_, symObjAddr: 0xBD6A4, symBinAddr: 0x10012CB0C, symSize: 0x84 }
  - { offset: 0x6FA03, size: 0x8, addend: 0x0, symName: __ZNSt3__119__allocate_at_leastB8ne190107INS_9allocatorINS_4pairIccEEEEEENS_19__allocation_resultINS_16allocator_traitsIT_E7pointerEEERS7_m, symObjAddr: 0xBF338, symBinAddr: 0x10012E7A0, symSize: 0x40 }
  - { offset: 0x6FA46, size: 0x8, addend: 0x0, symName: __ZNSt3__134__uninitialized_allocator_relocateB8ne190107INS_9allocatorINS_4pairIccEEEES3_EEvRT_PT0_S8_S8_, symObjAddr: 0xBFA90, symBinAddr: 0x10012EEF8, symSize: 0x4C }
  - { offset: 0x6FAAF, size: 0x8, addend: 0x0, symName: __ZNSt3__14swapB8ne190107IPNS_4pairIccEEEENS_9enable_ifIXaasr21is_move_constructibleIT_EE5valuesr18is_move_assignableIS5_EE5valueEvE4typeERS5_S8_, symObjAddr: 0xBFAE4, symBinAddr: 0x10012EF4C, symSize: 0x190 }
  - { offset: 0x6FC0D, size: 0x8, addend: 0x0, symName: __ZNSt3__119__throw_regex_errorB8ne190107ILNS_15regex_constants10error_typeE8EEEvv, symObjAddr: 0xC334C, symBinAddr: 0x1001327B4, symSize: 0x98 }
  - { offset: 0x6FC33, size: 0x8, addend: 0x0, symName: __ZNSt3__119__throw_regex_errorB8ne190107ILNS_15regex_constants10error_typeE7EEEvv, symObjAddr: 0xC33EC, symBinAddr: 0x100132854, symSize: 0x98 }
  - { offset: 0x70582, size: 0x8, addend: 0x0, symName: __ZNSt3__119__throw_regex_errorB8ne190107ILNS_15regex_constants10error_typeE15EEEvv, symObjAddr: 0xC8AE0, symBinAddr: 0x100137F48, symSize: 0x98 }
  - { offset: 0x7061B, size: 0x8, addend: 0x0, symName: __ZNSt3__14findB8ne190107IPKccEET_S3_S3_RKT0_, symObjAddr: 0xCCDC4, symBinAddr: 0x10013C22C, symSize: 0x220 }
  - { offset: 0x7068A, size: 0x8, addend: 0x0, symName: __ZNSt3__113__rewrap_iterB8ne190107IPKcS2_NS_18__unwrap_iter_implIS2_Lb1EEEEET_S5_T0_, symObjAddr: 0xCCFEC, symBinAddr: 0x10013C454, symSize: 0x48 }
  - { offset: 0x706DF, size: 0x8, addend: 0x0, symName: __ZNSt3__134__libcpp_atomic_refcount_decrementB8ne190107IlEET_RS1_, symObjAddr: 0xCD694, symBinAddr: 0x10013CAFC, symSize: 0x78 }
  - { offset: 0x71E1B, size: 0x8, addend: 0x0, symName: _.str.4, symObjAddr: 0xDA640, symBinAddr: 0x100188480, symSize: 0x0 }
  - { offset: 0x71E54, size: 0x8, addend: 0x0, symName: _.str.6, symObjAddr: 0xDA660, symBinAddr: 0x1001884A0, symSize: 0x0 }
  - { offset: 0x71E8D, size: 0x8, addend: 0x0, symName: _.str.14, symObjAddr: 0xDA800, symBinAddr: 0x100188640, symSize: 0x0 }
  - { offset: 0x71EAA, size: 0x8, addend: 0x0, symName: _.str.15, symObjAddr: 0xDA820, symBinAddr: 0x100188660, symSize: 0x0 }
  - { offset: 0x71EC7, size: 0x8, addend: 0x0, symName: _.str.16, symObjAddr: 0xDA840, symBinAddr: 0x100188680, symSize: 0x0 }
  - { offset: 0x71EE4, size: 0x8, addend: 0x0, symName: _.str.17, symObjAddr: 0xDA880, symBinAddr: 0x1001886C0, symSize: 0x0 }
  - { offset: 0x71F01, size: 0x8, addend: 0x0, symName: _.str.18, symObjAddr: 0xDA8E0, symBinAddr: 0x100188720, symSize: 0x0 }
  - { offset: 0x71F1E, size: 0x8, addend: 0x0, symName: _.str.19, symObjAddr: 0xDA940, symBinAddr: 0x100188780, symSize: 0x0 }
  - { offset: 0x71F3B, size: 0x8, addend: 0x0, symName: _.str.20, symObjAddr: 0xDA9C0, symBinAddr: 0x100188800, symSize: 0x0 }
  - { offset: 0x71F58, size: 0x8, addend: 0x0, symName: _.str.21, symObjAddr: 0xDAA40, symBinAddr: 0x100188880, symSize: 0x0 }
  - { offset: 0x71F75, size: 0x8, addend: 0x0, symName: _.str.22, symObjAddr: 0xDAAC0, symBinAddr: 0x100188900, symSize: 0x0 }
  - { offset: 0x71F86, size: 0x8, addend: 0x0, symName: _.str.23, symObjAddr: 0xDAAE0, symBinAddr: 0x100188920, symSize: 0x0 }
  - { offset: 0x71FA3, size: 0x8, addend: 0x0, symName: _.str.24, symObjAddr: 0xDAB40, symBinAddr: 0x100188980, symSize: 0x0 }
  - { offset: 0x71FB4, size: 0x8, addend: 0x0, symName: _.str.25, symObjAddr: 0xDAB60, symBinAddr: 0x1001889A0, symSize: 0x0 }
  - { offset: 0x71FD3, size: 0x8, addend: 0x0, symName: _.str.36, symObjAddr: 0xDAB80, symBinAddr: 0x1001889C0, symSize: 0x0 }
  - { offset: 0x71FF0, size: 0x8, addend: 0x0, symName: _.str.49, symObjAddr: 0xDABA0, symBinAddr: 0x1001889E0, symSize: 0x0 }
  - { offset: 0x7200D, size: 0x8, addend: 0x0, symName: _.str.50, symObjAddr: 0xDABC0, symBinAddr: 0x100188A00, symSize: 0x0 }
  - { offset: 0x7202A, size: 0x8, addend: 0x0, symName: _.str.51, symObjAddr: 0xDABE0, symBinAddr: 0x100188A20, symSize: 0x0 }
  - { offset: 0x723F2, size: 0x8, addend: 0x0, symName: _.str.68, symObjAddr: 0xDAC00, symBinAddr: 0x100188A40, symSize: 0x0 }
  - { offset: 0x72405, size: 0x8, addend: 0x0, symName: _.str.71, symObjAddr: 0xDAC20, symBinAddr: 0x100188A60, symSize: 0x0 }
  - { offset: 0x72416, size: 0x8, addend: 0x0, symName: _.str.80, symObjAddr: 0xDAD20, symBinAddr: 0x100188B60, symSize: 0x0 }
  - { offset: 0x72427, size: 0x8, addend: 0x0, symName: _.str.81, symObjAddr: 0xDAD60, symBinAddr: 0x100188BA0, symSize: 0x0 }
  - { offset: 0x72444, size: 0x8, addend: 0x0, symName: _.str.82, symObjAddr: 0xDADA0, symBinAddr: 0x100188BE0, symSize: 0x0 }
  - { offset: 0x72455, size: 0x8, addend: 0x0, symName: _.str.83, symObjAddr: 0xDADE0, symBinAddr: 0x100188C20, symSize: 0x0 }
  - { offset: 0x72466, size: 0x8, addend: 0x0, symName: _.str.84, symObjAddr: 0xDAE20, symBinAddr: 0x100188C60, symSize: 0x0 }
  - { offset: 0x72483, size: 0x8, addend: 0x0, symName: _.str.85, symObjAddr: 0xDAE40, symBinAddr: 0x100188C80, symSize: 0x0 }
  - { offset: 0x724A0, size: 0x8, addend: 0x0, symName: _.str.86, symObjAddr: 0xDAE80, symBinAddr: 0x100188CC0, symSize: 0x0 }
  - { offset: 0x724B1, size: 0x8, addend: 0x0, symName: _.str.87, symObjAddr: 0xDAEE0, symBinAddr: 0x100188D20, symSize: 0x0 }
  - { offset: 0x724C2, size: 0x8, addend: 0x0, symName: _.str.88, symObjAddr: 0xDAF60, symBinAddr: 0x100188DA0, symSize: 0x0 }
  - { offset: 0x724DF, size: 0x8, addend: 0x0, symName: _.str.89, symObjAddr: 0xDAFC0, symBinAddr: 0x100188E00, symSize: 0x0 }
  - { offset: 0x724FC, size: 0x8, addend: 0x0, symName: _.str.90, symObjAddr: 0xDB020, symBinAddr: 0x100188E60, symSize: 0x0 }
  - { offset: 0x72519, size: 0x8, addend: 0x0, symName: _.str.91, symObjAddr: 0xDB080, symBinAddr: 0x100188EC0, symSize: 0x0 }
  - { offset: 0x72536, size: 0x8, addend: 0x0, symName: _.str.92, symObjAddr: 0xDB0E0, symBinAddr: 0x100188F20, symSize: 0x0 }
  - { offset: 0x72553, size: 0x8, addend: 0x0, symName: _.str.93, symObjAddr: 0xDB140, symBinAddr: 0x100188F80, symSize: 0x0 }
  - { offset: 0x72564, size: 0x8, addend: 0x0, symName: _.str.94, symObjAddr: 0xDB1A0, symBinAddr: 0x100188FE0, symSize: 0x0 }
  - { offset: 0x72581, size: 0x8, addend: 0x0, symName: _.str.95, symObjAddr: 0xDB200, symBinAddr: 0x100189040, symSize: 0x0 }
  - { offset: 0x72592, size: 0x8, addend: 0x0, symName: _.str.96, symObjAddr: 0xDB260, symBinAddr: 0x1001890A0, symSize: 0x0 }
  - { offset: 0x725A3, size: 0x8, addend: 0x0, symName: _.str.97, symObjAddr: 0xDB2E0, symBinAddr: 0x100189120, symSize: 0x0 }
  - { offset: 0x725B4, size: 0x8, addend: 0x0, symName: _.str.98, symObjAddr: 0xDB360, symBinAddr: 0x1001891A0, symSize: 0x0 }
  - { offset: 0x725C5, size: 0x8, addend: 0x0, symName: _.str.99, symObjAddr: 0xDB3E0, symBinAddr: 0x100189220, symSize: 0x0 }
  - { offset: 0x725E2, size: 0x8, addend: 0x0, symName: _.str.100, symObjAddr: 0xDB460, symBinAddr: 0x1001892A0, symSize: 0x0 }
  - { offset: 0x725FF, size: 0x8, addend: 0x0, symName: _.str.101, symObjAddr: 0xDB4C0, symBinAddr: 0x100189300, symSize: 0x0 }
  - { offset: 0x7261C, size: 0x8, addend: 0x0, symName: _.str.102, symObjAddr: 0xDB520, symBinAddr: 0x100189360, symSize: 0x0 }
  - { offset: 0x72639, size: 0x8, addend: 0x0, symName: _.str.103, symObjAddr: 0xDB580, symBinAddr: 0x1001893C0, symSize: 0x0 }
  - { offset: 0x72656, size: 0x8, addend: 0x0, symName: _.str.104, symObjAddr: 0xDB5E0, symBinAddr: 0x100189420, symSize: 0x0 }
  - { offset: 0x72667, size: 0x8, addend: 0x0, symName: _.str.105, symObjAddr: 0xDB640, symBinAddr: 0x100189480, symSize: 0x0 }
  - { offset: 0x72678, size: 0x8, addend: 0x0, symName: _.str.106, symObjAddr: 0xDB6A0, symBinAddr: 0x1001894E0, symSize: 0x0 }
  - { offset: 0x72689, size: 0x8, addend: 0x0, symName: _.str.107, symObjAddr: 0xDB700, symBinAddr: 0x100189540, symSize: 0x0 }
  - { offset: 0x7269A, size: 0x8, addend: 0x0, symName: _.str.108, symObjAddr: 0xDB760, symBinAddr: 0x1001895A0, symSize: 0x0 }
  - { offset: 0x726B7, size: 0x8, addend: 0x0, symName: _.str.109, symObjAddr: 0xDB7C0, symBinAddr: 0x100189600, symSize: 0x0 }
  - { offset: 0x726C8, size: 0x8, addend: 0x0, symName: _.str.110, symObjAddr: 0xDB820, symBinAddr: 0x100189660, symSize: 0x0 }
  - { offset: 0x726E5, size: 0x8, addend: 0x0, symName: _.str.111, symObjAddr: 0xDB880, symBinAddr: 0x1001896C0, symSize: 0x0 }
  - { offset: 0x72702, size: 0x8, addend: 0x0, symName: _.str.112, symObjAddr: 0xDB8E0, symBinAddr: 0x100189720, symSize: 0x0 }
  - { offset: 0x72713, size: 0x8, addend: 0x0, symName: _.str.113, symObjAddr: 0xDB940, symBinAddr: 0x100189780, symSize: 0x0 }
  - { offset: 0x72730, size: 0x8, addend: 0x0, symName: _.str.114, symObjAddr: 0xDB9A0, symBinAddr: 0x1001897E0, symSize: 0x0 }
  - { offset: 0x72741, size: 0x8, addend: 0x0, symName: _.str.115, symObjAddr: 0xDBA00, symBinAddr: 0x100189840, symSize: 0x0 }
  - { offset: 0x72752, size: 0x8, addend: 0x0, symName: _.str.116, symObjAddr: 0xDBB40, symBinAddr: 0x100189980, symSize: 0x0 }
  - { offset: 0x72763, size: 0x8, addend: 0x0, symName: _.str.117, symObjAddr: 0xDBB60, symBinAddr: 0x1001899A0, symSize: 0x0 }
  - { offset: 0x72774, size: 0x8, addend: 0x0, symName: _.str.118, symObjAddr: 0xDBB80, symBinAddr: 0x1001899C0, symSize: 0x0 }
  - { offset: 0x72785, size: 0x8, addend: 0x0, symName: _.str.119, symObjAddr: 0xDBBA0, symBinAddr: 0x1001899E0, symSize: 0x0 }
  - { offset: 0x72796, size: 0x8, addend: 0x0, symName: _.str.120, symObjAddr: 0xDBBC0, symBinAddr: 0x100189A00, symSize: 0x0 }
  - { offset: 0x727A7, size: 0x8, addend: 0x0, symName: _.str.121, symObjAddr: 0xDBBE0, symBinAddr: 0x100189A20, symSize: 0x0 }
  - { offset: 0x727B8, size: 0x8, addend: 0x0, symName: _.str.122, symObjAddr: 0xDBC20, symBinAddr: 0x100189A60, symSize: 0x0 }
  - { offset: 0x727D5, size: 0x8, addend: 0x0, symName: _.str.123, symObjAddr: 0xDBC60, symBinAddr: 0x100189AA0, symSize: 0x0 }
  - { offset: 0x727E6, size: 0x8, addend: 0x0, symName: _.str.124, symObjAddr: 0xDBCC0, symBinAddr: 0x100189B00, symSize: 0x0 }
  - { offset: 0x72803, size: 0x8, addend: 0x0, symName: _.str.125, symObjAddr: 0xDBD00, symBinAddr: 0x100189B40, symSize: 0x0 }
  - { offset: 0x72814, size: 0x8, addend: 0x0, symName: _.str.126, symObjAddr: 0xDBD60, symBinAddr: 0x100189BA0, symSize: 0x0 }
  - { offset: 0x72825, size: 0x8, addend: 0x0, symName: _.str.127, symObjAddr: 0xDBDE0, symBinAddr: 0x100189C20, symSize: 0x0 }
  - { offset: 0x72842, size: 0x8, addend: 0x0, symName: _.str.128, symObjAddr: 0xDBE80, symBinAddr: 0x100189CC0, symSize: 0x0 }
  - { offset: 0x7285F, size: 0x8, addend: 0x0, symName: _.str.129, symObjAddr: 0xDBF20, symBinAddr: 0x100189D60, symSize: 0x0 }
  - { offset: 0x7287C, size: 0x8, addend: 0x0, symName: _.str.130, symObjAddr: 0xDBFE0, symBinAddr: 0x100189E20, symSize: 0x0 }
  - { offset: 0x72899, size: 0x8, addend: 0x0, symName: _.str.131, symObjAddr: 0xDC060, symBinAddr: 0x100189EA0, symSize: 0x0 }
  - { offset: 0x728B6, size: 0x8, addend: 0x0, symName: _.str.132, symObjAddr: 0xDC100, symBinAddr: 0x100189F40, symSize: 0x0 }
  - { offset: 0x728C7, size: 0x8, addend: 0x0, symName: _.str.133, symObjAddr: 0xDC180, symBinAddr: 0x100189FC0, symSize: 0x0 }
  - { offset: 0x728E4, size: 0x8, addend: 0x0, symName: _.str.134, symObjAddr: 0xDC220, symBinAddr: 0x10018A060, symSize: 0x0 }
  - { offset: 0x728F5, size: 0x8, addend: 0x0, symName: _.str.135, symObjAddr: 0xDC2C0, symBinAddr: 0x10018A100, symSize: 0x0 }
  - { offset: 0x72912, size: 0x8, addend: 0x0, symName: _.str.136, symObjAddr: 0xDC340, symBinAddr: 0x10018A180, symSize: 0x0 }
  - { offset: 0x7292F, size: 0x8, addend: 0x0, symName: _.str.137, symObjAddr: 0xDC3E0, symBinAddr: 0x10018A220, symSize: 0x0 }
  - { offset: 0x72940, size: 0x8, addend: 0x0, symName: _.str.138, symObjAddr: 0xDC460, symBinAddr: 0x10018A2A0, symSize: 0x0 }
  - { offset: 0x7295D, size: 0x8, addend: 0x0, symName: _.str.139, symObjAddr: 0xDC500, symBinAddr: 0x10018A340, symSize: 0x0 }
  - { offset: 0x7297A, size: 0x8, addend: 0x0, symName: _.str.140, symObjAddr: 0xDC580, symBinAddr: 0x10018A3C0, symSize: 0x0 }
  - { offset: 0x72997, size: 0x8, addend: 0x0, symName: _.str.141, symObjAddr: 0xDC600, symBinAddr: 0x10018A440, symSize: 0x0 }
  - { offset: 0x729B4, size: 0x8, addend: 0x0, symName: _.str.142, symObjAddr: 0xDC6A0, symBinAddr: 0x10018A4E0, symSize: 0x0 }
  - { offset: 0x729D1, size: 0x8, addend: 0x0, symName: _.str.143, symObjAddr: 0xDC720, symBinAddr: 0x10018A560, symSize: 0x0 }
  - { offset: 0x729E2, size: 0x8, addend: 0x0, symName: _.str.144, symObjAddr: 0xDC7A0, symBinAddr: 0x10018A5E0, symSize: 0x0 }
  - { offset: 0x729F3, size: 0x8, addend: 0x0, symName: _.str.145, symObjAddr: 0xDC820, symBinAddr: 0x10018A660, symSize: 0x0 }
  - { offset: 0x72A04, size: 0x8, addend: 0x0, symName: _.str.146, symObjAddr: 0xDC8A0, symBinAddr: 0x10018A6E0, symSize: 0x0 }
  - { offset: 0x72A15, size: 0x8, addend: 0x0, symName: _.str.147, symObjAddr: 0xDC920, symBinAddr: 0x10018A760, symSize: 0x0 }
  - { offset: 0x72A32, size: 0x8, addend: 0x0, symName: _.str.148, symObjAddr: 0xDC9C0, symBinAddr: 0x10018A800, symSize: 0x0 }
  - { offset: 0x72A4F, size: 0x8, addend: 0x0, symName: _.str.149, symObjAddr: 0xDCA40, symBinAddr: 0x10018A880, symSize: 0x0 }
  - { offset: 0x72A60, size: 0x8, addend: 0x0, symName: _.str.150, symObjAddr: 0xDCAE0, symBinAddr: 0x10018A920, symSize: 0x0 }
  - { offset: 0x72A7D, size: 0x8, addend: 0x0, symName: _.str.151, symObjAddr: 0xDCB60, symBinAddr: 0x10018A9A0, symSize: 0x0 }
  - { offset: 0x72A9A, size: 0x8, addend: 0x0, symName: _.str.152, symObjAddr: 0xDCC00, symBinAddr: 0x10018AA40, symSize: 0x0 }
  - { offset: 0x72AB7, size: 0x8, addend: 0x0, symName: _.str.153, symObjAddr: 0xDCC80, symBinAddr: 0x10018AAC0, symSize: 0x0 }
  - { offset: 0x72AC8, size: 0x8, addend: 0x0, symName: _.str.154, symObjAddr: 0xDCD20, symBinAddr: 0x10018AB60, symSize: 0x0 }
  - { offset: 0x72AE7, size: 0x8, addend: 0x0, symName: _.str.155, symObjAddr: 0xDCDA0, symBinAddr: 0x10018ABE0, symSize: 0x0 }
  - { offset: 0x72AFA, size: 0x8, addend: 0x0, symName: _.str.156, symObjAddr: 0xDCE20, symBinAddr: 0x10018AC60, symSize: 0x0 }
  - { offset: 0x72B0D, size: 0x8, addend: 0x0, symName: _.str.157, symObjAddr: 0xDCEC0, symBinAddr: 0x10018AD00, symSize: 0x0 }
  - { offset: 0x72B2C, size: 0x8, addend: 0x0, symName: _.str.158, symObjAddr: 0xDCF40, symBinAddr: 0x10018AD80, symSize: 0x0 }
  - { offset: 0x72B4B, size: 0x8, addend: 0x0, symName: _.str.159, symObjAddr: 0xDCFE0, symBinAddr: 0x10018AE20, symSize: 0x0 }
  - { offset: 0x72B6A, size: 0x8, addend: 0x0, symName: _.str.160, symObjAddr: 0xDD080, symBinAddr: 0x10018AEC0, symSize: 0x0 }
  - { offset: 0x72B89, size: 0x8, addend: 0x0, symName: _.str.161, symObjAddr: 0xDD100, symBinAddr: 0x10018AF40, symSize: 0x0 }
  - { offset: 0x72BA8, size: 0x8, addend: 0x0, symName: _.str.162, symObjAddr: 0xDD1C0, symBinAddr: 0x10018B000, symSize: 0x0 }
  - { offset: 0x72BBB, size: 0x8, addend: 0x0, symName: _.str.163, symObjAddr: 0xDD260, symBinAddr: 0x10018B0A0, symSize: 0x0 }
  - { offset: 0x72BCE, size: 0x8, addend: 0x0, symName: _.str.164, symObjAddr: 0xDD2C0, symBinAddr: 0x10018B100, symSize: 0x0 }
  - { offset: 0x72BE1, size: 0x8, addend: 0x0, symName: _.str.165, symObjAddr: 0xDD360, symBinAddr: 0x10018B1A0, symSize: 0x0 }
  - { offset: 0x72BF4, size: 0x8, addend: 0x0, symName: _.str.167, symObjAddr: 0xDD380, symBinAddr: 0x10018B1C0, symSize: 0x0 }
  - { offset: 0x73C57, size: 0x8, addend: 0x0, symName: ___cxx_global_var_init, symObjAddr: 0xD6E0C, symBinAddr: 0x100145070, symSize: 0x4A4 }
  - { offset: 0x73C77, size: 0x8, addend: 0x0, symName: __ZN7testing8internal16SuiteApiResolverIN12_GLOBAL__N_112SearchEngineEE19GetSetUpCaseOrSuiteEPKci, symObjAddr: 0x100, symBinAddr: 0x10007A250, symSize: 0x504 }
  - { offset: 0x73CCC, size: 0x8, addend: 0x0, symName: __ZN7testing8internal16SuiteApiResolverIN12_GLOBAL__N_112SearchEngineEE22GetTearDownCaseOrSuiteEPKci, symObjAddr: 0x60C, symBinAddr: 0x10007A75C, symSize: 0x4FC }
  - { offset: 0x73D26, size: 0x8, addend: 0x0, symName: __ZN7testing8internal15TestFactoryImplIN12_GLOBAL__N_129SearchEngine_MissingFile_TestEEC1Ev, symObjAddr: 0xB08, symBinAddr: 0x10007AC58, symSize: 0x64 }
  - { offset: 0x73D53, size: 0x8, addend: 0x0, symName: ___cxx_global_var_init.3, symObjAddr: 0xD72B0, symBinAddr: 0x100145514, symSize: 0x4A4 }
  - { offset: 0x73D6C, size: 0x8, addend: 0x0, symName: __ZN7testing8internal15TestFactoryImplIN12_GLOBAL__N_127SearchEngine_cplusplus_TestEEC1Ev, symObjAddr: 0xBD0, symBinAddr: 0x10007ACBC, symSize: 0x64 }
  - { offset: 0x73D99, size: 0x8, addend: 0x0, symName: ___cxx_global_var_init.5, symObjAddr: 0xD7754, symBinAddr: 0x1001459B8, symSize: 0x4A4 }
  - { offset: 0x73DB2, size: 0x8, addend: 0x0, symName: __ZN7testing8internal15TestFactoryImplIN12_GLOBAL__N_128SearchEngine_uiccs_news_TestEEC1Ev, symObjAddr: 0xC34, symBinAddr: 0x10007AD20, symSize: 0x64 }
  - { offset: 0x73DE5, size: 0x8, addend: 0x0, symName: __ZN7testing8internal15TestFactoryImplIN12_GLOBAL__N_129SearchEngine_MissingFile_TestEEC2Ev, symObjAddr: 0x2054, symBinAddr: 0x10007AD84, symSize: 0xF8 }
  - { offset: 0x73E12, size: 0x8, addend: 0x0, symName: __ZN7testing8internal15TestFactoryImplIN12_GLOBAL__N_129SearchEngine_MissingFile_TestEED1Ev, symObjAddr: 0x2200, symBinAddr: 0x10007AE7C, symSize: 0x64 }
  - { offset: 0x73E3F, size: 0x8, addend: 0x0, symName: __ZN7testing8internal15TestFactoryImplIN12_GLOBAL__N_129SearchEngine_MissingFile_TestEED0Ev, symObjAddr: 0x2264, symBinAddr: 0x10007AEE0, symSize: 0x68 }
  - { offset: 0x73E6C, size: 0x8, addend: 0x0, symName: __ZN7testing8internal15TestFactoryImplIN12_GLOBAL__N_129SearchEngine_MissingFile_TestEE10CreateTestEv, symObjAddr: 0x22CC, symBinAddr: 0x10007AF48, symSize: 0xFC }
  - { offset: 0x73E92, size: 0x8, addend: 0x0, symName: __ZN7testing8internal15TestFactoryImplIN12_GLOBAL__N_129SearchEngine_MissingFile_TestEED2Ev, symObjAddr: 0x246C, symBinAddr: 0x10007B044, symSize: 0x64 }
  - { offset: 0x73EBF, size: 0x8, addend: 0x0, symName: __ZN12_GLOBAL__N_129SearchEngine_MissingFile_TestC1Ev, symObjAddr: 0x252C, symBinAddr: 0x10007B0A8, symSize: 0x64 }
  - { offset: 0x73EE9, size: 0x8, addend: 0x0, symName: __ZN12_GLOBAL__N_129SearchEngine_MissingFile_TestC2Ev, symObjAddr: 0x2590, symBinAddr: 0x10007B10C, symSize: 0xF8 }
  - { offset: 0x73F18, size: 0x8, addend: 0x0, symName: __ZN12_GLOBAL__N_112SearchEngineC2Ev, symObjAddr: 0x2688, symBinAddr: 0x10007B204, symSize: 0xF8 }
  - { offset: 0x73F44, size: 0x8, addend: 0x0, symName: __ZN12_GLOBAL__N_129SearchEngine_MissingFile_TestD1Ev, symObjAddr: 0x2780, symBinAddr: 0x10007B2FC, symSize: 0x64 }
  - { offset: 0x73F6E, size: 0x8, addend: 0x0, symName: __ZN12_GLOBAL__N_129SearchEngine_MissingFile_TestD0Ev, symObjAddr: 0x27E4, symBinAddr: 0x10007B360, symSize: 0x68 }
  - { offset: 0x73F98, size: 0x8, addend: 0x0, symName: __ZN12_GLOBAL__N_129SearchEngine_MissingFile_Test8TestBodyEv, symObjAddr: 0x284C, symBinAddr: 0x10007B3C8, symSize: 0x16D8 }
  - { offset: 0x74073, size: 0x8, addend: 0x0, symName: __ZN12_GLOBAL__N_114CaptureCinCoutC2Ev, symObjAddr: 0x3F7C, symBinAddr: 0x10007CAA0, symSize: 0xBEC }
  - { offset: 0x7409D, size: 0x8, addend: 0x0, symName: __ZN12_GLOBAL__N_112SearchEngineD1Ev, symObjAddr: 0x4B68, symBinAddr: 0x10007D68C, symSize: 0x54 }
  - { offset: 0x740C9, size: 0x8, addend: 0x0, symName: __ZN12_GLOBAL__N_112SearchEngineD0Ev, symObjAddr: 0x4BBC, symBinAddr: 0x10007D6E0, symSize: 0x50 }
  - { offset: 0x740F5, size: 0x8, addend: 0x0, symName: __ZNSt3__19basic_iosIcNS_11char_traitsIcEEE5rdbufB8ne190107EPNS_15basic_streambufIcS2_EE, symObjAddr: 0x5090, symBinAddr: 0x10007D730, symSize: 0x178 }
  - { offset: 0x7413B, size: 0x8, addend: 0x0, symName: __ZNKSt3__118basic_stringstreamIcNS_11char_traitsIcEENS_9allocatorIcEEE5rdbufB8ne190107Ev, symObjAddr: 0x5208, symBinAddr: 0x10007D8A8, symSize: 0xD0 }
  - { offset: 0x74166, size: 0x8, addend: 0x0, symName: __ZN12_GLOBAL__N_114CaptureCinCoutD1Ev, symObjAddr: 0x5350, symBinAddr: 0x10007D978, symSize: 0x54 }
  - { offset: 0x74190, size: 0x8, addend: 0x0, symName: __ZN12_GLOBAL__N_114CaptureCinCoutD0Ev, symObjAddr: 0x53A4, symBinAddr: 0x10007D9CC, symSize: 0x50 }
  - { offset: 0x741C0, size: 0x8, addend: 0x0, symName: __ZNSt3__18ios_base5rdbufB8ne190107EPv, symObjAddr: 0x6844, symBinAddr: 0x10007DA1C, symSize: 0x188 }
  - { offset: 0x741FA, size: 0x8, addend: 0x0, symName: __ZN12_GLOBAL__N_129SearchEngine_MissingFile_TestD2Ev, symObjAddr: 0x6DD4, symBinAddr: 0x10007DBA4, symSize: 0x64 }
  - { offset: 0x74224, size: 0x8, addend: 0x0, symName: __ZN12_GLOBAL__N_112SearchEngineD2Ev, symObjAddr: 0x6E38, symBinAddr: 0x10007DC08, symSize: 0x64 }
  - { offset: 0x74250, size: 0x8, addend: 0x0, symName: __ZN12_GLOBAL__N_114CaptureCinCoutD2Ev, symObjAddr: 0x6E9C, symBinAddr: 0x10007DC6C, symSize: 0x658 }
  - { offset: 0x7427A, size: 0x8, addend: 0x0, symName: __ZNSt3__113basic_ostreamIcNS_11char_traitsIcEEElsB8ne190107EPFRS3_S4_E, symObjAddr: 0x75AC, symBinAddr: 0x10007E2C4, symSize: 0x124 }
  - { offset: 0x742AE, size: 0x8, addend: 0x0, symName: __ZNSt3__16vectorINS_12basic_stringIcNS_11char_traitsIcEENS_9allocatorIcEEEENS4_IS6_EEEC1B8ne190107ESt16initializer_listIS6_E, symObjAddr: 0x7A20, symBinAddr: 0x10007E738, symSize: 0x74 }
  - { offset: 0x74319, size: 0x8, addend: 0x0, symName: __ZNSt3__119basic_ostringstreamIcNS_11char_traitsIcEENS_9allocatorIcEEEC1B8ne190107Ev, symObjAddr: 0x7A94, symBinAddr: 0x10007E7AC, symSize: 0x314 }
  - { offset: 0x74343, size: 0x8, addend: 0x0, symName: __ZNSt3__16vectorINS_12basic_stringIcNS_11char_traitsIcEENS_9allocatorIcEEEENS4_IS6_EEE5beginB8ne190107Ev, symObjAddr: 0x7DA8, symBinAddr: 0x10007EAC0, symSize: 0xA8 }
  - { offset: 0x74369, size: 0x8, addend: 0x0, symName: __ZNSt3__16vectorINS_12basic_stringIcNS_11char_traitsIcEENS_9allocatorIcEEEENS4_IS6_EEE3endB8ne190107Ev, symObjAddr: 0x7E50, symBinAddr: 0x10007EB68, symSize: 0xAC }
  - { offset: 0x7438F, size: 0x8, addend: 0x0, symName: __ZNKSt3__111__wrap_iterIPNS_12basic_stringIcNS_11char_traitsIcEENS_9allocatorIcEEEEEdeB8ne190107Ev, symObjAddr: 0x7F94, symBinAddr: 0x10007ECAC, symSize: 0xD4 }
  - { offset: 0x743B5, size: 0x8, addend: 0x0, symName: __ZNSt3__111__wrap_iterIPNS_12basic_stringIcNS_11char_traitsIcEENS_9allocatorIcEEEEEppB8ne190107Ev, symObjAddr: 0x8174, symBinAddr: 0x10007ED80, symSize: 0x178 }
  - { offset: 0x743DB, size: 0x8, addend: 0x0, symName: __ZNKRSt3__119basic_ostringstreamIcNS_11char_traitsIcEENS_9allocatorIcEEE3strB8ne190107Ev, symObjAddr: 0x82EC, symBinAddr: 0x10007EEF8, symSize: 0x198 }
  - { offset: 0x7440C, size: 0x8, addend: 0x0, symName: __ZN7testing15AssertionResultC1IbEERKT_PNSt3__19enable_ifIXntsr3std14is_convertibleIS2_S0_EE5valueEvE4typeE, symObjAddr: 0x8CEC, symBinAddr: 0x10007F760, symSize: 0x74 }
  - { offset: 0x7446F, size: 0x8, addend: 0x0, symName: __ZN7testing7MessagelsIA72_cEERS0_RKT_, symObjAddr: 0x8E48, symBinAddr: 0x10007F7D4, symSize: 0x140 }
  - { offset: 0x744B3, size: 0x8, addend: 0x0, symName: __ZN7testing7MessagelsEPFRNSt3__113basic_ostreamIcNS1_11char_traitsIcEEEES6_E, symObjAddr: 0x8F88, symBinAddr: 0x10007F914, symSize: 0x1C0 }
  - { offset: 0x744FE, size: 0x8, addend: 0x0, symName: __ZN7testing7MessagelsIA13_cEERS0_RKT_, symObjAddr: 0x9148, symBinAddr: 0x10007FAD4, symSize: 0x140 }
  - { offset: 0x74578, size: 0x8, addend: 0x0, symName: __ZNSt3__119basic_ostringstreamIcNS_11char_traitsIcEENS_9allocatorIcEEED1Ev, symObjAddr: 0x9524, symBinAddr: 0x10007FC14, symSize: 0x78 }
  - { offset: 0x745A5, size: 0x8, addend: 0x0, symName: __ZNSt3__16vectorINS_12basic_stringIcNS_11char_traitsIcEENS_9allocatorIcEEEENS4_IS6_EEED1B8ne190107Ev, symObjAddr: 0x959C, symBinAddr: 0x10007FC8C, symSize: 0x64 }
  - { offset: 0x745EA, size: 0x8, addend: 0x0, symName: __ZNSt3__16vectorINS_12basic_stringIcNS_11char_traitsIcEENS_9allocatorIcEEEENS4_IS6_EEEC2B8ne190107ESt16initializer_listIS6_E, symObjAddr: 0xCB84, symBinAddr: 0x10007FCF0, symSize: 0x4C4 }
  - { offset: 0x74648, size: 0x8, addend: 0x0, symName: __ZNSt3__117__compressed_pairIPNS_12basic_stringIcNS_11char_traitsIcEENS_9allocatorIcEEEENS4_IS6_EEEC1B8ne190107IDnNS_18__default_init_tagEEEOT_OT0_, symObjAddr: 0xD048, symBinAddr: 0x1000801B4, symSize: 0x74 }
  - { offset: 0x746A0, size: 0x8, addend: 0x0, symName: __ZNSt3__16vectorINS_12basic_stringIcNS_11char_traitsIcEENS_9allocatorIcEEEENS4_IS6_EEE16__destroy_vectorC1B8ne190107ERS8_, symObjAddr: 0xD138, symBinAddr: 0x1000802A4, symSize: 0x6C }
  - { offset: 0x746D9, size: 0x8, addend: 0x0, symName: __ZNKSt16initializer_listINSt3__112basic_stringIcNS0_11char_traitsIcEENS0_9allocatorIcEEEEE4sizeB8ne190107Ev, symObjAddr: 0xD1A4, symBinAddr: 0x100080310, symSize: 0xA0 }
  - { offset: 0x746FF, size: 0x8, addend: 0x0, symName: __ZNSt3__16vectorINS_12basic_stringIcNS_11char_traitsIcEENS_9allocatorIcEEEENS4_IS6_EEE11__vallocateB8ne190107Em, symObjAddr: 0xD244, symBinAddr: 0x1000803B0, symSize: 0x48C }
  - { offset: 0x74749, size: 0x8, addend: 0x0, symName: __ZNSt3__16vectorINS_12basic_stringIcNS_11char_traitsIcEENS_9allocatorIcEEEENS4_IS6_EEE18__construct_at_endIPKS6_SB_EEvT_T0_m, symObjAddr: 0xD6D0, symBinAddr: 0x10008083C, symSize: 0x3D4 }
  - { offset: 0x747C5, size: 0x8, addend: 0x0, symName: __ZNSt3__128__exception_guard_exceptionsINS_6vectorINS_12basic_stringIcNS_11char_traitsIcEENS_9allocatorIcEEEENS5_IS7_EEE16__destroy_vectorEE10__completeB8ne190107Ev, symObjAddr: 0xDCC4, symBinAddr: 0x100080C10, symSize: 0xC4 }
  - { offset: 0x747EB, size: 0x8, addend: 0x0, symName: __ZNSt3__128__exception_guard_exceptionsINS_6vectorINS_12basic_stringIcNS_11char_traitsIcEENS_9allocatorIcEEEENS5_IS7_EEE16__destroy_vectorEED1B8ne190107Ev, symObjAddr: 0xDD88, symBinAddr: 0x100080CD4, symSize: 0x64 }
  - { offset: 0x74815, size: 0x8, addend: 0x0, symName: __ZNSt3__117__compressed_pairIPNS_12basic_stringIcNS_11char_traitsIcEENS_9allocatorIcEEEENS4_IS6_EEEC2B8ne190107IDnNS_18__default_init_tagEEEOT_OT0_, symObjAddr: 0xDDEC, symBinAddr: 0x100080D38, symSize: 0x104 }
  - { offset: 0x7486D, size: 0x8, addend: 0x0, symName: __ZNSt3__122__compressed_pair_elemIPNS_12basic_stringIcNS_11char_traitsIcEENS_9allocatorIcEEEELi0ELb0EEC2B8ne190107IDnTnNS_9enable_ifIXntsr7is_sameIS8_u7__decayIT_EEE5valueEiE4typeELi0EEEOSB_, symObjAddr: 0xDEF0, symBinAddr: 0x100080E3C, symSize: 0xAC }
  - { offset: 0x748B4, size: 0x8, addend: 0x0, symName: __ZNSt3__122__compressed_pair_elemINS_9allocatorINS_12basic_stringIcNS_11char_traitsIcEENS1_IcEEEEEELi1ELb1EEC2B8ne190107ENS_18__default_init_tagE, symObjAddr: 0xDF9C, symBinAddr: 0x100080EE8, symSize: 0x70 }
  - { offset: 0x748E9, size: 0x8, addend: 0x0, symName: __ZNSt3__19allocatorINS_12basic_stringIcNS_11char_traitsIcEENS0_IcEEEEEC2B8ne190107Ev, symObjAddr: 0xE00C, symBinAddr: 0x100080F58, symSize: 0x70 }
  - { offset: 0x74913, size: 0x8, addend: 0x0, symName: __ZNSt3__116__non_trivial_ifILb1ENS_9allocatorINS_12basic_stringIcNS_11char_traitsIcEENS1_IcEEEEEEEC2B8ne190107Ev, symObjAddr: 0xE07C, symBinAddr: 0x100080FC8, symSize: 0x48 }
  - { offset: 0x7493D, size: 0x8, addend: 0x0, symName: __ZNSt3__128__exception_guard_exceptionsINS_6vectorINS_12basic_stringIcNS_11char_traitsIcEENS_9allocatorIcEEEENS5_IS7_EEE16__destroy_vectorEEC1B8ne190107ESA_, symObjAddr: 0xE0C4, symBinAddr: 0x100081010, symSize: 0x6C }
  - { offset: 0x74975, size: 0x8, addend: 0x0, symName: __ZNSt3__128__exception_guard_exceptionsINS_6vectorINS_12basic_stringIcNS_11char_traitsIcEENS_9allocatorIcEEEENS5_IS7_EEE16__destroy_vectorEEC2B8ne190107ESA_, symObjAddr: 0xE130, symBinAddr: 0x10008107C, symSize: 0xE0 }
  - { offset: 0x749AD, size: 0x8, addend: 0x0, symName: __ZNSt3__16vectorINS_12basic_stringIcNS_11char_traitsIcEENS_9allocatorIcEEEENS4_IS6_EEE16__destroy_vectorC2B8ne190107ERS8_, symObjAddr: 0xE210, symBinAddr: 0x10008115C, symSize: 0xE8 }
  - { offset: 0x749E6, size: 0x8, addend: 0x0, symName: __ZNKSt3__16vectorINS_12basic_stringIcNS_11char_traitsIcEENS_9allocatorIcEEEENS4_IS6_EEE8max_sizeEv, symObjAddr: 0xE2F8, symBinAddr: 0x100081244, symSize: 0x2FC }
  - { offset: 0x74A0D, size: 0x8, addend: 0x0, symName: __ZNKSt3__16vectorINS_12basic_stringIcNS_11char_traitsIcEENS_9allocatorIcEEEENS4_IS6_EEE20__throw_length_errorB8ne190107Ev, symObjAddr: 0xE5F4, symBinAddr: 0x100081540, symSize: 0x74 }
  - { offset: 0x74A33, size: 0x8, addend: 0x0, symName: __ZNSt3__16vectorINS_12basic_stringIcNS_11char_traitsIcEENS_9allocatorIcEEEENS4_IS6_EEE7__allocB8ne190107Ev, symObjAddr: 0xE6B0, symBinAddr: 0x1000815FC, symSize: 0xC4 }
  - { offset: 0x74A59, size: 0x8, addend: 0x0, symName: __ZNSt3__16vectorINS_12basic_stringIcNS_11char_traitsIcEENS_9allocatorIcEEEENS4_IS6_EEE9__end_capB8ne190107Ev, symObjAddr: 0xE774, symBinAddr: 0x1000816C0, symSize: 0xD8 }
  - { offset: 0x74A7F, size: 0x8, addend: 0x0, symName: __ZNKSt3__16vectorINS_12basic_stringIcNS_11char_traitsIcEENS_9allocatorIcEEEENS4_IS6_EEE14__annotate_newB8ne190107Em, symObjAddr: 0xE84C, symBinAddr: 0x100081798, symSize: 0x200 }
  - { offset: 0x74ABF, size: 0x8, addend: 0x0, symName: __ZNSt3__116allocator_traitsINS_9allocatorINS_12basic_stringIcNS_11char_traitsIcEENS1_IcEEEEEEE8max_sizeB8ne190107IS7_vTnNS_9enable_ifIXntsr14__has_max_sizeIKT_EE5valueEiE4typeELi0EEEmRKS7_, symObjAddr: 0xEB30, symBinAddr: 0x1000819A0, symSize: 0x54 }
  - { offset: 0x74AF0, size: 0x8, addend: 0x0, symName: __ZNKSt3__16vectorINS_12basic_stringIcNS_11char_traitsIcEENS_9allocatorIcEEEENS4_IS6_EEE7__allocB8ne190107Ev, symObjAddr: 0xEB84, symBinAddr: 0x1000819F4, symSize: 0xC4 }
  - { offset: 0x74B16, size: 0x8, addend: 0x0, symName: __ZNSt3__114numeric_limitsIlE3maxB8ne190107Ev, symObjAddr: 0xEC50, symBinAddr: 0x100081AC0, symSize: 0x14 }
  - { offset: 0x74B2A, size: 0x8, addend: 0x0, symName: __ZNKSt3__117__compressed_pairIPNS_12basic_stringIcNS_11char_traitsIcEENS_9allocatorIcEEEENS4_IS6_EEE6secondB8ne190107Ev, symObjAddr: 0xEFD8, symBinAddr: 0x100081AD4, symSize: 0xC4 }
  - { offset: 0x74B50, size: 0x8, addend: 0x0, symName: __ZNKSt3__122__compressed_pair_elemINS_9allocatorINS_12basic_stringIcNS_11char_traitsIcEENS1_IcEEEEEELi1ELb1EE5__getB8ne190107Ev, symObjAddr: 0xF09C, symBinAddr: 0x100081B98, symSize: 0x64 }
  - { offset: 0x74B76, size: 0x8, addend: 0x0, symName: __ZNSt3__123__libcpp_numeric_limitsIlLb1EE3maxB8ne190107Ev, symObjAddr: 0xF108, symBinAddr: 0x100081C04, symSize: 0x8 }
  - { offset: 0x74B8A, size: 0x8, addend: 0x0, symName: __ZNSt12length_errorC1B8ne190107EPKc, symObjAddr: 0xF1BC, symBinAddr: 0x100081CB8, symSize: 0x6C }
  - { offset: 0x74BC2, size: 0x8, addend: 0x0, symName: __ZNSt12length_errorC2B8ne190107EPKc, symObjAddr: 0xF228, symBinAddr: 0x100081D24, symSize: 0x108 }
  - { offset: 0x74BFA, size: 0x8, addend: 0x0, symName: __ZNSt3__19allocatorINS_12basic_stringIcNS_11char_traitsIcEENS0_IcEEEEE8allocateB8ne190107Em, symObjAddr: 0xF330, symBinAddr: 0x100081E2C, symSize: 0xBC }
  - { offset: 0x74C2E, size: 0x8, addend: 0x0, symName: __ZNSt3__117__compressed_pairIPNS_12basic_stringIcNS_11char_traitsIcEENS_9allocatorIcEEEENS4_IS6_EEE6secondB8ne190107Ev, symObjAddr: 0xF588, symBinAddr: 0x100081EE8, symSize: 0xC4 }
  - { offset: 0x74C54, size: 0x8, addend: 0x0, symName: __ZNSt3__122__compressed_pair_elemINS_9allocatorINS_12basic_stringIcNS_11char_traitsIcEENS1_IcEEEEEELi1ELb1EE5__getB8ne190107Ev, symObjAddr: 0xF64C, symBinAddr: 0x100081FAC, symSize: 0x64 }
  - { offset: 0x74C7A, size: 0x8, addend: 0x0, symName: __ZNSt3__117__compressed_pairIPNS_12basic_stringIcNS_11char_traitsIcEENS_9allocatorIcEEEENS4_IS6_EEE5firstB8ne190107Ev, symObjAddr: 0xF6B0, symBinAddr: 0x100082010, symSize: 0xEC }
  - { offset: 0x74CA0, size: 0x8, addend: 0x0, symName: __ZNKSt3__16vectorINS_12basic_stringIcNS_11char_traitsIcEENS_9allocatorIcEEEENS4_IS6_EEE31__annotate_contiguous_containerB8ne190107EPKvSA_, symObjAddr: 0xF828, symBinAddr: 0x1000820FC, symSize: 0x14C }
  - { offset: 0x74CE4, size: 0x8, addend: 0x0, symName: __ZNKSt3__16vectorINS_12basic_stringIcNS_11char_traitsIcEENS_9allocatorIcEEEENS4_IS6_EEE4dataB8ne190107Ev, symObjAddr: 0xF974, symBinAddr: 0x100082248, symSize: 0xA0 }
  - { offset: 0x74D0A, size: 0x8, addend: 0x0, symName: __ZNKSt3__16vectorINS_12basic_stringIcNS_11char_traitsIcEENS_9allocatorIcEEEENS4_IS6_EEE8capacityB8ne190107Ev, symObjAddr: 0xFA14, symBinAddr: 0x1000822E8, symSize: 0x124 }
  - { offset: 0x74D30, size: 0x8, addend: 0x0, symName: __ZNKSt3__16vectorINS_12basic_stringIcNS_11char_traitsIcEENS_9allocatorIcEEEENS4_IS6_EEE9__end_capB8ne190107Ev, symObjAddr: 0xFBA8, symBinAddr: 0x10008247C, symSize: 0xD8 }
  - { offset: 0x74D56, size: 0x8, addend: 0x0, symName: __ZNKSt3__117__compressed_pairIPNS_12basic_stringIcNS_11char_traitsIcEENS_9allocatorIcEEEENS4_IS6_EEE5firstB8ne190107Ev, symObjAddr: 0xFC80, symBinAddr: 0x100082554, symSize: 0xEC }
  - { offset: 0x74D97, size: 0x8, addend: 0x0, symName: __ZNSt3__16vectorINS_12basic_stringIcNS_11char_traitsIcEENS_9allocatorIcEEEENS4_IS6_EEE21_ConstructTransactionC1B8ne190107ERS8_m, symObjAddr: 0xFDF8, symBinAddr: 0x100082640, symSize: 0x74 }
  - { offset: 0x74DDF, size: 0x8, addend: 0x0, symName: __ZNSt3__16vectorINS_12basic_stringIcNS_11char_traitsIcEENS_9allocatorIcEEEENS4_IS6_EEE21_ConstructTransactionD1B8ne190107Ev, symObjAddr: 0x100D8, symBinAddr: 0x100082920, symSize: 0x64 }
  - { offset: 0x74E09, size: 0x8, addend: 0x0, symName: __ZNSt3__16vectorINS_12basic_stringIcNS_11char_traitsIcEENS_9allocatorIcEEEENS4_IS6_EEE21_ConstructTransactionC2B8ne190107ERS8_m, symObjAddr: 0x1013C, symBinAddr: 0x100082984, symSize: 0x354 }
  - { offset: 0x74E51, size: 0x8, addend: 0x0, symName: __ZNKSt3__16vectorINS_12basic_stringIcNS_11char_traitsIcEENS_9allocatorIcEEEENS4_IS6_EEE19__annotate_increaseB8ne190107Em, symObjAddr: 0x10490, symBinAddr: 0x100082CD8, symSize: 0x2C8 }
  - { offset: 0x74E86, size: 0x8, addend: 0x0, symName: __ZNKSt3__16vectorINS_12basic_stringIcNS_11char_traitsIcEENS_9allocatorIcEEEENS4_IS6_EEE4sizeB8ne190107Ev, symObjAddr: 0x10758, symBinAddr: 0x100082FA0, symSize: 0xE0 }
  - { offset: 0x74EC8, size: 0x8, addend: 0x0, symName: __ZNSt3__119__unwrap_range_implIPKNS_12basic_stringIcNS_11char_traitsIcEENS_9allocatorIcEEEES8_E8__unwrapB8ne190107ES8_S8_, symObjAddr: 0x10E28, symBinAddr: 0x100083670, symSize: 0x248 }
  - { offset: 0x74F01, size: 0x8, addend: 0x0, symName: __ZNSt3__14pairIPKNS_12basic_stringIcNS_11char_traitsIcEENS_9allocatorIcEEEES8_EC1B8ne190107IS8_S8_TnNS_9enable_ifIXclsr10_CheckArgsE23__is_pair_constructibleIT_T0_EEEiE4typeELi0EEEOSC_OSD_, symObjAddr: 0x1109C, symBinAddr: 0x1000838E4, symSize: 0x74 }
  - { offset: 0x74F5F, size: 0x8, addend: 0x0, symName: __ZNSt3__118__unwrap_iter_implIPKNS_12basic_stringIcNS_11char_traitsIcEENS_9allocatorIcEEEELb1EE8__unwrapB8ne190107ES8_, symObjAddr: 0x11118, symBinAddr: 0x100083960, symSize: 0x24 }
  - { offset: 0x74F82, size: 0x8, addend: 0x0, symName: __ZNSt3__14pairIPKNS_12basic_stringIcNS_11char_traitsIcEENS_9allocatorIcEEEES8_EC2B8ne190107IS8_S8_TnNS_9enable_ifIXclsr10_CheckArgsE23__is_pair_constructibleIT_T0_EEEiE4typeELi0EEEOSC_OSD_, symObjAddr: 0x11158, symBinAddr: 0x1000839A0, symSize: 0x1D8 }
  - { offset: 0x74FE0, size: 0x8, addend: 0x0, symName: __ZNSt3__129_AllocatorDestroyRangeReverseINS_9allocatorINS_12basic_stringIcNS_11char_traitsIcEENS1_IcEEEEEEPS6_EC1B8ne190107ERS7_RS8_SB_, symObjAddr: 0x1153C, symBinAddr: 0x100083D84, symSize: 0x7C }
  - { offset: 0x75037, size: 0x8, addend: 0x0, symName: __ZNSt3__116allocator_traitsINS_9allocatorINS_12basic_stringIcNS_11char_traitsIcEENS1_IcEEEEEEE9constructB8ne190107IS6_JRKS6_EvTnNS_9enable_ifIXntsr15__has_constructIS7_PT_DpT0_EE5valueEiE4typeELi0EEEvRS7_SE_DpOSF_, symObjAddr: 0x115C0, symBinAddr: 0x100083E08, symSize: 0x70 }
  - { offset: 0x75091, size: 0x8, addend: 0x0, symName: __ZNSt3__128__exception_guard_exceptionsINS_29_AllocatorDestroyRangeReverseINS_9allocatorINS_12basic_stringIcNS_11char_traitsIcEENS2_IcEEEEEEPS7_EEE10__completeB8ne190107Ev, symObjAddr: 0x11630, symBinAddr: 0x100083E78, symSize: 0xC4 }
  - { offset: 0x750B7, size: 0x8, addend: 0x0, symName: __ZNSt3__128__exception_guard_exceptionsINS_29_AllocatorDestroyRangeReverseINS_9allocatorINS_12basic_stringIcNS_11char_traitsIcEENS2_IcEEEEEEPS7_EEED1B8ne190107Ev, symObjAddr: 0x116F4, symBinAddr: 0x100083F3C, symSize: 0x64 }
  - { offset: 0x750E1, size: 0x8, addend: 0x0, symName: __ZNSt3__128__exception_guard_exceptionsINS_29_AllocatorDestroyRangeReverseINS_9allocatorINS_12basic_stringIcNS_11char_traitsIcEENS2_IcEEEEEEPS7_EEEC1B8ne190107ESA_, symObjAddr: 0x11758, symBinAddr: 0x100083FA0, symSize: 0x70 }
  - { offset: 0x7511A, size: 0x8, addend: 0x0, symName: __ZNSt3__128__exception_guard_exceptionsINS_29_AllocatorDestroyRangeReverseINS_9allocatorINS_12basic_stringIcNS_11char_traitsIcEENS2_IcEEEEEEPS7_EEEC2B8ne190107ESA_, symObjAddr: 0x117C8, symBinAddr: 0x100084010, symSize: 0xE4 }
  - { offset: 0x75153, size: 0x8, addend: 0x0, symName: __ZNSt3__129_AllocatorDestroyRangeReverseINS_9allocatorINS_12basic_stringIcNS_11char_traitsIcEENS1_IcEEEEEEPS6_EC2B8ne190107ERS7_RS8_SB_, symObjAddr: 0x118AC, symBinAddr: 0x1000840F4, symSize: 0x1C4 }
  - { offset: 0x751AA, size: 0x8, addend: 0x0, symName: __ZNSt3__128__exception_guard_exceptionsINS_29_AllocatorDestroyRangeReverseINS_9allocatorINS_12basic_stringIcNS_11char_traitsIcEENS2_IcEEEEEEPS7_EEED2B8ne190107Ev, symObjAddr: 0x11BCC, symBinAddr: 0x1000842B8, symSize: 0x158 }
  - { offset: 0x751D4, size: 0x8, addend: 0x0, symName: __ZNKSt3__129_AllocatorDestroyRangeReverseINS_9allocatorINS_12basic_stringIcNS_11char_traitsIcEENS1_IcEEEEEEPS6_EclB8ne190107Ev, symObjAddr: 0x11D24, symBinAddr: 0x100084410, symSize: 0x33C }
  - { offset: 0x751FB, size: 0x8, addend: 0x0, symName: __ZNSt3__116reverse_iteratorIPNS_12basic_stringIcNS_11char_traitsIcEENS_9allocatorIcEEEEEC1B8ne190107ES7_, symObjAddr: 0x122AC, symBinAddr: 0x100084998, symSize: 0x6C }
  - { offset: 0x75233, size: 0x8, addend: 0x0, symName: __ZNSt3__116allocator_traitsINS_9allocatorINS_12basic_stringIcNS_11char_traitsIcEENS1_IcEEEEEEE7destroyB8ne190107IS6_vTnNS_9enable_ifIXntsr13__has_destroyIS7_PT_EE5valueEiE4typeELi0EEEvRS7_SC_, symObjAddr: 0x123B8, symBinAddr: 0x100084AA4, symSize: 0x28 }
  - { offset: 0x75273, size: 0x8, addend: 0x0, symName: __ZNSt3__116reverse_iteratorIPNS_12basic_stringIcNS_11char_traitsIcEENS_9allocatorIcEEEEEppB8ne190107Ev, symObjAddr: 0x12444, symBinAddr: 0x100084B30, symSize: 0x180 }
  - { offset: 0x75299, size: 0x8, addend: 0x0, symName: __ZNKSt3__116reverse_iteratorIPNS_12basic_stringIcNS_11char_traitsIcEENS_9allocatorIcEEEEE4baseB8ne190107Ev, symObjAddr: 0x125C4, symBinAddr: 0x100084CB0, symSize: 0xA0 }
  - { offset: 0x752C5, size: 0x8, addend: 0x0, symName: __ZNSt3__119__to_address_helperINS_16reverse_iteratorIPNS_12basic_stringIcNS_11char_traitsIcEENS_9allocatorIcEEEEEEvE6__callB8ne190107ERKS9_, symObjAddr: 0x126D0, symBinAddr: 0x100084D58, symSize: 0x6C }
  - { offset: 0x752E8, size: 0x8, addend: 0x0, symName: __ZNKSt3__116reverse_iteratorIPNS_12basic_stringIcNS_11char_traitsIcEENS_9allocatorIcEEEEEptB8ne190107EvQoo12is_pointer_vIT_ErQS9__XcldtfpK_onptEE, symObjAddr: 0x1273C, symBinAddr: 0x100084DC4, symSize: 0xA8 }
  - { offset: 0x7530E, size: 0x8, addend: 0x0, symName: __ZNSt3__116reverse_iteratorIPNS_12basic_stringIcNS_11char_traitsIcEENS_9allocatorIcEEEEEC2B8ne190107ES7_, symObjAddr: 0x12BD4, symBinAddr: 0x100085240, symSize: 0xF4 }
  - { offset: 0x75346, size: 0x8, addend: 0x0, symName: __ZNSt3__118__unwrap_iter_implIPNS_12basic_stringIcNS_11char_traitsIcEENS_9allocatorIcEEEELb1EE8__unwrapB8ne190107ES7_, symObjAddr: 0x12CD0, symBinAddr: 0x10008533C, symSize: 0x24 }
  - { offset: 0x75369, size: 0x8, addend: 0x0, symName: __ZNSt3__118__unwrap_iter_implIPNS_12basic_stringIcNS_11char_traitsIcEENS_9allocatorIcEEEELb1EE8__rewrapB8ne190107ES7_S7_, symObjAddr: 0x12CFC, symBinAddr: 0x100085368, symSize: 0x10C }
  - { offset: 0x7539A, size: 0x8, addend: 0x0, symName: __ZNSt3__16vectorINS_12basic_stringIcNS_11char_traitsIcEENS_9allocatorIcEEEENS4_IS6_EEE21_ConstructTransactionD2B8ne190107Ev, symObjAddr: 0x12E08, symBinAddr: 0x100085474, symSize: 0x31C }
  - { offset: 0x753C4, size: 0x8, addend: 0x0, symName: __ZNKSt3__16vectorINS_12basic_stringIcNS_11char_traitsIcEENS_9allocatorIcEEEENS4_IS6_EEE17__annotate_shrinkB8ne190107Em, symObjAddr: 0x13124, symBinAddr: 0x100085790, symSize: 0x200 }
  - { offset: 0x753F9, size: 0x8, addend: 0x0, symName: __ZNSt3__128__exception_guard_exceptionsINS_6vectorINS_12basic_stringIcNS_11char_traitsIcEENS_9allocatorIcEEEENS5_IS7_EEE16__destroy_vectorEED2B8ne190107Ev, symObjAddr: 0x13324, symBinAddr: 0x100085990, symSize: 0x158 }
  - { offset: 0x75423, size: 0x8, addend: 0x0, symName: __ZNSt3__16vectorINS_12basic_stringIcNS_11char_traitsIcEENS_9allocatorIcEEEENS4_IS6_EEE16__destroy_vectorclB8ne190107Ev, symObjAddr: 0x1347C, symBinAddr: 0x100085AE8, symSize: 0x39C }
  - { offset: 0x75449, size: 0x8, addend: 0x0, symName: __ZNSt3__16vectorINS_12basic_stringIcNS_11char_traitsIcEENS_9allocatorIcEEEENS4_IS6_EEE7__clearB8ne190107Ev, symObjAddr: 0x13818, symBinAddr: 0x100085E84, symSize: 0xA0 }
  - { offset: 0x7546F, size: 0x8, addend: 0x0, symName: __ZNKSt3__16vectorINS_12basic_stringIcNS_11char_traitsIcEENS_9allocatorIcEEEENS4_IS6_EEE17__annotate_deleteB8ne190107Ev, symObjAddr: 0x138B8, symBinAddr: 0x100085F24, symSize: 0x210 }
  - { offset: 0x75495, size: 0x8, addend: 0x0, symName: __ZNSt3__116allocator_traitsINS_9allocatorINS_12basic_stringIcNS_11char_traitsIcEENS1_IcEEEEEEE10deallocateB8ne190107ERS7_PS6_m, symObjAddr: 0x13AD0, symBinAddr: 0x10008613C, symSize: 0x34 }
  - { offset: 0x754D7, size: 0x8, addend: 0x0, symName: __ZNSt3__16vectorINS_12basic_stringIcNS_11char_traitsIcEENS_9allocatorIcEEEENS4_IS6_EEE22__base_destruct_at_endB8ne190107EPS6_, symObjAddr: 0x13B04, symBinAddr: 0x100086170, symSize: 0x1C8 }
  - { offset: 0x7551B, size: 0x8, addend: 0x0, symName: __ZNSt3__19allocatorINS_12basic_stringIcNS_11char_traitsIcEENS0_IcEEEEE10deallocateB8ne190107EPS5_m, symObjAddr: 0x13CCC, symBinAddr: 0x100086338, symSize: 0x74 }
  - { offset: 0x7555D, size: 0x8, addend: 0x0, symName: __ZNSt3__113basic_ostreamIcNS_11char_traitsIcEEEC2B8ne190107EPNS_15basic_streambufIcS2_EE, symObjAddr: 0x13E88, symBinAddr: 0x1000863AC, symSize: 0x314 }
  - { offset: 0x755A2, size: 0x8, addend: 0x0, symName: __ZNSt3__16vectorINS_12basic_stringIcNS_11char_traitsIcEENS_9allocatorIcEEEENS4_IS6_EEE11__make_iterB8ne190107EPS6_, symObjAddr: 0x1419C, symBinAddr: 0x1000866C0, symSize: 0x1E8 }
  - { offset: 0x755D9, size: 0x8, addend: 0x0, symName: __ZNSt3__111__wrap_iterIPNS_12basic_stringIcNS_11char_traitsIcEENS_9allocatorIcEEEEEC1B8ne190107ES7_, symObjAddr: 0x14384, symBinAddr: 0x1000868A8, symSize: 0x6C }
  - { offset: 0x75611, size: 0x8, addend: 0x0, symName: __ZNSt3__111__wrap_iterIPNS_12basic_stringIcNS_11char_traitsIcEENS_9allocatorIcEEEEEC2B8ne190107ES7_, symObjAddr: 0x143F0, symBinAddr: 0x100086914, symSize: 0xB8 }
  - { offset: 0x75649, size: 0x8, addend: 0x0, symName: __ZNKSt3__111__wrap_iterIPNS_12basic_stringIcNS_11char_traitsIcEENS_9allocatorIcEEEEE4baseB8ne190107Ev, symObjAddr: 0x144A8, symBinAddr: 0x1000869CC, symSize: 0x9C }
  - { offset: 0x75674, size: 0x8, addend: 0x0, symName: __ZNSt3__111basic_regexIcNS_12regex_traitsIcEEEC1B8ne190107EPKcNS_15regex_constants18syntax_option_typeE, symObjAddr: 0x16E60, symBinAddr: 0x100087200, symSize: 0xA8 }
  - { offset: 0x756C1, size: 0x8, addend: 0x0, symName: __ZNSt3__111basic_regexIcNS_12regex_traitsIcEEED1Ev, symObjAddr: 0x16F08, symBinAddr: 0x1000872A8, symSize: 0x64 }
  - { offset: 0x756EE, size: 0x8, addend: 0x0, symName: __ZNKSt3__112basic_stringIcNS_11char_traitsIcEENS_9allocatorIcEEE5beginB8ne190107Ev, symObjAddr: 0x17E70, symBinAddr: 0x1000880B8, symSize: 0x8C }
  - { offset: 0x75714, size: 0x8, addend: 0x0, symName: __ZNKSt3__112basic_stringIcNS_11char_traitsIcEENS_9allocatorIcEEE3endB8ne190107Ev, symObjAddr: 0x17EFC, symBinAddr: 0x100088144, symSize: 0x12C }
  - { offset: 0x757B0, size: 0x8, addend: 0x0, symName: __ZNSt3__114regex_iteratorINS_11__wrap_iterIPKcEEcNS_12regex_traitsIcEEEC1ES4_S4_RKNS_11basic_regexIcS6_EENS_15regex_constants15match_flag_typeE, symObjAddr: 0x18028, symBinAddr: 0x100088270, symSize: 0xB8 }
  - { offset: 0x75816, size: 0x8, addend: 0x0, symName: __ZNSt3__114regex_iteratorINS_11__wrap_iterIPKcEEcNS_12regex_traitsIcEEEC1Ev, symObjAddr: 0x180E0, symBinAddr: 0x100088328, symSize: 0x64 }
  - { offset: 0x75840, size: 0x8, addend: 0x0, symName: __ZNKSt3__114regex_iteratorINS_11__wrap_iterIPKcEEcNS_12regex_traitsIcEEEeqERKS7_, symObjAddr: 0x18144, symBinAddr: 0x10008838C, symSize: 0x654 }
  - { offset: 0x75875, size: 0x8, addend: 0x0, symName: __ZNSt3__19sub_matchINS_11__wrap_iterIPKcEEEC1B8ne190107Ev, symObjAddr: 0x188C0, symBinAddr: 0x100088B08, symSize: 0x64 }
  - { offset: 0x7589F, size: 0x8, addend: 0x0, symName: __ZNKSt3__114regex_iteratorINS_11__wrap_iterIPKcEEcNS_12regex_traitsIcEEEptB8ne190107Ev, symObjAddr: 0x18924, symBinAddr: 0x100088B6C, symSize: 0x5C }
  - { offset: 0x758C5, size: 0x8, addend: 0x0, symName: __ZNKSt3__113match_resultsINS_11__wrap_iterIPKcEENS_9allocatorINS_9sub_matchIS4_EEEEE6prefixB8ne190107Ev, symObjAddr: 0x18980, symBinAddr: 0x100088BC8, symSize: 0x9C }
  - { offset: 0x758EB, size: 0x8, addend: 0x0, symName: __ZNKSt3__113match_resultsINS_11__wrap_iterIPKcEENS_9allocatorINS_9sub_matchIS4_EEEEE6formatINS_20back_insert_iteratorINS_12basic_stringIcNS_11char_traitsIcEENS5_IcEEEEEEEET_SI_S3_S3_NS_15regex_constants15match_flag_typeE, symObjAddr: 0x18A1C, symBinAddr: 0x100088C64, symSize: 0x1DF8 }
  - { offset: 0x7599A, size: 0x8, addend: 0x0, symName: __ZNKSt3__113match_resultsINS_11__wrap_iterIPKcEENS_9allocatorINS_9sub_matchIS4_EEEEE6suffixB8ne190107Ev, symObjAddr: 0x1A814, symBinAddr: 0x10008AA5C, symSize: 0x9C }
  - { offset: 0x759C5, size: 0x8, addend: 0x0, symName: __ZNSt3__19sub_matchINS_11__wrap_iterIPKcEEEaSERKS5_, symObjAddr: 0x1A8B0, symBinAddr: 0x10008AAF8, symSize: 0x25C }
  - { offset: 0x759F7, size: 0x8, addend: 0x0, symName: __ZNSt3__114regex_iteratorINS_11__wrap_iterIPKcEEcNS_12regex_traitsIcEEEppEv, symObjAddr: 0x1AB0C, symBinAddr: 0x10008AD54, symSize: 0xDF4 }
  - { offset: 0x75A64, size: 0x8, addend: 0x0, symName: __ZNSt3__114regex_iteratorINS_11__wrap_iterIPKcEEcNS_12regex_traitsIcEEED1Ev, symObjAddr: 0x1B900, symBinAddr: 0x10008BB48, symSize: 0x64 }
  - { offset: 0x75A91, size: 0x8, addend: 0x0, symName: __ZNSt3__114regex_iteratorINS_11__wrap_iterIPKcEEcNS_12regex_traitsIcEEEC2ES4_S4_RKNS_11basic_regexIcS6_EENS_15regex_constants15match_flag_typeE, symObjAddr: 0x1B964, symBinAddr: 0x10008BBAC, symSize: 0x320 }
  - { offset: 0x75AF7, size: 0x8, addend: 0x0, symName: __ZNSt3__113match_resultsINS_11__wrap_iterIPKcEENS_9allocatorINS_9sub_matchIS4_EEEEEC1Ev, symObjAddr: 0x1BC84, symBinAddr: 0x10008BECC, symSize: 0x20C }
  - { offset: 0x75B27, size: 0x8, addend: 0x0, symName: __ZNSt3__113match_resultsINS_11__wrap_iterIPKcEENS_9allocatorINS_9sub_matchIS4_EEEEED1Ev, symObjAddr: 0x1C3AC, symBinAddr: 0x10008C5F4, symSize: 0x64 }
  - { offset: 0x75B54, size: 0x8, addend: 0x0, symName: __ZNSt3__19allocatorINS_9sub_matchINS_11__wrap_iterIPKcEEEEEC1B8ne190107Ev, symObjAddr: 0x1C410, symBinAddr: 0x10008C658, symSize: 0x50 }
  - { offset: 0x75B7E, size: 0x8, addend: 0x0, symName: __ZNSt3__113match_resultsINS_11__wrap_iterIPKcEENS_9allocatorINS_9sub_matchIS4_EEEEEC1ERKS8_, symObjAddr: 0x1C460, symBinAddr: 0x10008C6A8, symSize: 0x6C }
  - { offset: 0x75BB7, size: 0x8, addend: 0x0, symName: __ZNSt3__19allocatorINS_9sub_matchINS_11__wrap_iterIPKcEEEEEC2B8ne190107Ev, symObjAddr: 0x1C4CC, symBinAddr: 0x10008C714, symSize: 0x70 }
  - { offset: 0x75BE1, size: 0x8, addend: 0x0, symName: __ZNSt3__116__non_trivial_ifILb1ENS_9allocatorINS_9sub_matchINS_11__wrap_iterIPKcEEEEEEEC2B8ne190107Ev, symObjAddr: 0x1C53C, symBinAddr: 0x10008C784, symSize: 0x48 }
  - { offset: 0x75C0B, size: 0x8, addend: 0x0, symName: __ZNSt3__113match_resultsINS_11__wrap_iterIPKcEENS_9allocatorINS_9sub_matchIS4_EEEEEC2ERKS8_, symObjAddr: 0x1C584, symBinAddr: 0x10008C7CC, symSize: 0x15C }
  - { offset: 0x75C44, size: 0x8, addend: 0x0, symName: __ZNSt3__16vectorINS_9sub_matchINS_11__wrap_iterIPKcEEEENS_9allocatorIS6_EEEC1B8ne190107ERKS8_, symObjAddr: 0x1C6E0, symBinAddr: 0x10008C928, symSize: 0x6C }
  - { offset: 0x75C7D, size: 0x8, addend: 0x0, symName: __ZNSt3__111__wrap_iterIPKcEC1B8ne190107Ev, symObjAddr: 0x1C74C, symBinAddr: 0x10008C994, symSize: 0x64 }
  - { offset: 0x75CA7, size: 0x8, addend: 0x0, symName: __ZNSt3__16vectorINS_9sub_matchINS_11__wrap_iterIPKcEEEENS_9allocatorIS6_EEED1B8ne190107Ev, symObjAddr: 0x1C7B0, symBinAddr: 0x10008C9F8, symSize: 0x64 }
  - { offset: 0x75CD1, size: 0x8, addend: 0x0, symName: __ZNSt3__16vectorINS_9sub_matchINS_11__wrap_iterIPKcEEEENS_9allocatorIS6_EEEC2B8ne190107ERKS8_, symObjAddr: 0x1C814, symBinAddr: 0x10008CA5C, symSize: 0x2BC }
  - { offset: 0x75D0C, size: 0x8, addend: 0x0, symName: __ZNSt3__117__compressed_pairIPNS_9sub_matchINS_11__wrap_iterIPKcEEEENS_9allocatorIS6_EEEC1B8ne190107IDnRKS9_EEOT_OT0_, symObjAddr: 0x1CAD0, symBinAddr: 0x10008CD18, symSize: 0x74 }
  - { offset: 0x75D64, size: 0x8, addend: 0x0, symName: __ZNSt3__117__compressed_pairIPNS_9sub_matchINS_11__wrap_iterIPKcEEEENS_9allocatorIS6_EEEC2B8ne190107IDnRKS9_EEOT_OT0_, symObjAddr: 0x1CB44, symBinAddr: 0x10008CD8C, symSize: 0x12C }
  - { offset: 0x75DBC, size: 0x8, addend: 0x0, symName: __ZNSt3__122__compressed_pair_elemIPNS_9sub_matchINS_11__wrap_iterIPKcEEEELi0ELb0EEC2B8ne190107IDnTnNS_9enable_ifIXntsr7is_sameIS8_u7__decayIT_EEE5valueEiE4typeELi0EEEOSB_, symObjAddr: 0x1CC70, symBinAddr: 0x10008CEB8, symSize: 0xAC }
  - { offset: 0x75E03, size: 0x8, addend: 0x0, symName: __ZNSt3__122__compressed_pair_elemINS_9allocatorINS_9sub_matchINS_11__wrap_iterIPKcEEEEEELi1ELb1EEC2B8ne190107IRKS8_TnNS_9enable_ifIXntsr7is_sameIS9_u7__decayIT_EEE5valueEiE4typeELi0EEEOSE_, symObjAddr: 0x1CD1C, symBinAddr: 0x10008CF64, symSize: 0x4C }
  - { offset: 0x75E4A, size: 0x8, addend: 0x0, symName: __ZNSt3__111__wrap_iterIPKcEC2B8ne190107Ev, symObjAddr: 0x1CD68, symBinAddr: 0x10008CFB0, symSize: 0xA8 }
  - { offset: 0x75E74, size: 0x8, addend: 0x0, symName: __ZNSt3__16vectorINS_9sub_matchINS_11__wrap_iterIPKcEEEENS_9allocatorIS6_EEED2B8ne190107Ev, symObjAddr: 0x1CE10, symBinAddr: 0x10008D058, symSize: 0x254 }
  - { offset: 0x75E9F, size: 0x8, addend: 0x0, symName: __ZNSt3__16vectorINS_9sub_matchINS_11__wrap_iterIPKcEEEENS_9allocatorIS6_EEE16__destroy_vectorC1B8ne190107ERS9_, symObjAddr: 0x1D064, symBinAddr: 0x10008D2AC, symSize: 0x6C }
  - { offset: 0x75ED8, size: 0x8, addend: 0x0, symName: __ZNSt3__16vectorINS_9sub_matchINS_11__wrap_iterIPKcEEEENS_9allocatorIS6_EEE16__destroy_vectorclB8ne190107Ev, symObjAddr: 0x1D0D0, symBinAddr: 0x10008D318, symSize: 0x39C }
  - { offset: 0x75EFE, size: 0x8, addend: 0x0, symName: __ZNSt3__16vectorINS_9sub_matchINS_11__wrap_iterIPKcEEEENS_9allocatorIS6_EEE16__destroy_vectorC2B8ne190107ERS9_, symObjAddr: 0x1D46C, symBinAddr: 0x10008D6B4, symSize: 0xE8 }
  - { offset: 0x75F37, size: 0x8, addend: 0x0, symName: __ZNSt3__16vectorINS_9sub_matchINS_11__wrap_iterIPKcEEEENS_9allocatorIS6_EEE7__clearB8ne190107Ev, symObjAddr: 0x1D554, symBinAddr: 0x10008D79C, symSize: 0xA0 }
  - { offset: 0x75F5D, size: 0x8, addend: 0x0, symName: __ZNKSt3__16vectorINS_9sub_matchINS_11__wrap_iterIPKcEEEENS_9allocatorIS6_EEE17__annotate_deleteB8ne190107Ev, symObjAddr: 0x1D5F4, symBinAddr: 0x10008D83C, symSize: 0x210 }
  - { offset: 0x75F83, size: 0x8, addend: 0x0, symName: __ZNSt3__116allocator_traitsINS_9allocatorINS_9sub_matchINS_11__wrap_iterIPKcEEEEEEE10deallocateB8ne190107ERS8_PS7_m, symObjAddr: 0x1D80C, symBinAddr: 0x10008DA54, symSize: 0x34 }
  - { offset: 0x75FC5, size: 0x8, addend: 0x0, symName: __ZNSt3__16vectorINS_9sub_matchINS_11__wrap_iterIPKcEEEENS_9allocatorIS6_EEE7__allocB8ne190107Ev, symObjAddr: 0x1D840, symBinAddr: 0x10008DA88, symSize: 0xC4 }
  - { offset: 0x75FEB, size: 0x8, addend: 0x0, symName: __ZNKSt3__16vectorINS_9sub_matchINS_11__wrap_iterIPKcEEEENS_9allocatorIS6_EEE8capacityB8ne190107Ev, symObjAddr: 0x1D904, symBinAddr: 0x10008DB4C, symSize: 0x124 }
  - { offset: 0x76011, size: 0x8, addend: 0x0, symName: __ZNSt3__16vectorINS_9sub_matchINS_11__wrap_iterIPKcEEEENS_9allocatorIS6_EEE22__base_destruct_at_endB8ne190107EPS6_, symObjAddr: 0x1DA28, symBinAddr: 0x10008DC70, symSize: 0x1C8 }
  - { offset: 0x76055, size: 0x8, addend: 0x0, symName: __ZNSt3__116allocator_traitsINS_9allocatorINS_9sub_matchINS_11__wrap_iterIPKcEEEEEEE7destroyB8ne190107IS7_vTnNS_9enable_ifIXntsr13__has_destroyIS8_PT_EE5valueEiE4typeELi0EEEvRS8_SD_, symObjAddr: 0x1DBF8, symBinAddr: 0x10008DE40, symSize: 0x28 }
  - { offset: 0x76095, size: 0x8, addend: 0x0, symName: __ZNKSt3__16vectorINS_9sub_matchINS_11__wrap_iterIPKcEEEENS_9allocatorIS6_EEE31__annotate_contiguous_containerB8ne190107EPKvSB_, symObjAddr: 0x1DC54, symBinAddr: 0x10008DE9C, symSize: 0x14C }
  - { offset: 0x760D9, size: 0x8, addend: 0x0, symName: __ZNKSt3__16vectorINS_9sub_matchINS_11__wrap_iterIPKcEEEENS_9allocatorIS6_EEE4dataB8ne190107Ev, symObjAddr: 0x1DDA0, symBinAddr: 0x10008DFE8, symSize: 0xA0 }
  - { offset: 0x760FF, size: 0x8, addend: 0x0, symName: __ZNKSt3__16vectorINS_9sub_matchINS_11__wrap_iterIPKcEEEENS_9allocatorIS6_EEE4sizeB8ne190107Ev, symObjAddr: 0x1DE40, symBinAddr: 0x10008E088, symSize: 0xE0 }
  - { offset: 0x76125, size: 0x8, addend: 0x0, symName: __ZNSt3__19allocatorINS_9sub_matchINS_11__wrap_iterIPKcEEEEE10deallocateB8ne190107EPS6_m, symObjAddr: 0x1DF74, symBinAddr: 0x10008E1BC, symSize: 0x74 }
  - { offset: 0x76167, size: 0x8, addend: 0x0, symName: __ZNSt3__117__compressed_pairIPNS_9sub_matchINS_11__wrap_iterIPKcEEEENS_9allocatorIS6_EEE6secondB8ne190107Ev, symObjAddr: 0x1DFE8, symBinAddr: 0x10008E230, symSize: 0xC4 }
  - { offset: 0x7618D, size: 0x8, addend: 0x0, symName: __ZNSt3__122__compressed_pair_elemINS_9allocatorINS_9sub_matchINS_11__wrap_iterIPKcEEEEEELi1ELb1EE5__getB8ne190107Ev, symObjAddr: 0x1E0AC, symBinAddr: 0x10008E2F4, symSize: 0x64 }
  - { offset: 0x761B3, size: 0x8, addend: 0x0, symName: __ZNKSt3__16vectorINS_9sub_matchINS_11__wrap_iterIPKcEEEENS_9allocatorIS6_EEE9__end_capB8ne190107Ev, symObjAddr: 0x1E110, symBinAddr: 0x10008E358, symSize: 0xD8 }
  - { offset: 0x761D9, size: 0x8, addend: 0x0, symName: __ZNKSt3__117__compressed_pairIPNS_9sub_matchINS_11__wrap_iterIPKcEEEENS_9allocatorIS6_EEE5firstB8ne190107Ev, symObjAddr: 0x1E1E8, symBinAddr: 0x10008E430, symSize: 0xEC }
  - { offset: 0x761FF, size: 0x8, addend: 0x0, symName: __ZNKSt3__122__compressed_pair_elemIPNS_9sub_matchINS_11__wrap_iterIPKcEEEELi0ELb0EE5__getB8ne190107Ev, symObjAddr: 0x1E2D4, symBinAddr: 0x10008E51C, symSize: 0x8C }
  - { offset: 0x7625A, size: 0x8, addend: 0x0, symName: __ZNSt3__113match_resultsIPKcNS_9allocatorINS_9sub_matchIS2_EEEEEC1Ev, symObjAddr: 0x1E360, symBinAddr: 0x10008E5A8, symSize: 0x20C }
  - { offset: 0x7628B, size: 0x8, addend: 0x0, symName: __ZNKSt3__111basic_regexIcNS_12regex_traitsIcEEE8__searchINS_9allocatorINS_9sub_matchIPKcEEEEEEbS8_S8_RNS_13match_resultsIS8_T_EENS_15regex_constants15match_flag_typeE, symObjAddr: 0x1E56C, symBinAddr: 0x10008E7B4, symSize: 0x253C }
  - { offset: 0x762FE, size: 0x8, addend: 0x0, symName: __ZNKSt3__111__wrap_iterIPKcE4baseB8ne190107Ev, symObjAddr: 0x20AA8, symBinAddr: 0x100090CF0, symSize: 0x9C }
  - { offset: 0x7632A, size: 0x8, addend: 0x0, symName: __ZNSt3__113match_resultsINS_11__wrap_iterIPKcEENS_9allocatorINS_9sub_matchIS4_EEEEE8__assignB8ne190107IS3_NS5_INS6_IS3_EEEEEEvS4_S4_RKNS0_IT_T0_EEb, symObjAddr: 0x20B44, symBinAddr: 0x100090D8C, symSize: 0x1608 }
  - { offset: 0x763D0, size: 0x8, addend: 0x0, symName: __ZNSt3__113match_resultsIPKcNS_9allocatorINS_9sub_matchIS2_EEEEED1Ev, symObjAddr: 0x2214C, symBinAddr: 0x100092394, symSize: 0x64 }
  - { offset: 0x763FD, size: 0x8, addend: 0x0, symName: __ZNSt3__19allocatorINS_9sub_matchIPKcEEEC1B8ne190107Ev, symObjAddr: 0x221B0, symBinAddr: 0x1000923F8, symSize: 0x50 }
  - { offset: 0x76427, size: 0x8, addend: 0x0, symName: __ZNSt3__113match_resultsIPKcNS_9allocatorINS_9sub_matchIS2_EEEEEC1ERKS6_, symObjAddr: 0x22200, symBinAddr: 0x100092448, symSize: 0x6C }
  - { offset: 0x76460, size: 0x8, addend: 0x0, symName: __ZNSt3__19allocatorINS_9sub_matchIPKcEEEC2B8ne190107Ev, symObjAddr: 0x2226C, symBinAddr: 0x1000924B4, symSize: 0x70 }
  - { offset: 0x7648A, size: 0x8, addend: 0x0, symName: __ZNSt3__116__non_trivial_ifILb1ENS_9allocatorINS_9sub_matchIPKcEEEEEC2B8ne190107Ev, symObjAddr: 0x222DC, symBinAddr: 0x100092524, symSize: 0x48 }
  - { offset: 0x764B4, size: 0x8, addend: 0x0, symName: __ZNSt3__113match_resultsIPKcNS_9allocatorINS_9sub_matchIS2_EEEEEC2ERKS6_, symObjAddr: 0x22324, symBinAddr: 0x10009256C, symSize: 0x184 }
  - { offset: 0x764ED, size: 0x8, addend: 0x0, symName: __ZNSt3__16vectorINS_9sub_matchIPKcEENS_9allocatorIS4_EEEC1B8ne190107ERKS6_, symObjAddr: 0x224A8, symBinAddr: 0x1000926F0, symSize: 0x6C }
  - { offset: 0x76526, size: 0x8, addend: 0x0, symName: __ZNSt3__19sub_matchIPKcEC1B8ne190107Ev, symObjAddr: 0x22514, symBinAddr: 0x10009275C, symSize: 0x64 }
  - { offset: 0x76550, size: 0x8, addend: 0x0, symName: __ZNSt3__16vectorINS_9sub_matchIPKcEENS_9allocatorIS4_EEED1B8ne190107Ev, symObjAddr: 0x22578, symBinAddr: 0x1000927C0, symSize: 0x64 }
  - { offset: 0x7657A, size: 0x8, addend: 0x0, symName: __ZNSt3__16vectorINS_9sub_matchIPKcEENS_9allocatorIS4_EEEC2B8ne190107ERKS6_, symObjAddr: 0x225DC, symBinAddr: 0x100092824, symSize: 0x2BC }
  - { offset: 0x765B5, size: 0x8, addend: 0x0, symName: __ZNSt3__117__compressed_pairIPNS_9sub_matchIPKcEENS_9allocatorIS4_EEEC1B8ne190107IDnRKS7_EEOT_OT0_, symObjAddr: 0x22898, symBinAddr: 0x100092AE0, symSize: 0x74 }
  - { offset: 0x7660D, size: 0x8, addend: 0x0, symName: __ZNSt3__117__compressed_pairIPNS_9sub_matchIPKcEENS_9allocatorIS4_EEEC2B8ne190107IDnRKS7_EEOT_OT0_, symObjAddr: 0x2290C, symBinAddr: 0x100092B54, symSize: 0x12C }
  - { offset: 0x76665, size: 0x8, addend: 0x0, symName: __ZNSt3__122__compressed_pair_elemIPNS_9sub_matchIPKcEELi0ELb0EEC2B8ne190107IDnTnNS_9enable_ifIXntsr7is_sameIS6_u7__decayIT_EEE5valueEiE4typeELi0EEEOS9_, symObjAddr: 0x22A38, symBinAddr: 0x100092C80, symSize: 0xAC }
  - { offset: 0x766AC, size: 0x8, addend: 0x0, symName: __ZNSt3__122__compressed_pair_elemINS_9allocatorINS_9sub_matchIPKcEEEELi1ELb1EEC2B8ne190107IRKS6_TnNS_9enable_ifIXntsr7is_sameIS7_u7__decayIT_EEE5valueEiE4typeELi0EEEOSC_, symObjAddr: 0x22AE4, symBinAddr: 0x100092D2C, symSize: 0x4C }
  - { offset: 0x766F3, size: 0x8, addend: 0x0, symName: __ZNSt3__19sub_matchIPKcEC2B8ne190107Ev, symObjAddr: 0x22B30, symBinAddr: 0x100092D78, symSize: 0x110 }
  - { offset: 0x7671D, size: 0x8, addend: 0x0, symName: __ZNSt3__14pairIPKcS2_EC2B8ne190107ILb1ETnNS_9enable_ifIXclsr13_CheckArgsDepIXT_EEE16__enable_defaultEEiE4typeELi0EEEv, symObjAddr: 0x22C40, symBinAddr: 0x100092E88, symSize: 0xD8 }
  - { offset: 0x76757, size: 0x8, addend: 0x0, symName: __ZNSt3__16vectorINS_9sub_matchIPKcEENS_9allocatorIS4_EEED2B8ne190107Ev, symObjAddr: 0x22D18, symBinAddr: 0x100092F60, symSize: 0x254 }
  - { offset: 0x76782, size: 0x8, addend: 0x0, symName: __ZNSt3__16vectorINS_9sub_matchIPKcEENS_9allocatorIS4_EEE16__destroy_vectorC1B8ne190107ERS7_, symObjAddr: 0x22F6C, symBinAddr: 0x1000931B4, symSize: 0x6C }
  - { offset: 0x767BB, size: 0x8, addend: 0x0, symName: __ZNSt3__16vectorINS_9sub_matchIPKcEENS_9allocatorIS4_EEE16__destroy_vectorclB8ne190107Ev, symObjAddr: 0x22FD8, symBinAddr: 0x100093220, symSize: 0x39C }
  - { offset: 0x767E1, size: 0x8, addend: 0x0, symName: __ZNSt3__16vectorINS_9sub_matchIPKcEENS_9allocatorIS4_EEE16__destroy_vectorC2B8ne190107ERS7_, symObjAddr: 0x23374, symBinAddr: 0x1000935BC, symSize: 0xE8 }
  - { offset: 0x7681A, size: 0x8, addend: 0x0, symName: __ZNSt3__16vectorINS_9sub_matchIPKcEENS_9allocatorIS4_EEE7__clearB8ne190107Ev, symObjAddr: 0x2345C, symBinAddr: 0x1000936A4, symSize: 0xA0 }
  - { offset: 0x76840, size: 0x8, addend: 0x0, symName: __ZNKSt3__16vectorINS_9sub_matchIPKcEENS_9allocatorIS4_EEE17__annotate_deleteB8ne190107Ev, symObjAddr: 0x234FC, symBinAddr: 0x100093744, symSize: 0x210 }
  - { offset: 0x76866, size: 0x8, addend: 0x0, symName: __ZNSt3__116allocator_traitsINS_9allocatorINS_9sub_matchIPKcEEEEE10deallocateB8ne190107ERS6_PS5_m, symObjAddr: 0x23714, symBinAddr: 0x10009395C, symSize: 0x34 }
  - { offset: 0x768A8, size: 0x8, addend: 0x0, symName: __ZNSt3__16vectorINS_9sub_matchIPKcEENS_9allocatorIS4_EEE7__allocB8ne190107Ev, symObjAddr: 0x23748, symBinAddr: 0x100093990, symSize: 0xC4 }
  - { offset: 0x768CE, size: 0x8, addend: 0x0, symName: __ZNKSt3__16vectorINS_9sub_matchIPKcEENS_9allocatorIS4_EEE8capacityB8ne190107Ev, symObjAddr: 0x2380C, symBinAddr: 0x100093A54, symSize: 0x124 }
  - { offset: 0x768F4, size: 0x8, addend: 0x0, symName: __ZNSt3__16vectorINS_9sub_matchIPKcEENS_9allocatorIS4_EEE22__base_destruct_at_endB8ne190107EPS4_, symObjAddr: 0x23930, symBinAddr: 0x100093B78, symSize: 0x1C8 }
  - { offset: 0x76938, size: 0x8, addend: 0x0, symName: __ZNSt3__116allocator_traitsINS_9allocatorINS_9sub_matchIPKcEEEEE7destroyB8ne190107IS5_vTnNS_9enable_ifIXntsr13__has_destroyIS6_PT_EE5valueEiE4typeELi0EEEvRS6_SB_, symObjAddr: 0x23B00, symBinAddr: 0x100093D48, symSize: 0x28 }
  - { offset: 0x76978, size: 0x8, addend: 0x0, symName: __ZNKSt3__16vectorINS_9sub_matchIPKcEENS_9allocatorIS4_EEE31__annotate_contiguous_containerB8ne190107EPKvS9_, symObjAddr: 0x23B5C, symBinAddr: 0x100093DA4, symSize: 0x14C }
  - { offset: 0x769BC, size: 0x8, addend: 0x0, symName: __ZNKSt3__16vectorINS_9sub_matchIPKcEENS_9allocatorIS4_EEE4dataB8ne190107Ev, symObjAddr: 0x23CA8, symBinAddr: 0x100093EF0, symSize: 0xA0 }
  - { offset: 0x769E2, size: 0x8, addend: 0x0, symName: __ZNKSt3__16vectorINS_9sub_matchIPKcEENS_9allocatorIS4_EEE4sizeB8ne190107Ev, symObjAddr: 0x23D48, symBinAddr: 0x100093F90, symSize: 0xE0 }
  - { offset: 0x76A08, size: 0x8, addend: 0x0, symName: __ZNSt3__19allocatorINS_9sub_matchIPKcEEE10deallocateB8ne190107EPS4_m, symObjAddr: 0x23E7C, symBinAddr: 0x1000940C4, symSize: 0x74 }
  - { offset: 0x76A4A, size: 0x8, addend: 0x0, symName: __ZNSt3__117__compressed_pairIPNS_9sub_matchIPKcEENS_9allocatorIS4_EEE6secondB8ne190107Ev, symObjAddr: 0x23EF0, symBinAddr: 0x100094138, symSize: 0xC4 }
  - { offset: 0x76A70, size: 0x8, addend: 0x0, symName: __ZNSt3__122__compressed_pair_elemINS_9allocatorINS_9sub_matchIPKcEEEELi1ELb1EE5__getB8ne190107Ev, symObjAddr: 0x23FB4, symBinAddr: 0x1000941FC, symSize: 0x64 }
  - { offset: 0x76A96, size: 0x8, addend: 0x0, symName: __ZNKSt3__16vectorINS_9sub_matchIPKcEENS_9allocatorIS4_EEE9__end_capB8ne190107Ev, symObjAddr: 0x24018, symBinAddr: 0x100094260, symSize: 0xD8 }
  - { offset: 0x76ABC, size: 0x8, addend: 0x0, symName: __ZNKSt3__117__compressed_pairIPNS_9sub_matchIPKcEENS_9allocatorIS4_EEE5firstB8ne190107Ev, symObjAddr: 0x240F0, symBinAddr: 0x100094338, symSize: 0xEC }
  - { offset: 0x76AE2, size: 0x8, addend: 0x0, symName: __ZNKSt3__122__compressed_pair_elemIPNS_9sub_matchIPKcEELi0ELb0EE5__getB8ne190107Ev, symObjAddr: 0x241DC, symBinAddr: 0x100094424, symSize: 0x8C }
  - { offset: 0x76B08, size: 0x8, addend: 0x0, symName: __ZNSt3__113match_resultsIPKcNS_9allocatorINS_9sub_matchIS2_EEEEE6__initEjS2_S2_b, symObjAddr: 0x244D0, symBinAddr: 0x100094718, symSize: 0x804 }
  - { offset: 0x76B6A, size: 0x8, addend: 0x0, symName: __ZNKSt3__111basic_regexIcNS_12regex_traitsIcEEE10mark_countB8ne190107Ev, symObjAddr: 0x24CD4, symBinAddr: 0x100094F1C, symSize: 0xC4 }
  - { offset: 0x76B90, size: 0x8, addend: 0x0, symName: __ZNKSt3__111basic_regexIcNS_12regex_traitsIcEEE16__match_at_startINS_9allocatorINS_9sub_matchIPKcEEEEEEbS8_S8_RNS_13match_resultsIS8_T_EENS_15regex_constants15match_flag_typeEb, symObjAddr: 0x24D98, symBinAddr: 0x100094FE0, symSize: 0x388 }
  - { offset: 0x76C0A, size: 0x8, addend: 0x0, symName: __ZNKSt3__113match_resultsIPKcNS_9allocatorINS_9sub_matchIS2_EEEEEixB8ne190107Em, symObjAddr: 0x25120, symBinAddr: 0x100095368, symSize: 0x140 }
  - { offset: 0x76C3F, size: 0x8, addend: 0x0, symName: __ZNSt3__16vectorINS_9sub_matchIPKcEENS_9allocatorIS4_EEE6assignEmRKS4_, symObjAddr: 0x253E8, symBinAddr: 0x100095630, symSize: 0x544 }
  - { offset: 0x76CA3, size: 0x8, addend: 0x0, symName: __ZNKSt3__113match_resultsIPKcNS_9allocatorINS_9sub_matchIS2_EEEEE4sizeB8ne190107Ev, symObjAddr: 0x2592C, symBinAddr: 0x100095B74, symSize: 0x90 }
  - { offset: 0x76CC9, size: 0x8, addend: 0x0, symName: __ZNSt3__16vectorINS_9sub_matchIPKcEENS_9allocatorIS4_EEE5clearB8ne190107Ev, symObjAddr: 0x259BC, symBinAddr: 0x100095C04, symSize: 0x78 }
  - { offset: 0x76D03, size: 0x8, addend: 0x0, symName: __ZNSt3__19sub_matchIPKcEaSERKS3_, symObjAddr: 0x25A34, symBinAddr: 0x100095C7C, symSize: 0x25C }
  - { offset: 0x76D35, size: 0x8, addend: 0x0, symName: __ZNSt3__14pairIPKcS2_EaSB8ne190107ERKS3_, symObjAddr: 0x25C90, symBinAddr: 0x100095ED8, symSize: 0x1E0 }
  - { offset: 0x76D6A, size: 0x8, addend: 0x0, symName: __ZNKSt3__111basic_regexIcNS_12regex_traitsIcEEE21__match_at_start_ecmaINS_9allocatorINS_9sub_matchIPKcEEEEEEbS8_S8_RNS_13match_resultsIS8_T_EENS_15regex_constants15match_flag_typeEb, symObjAddr: 0x25EC4, symBinAddr: 0x10009610C, symSize: 0x1D8C }
  - { offset: 0x76E97, size: 0x8, addend: 0x0, symName: __ZNKSt3__111basic_regexIcNS_12regex_traitsIcEEE29__match_at_start_posix_nosubsINS_9allocatorINS_9sub_matchIPKcEEEEEEbS8_S8_RNS_13match_resultsIS8_T_EENS_15regex_constants15match_flag_typeEb, symObjAddr: 0x27C50, symBinAddr: 0x100097E98, symSize: 0x1CC4 }
  - { offset: 0x76FC3, size: 0x8, addend: 0x0, symName: __ZNKSt3__111basic_regexIcNS_12regex_traitsIcEEE27__match_at_start_posix_subsINS_9allocatorINS_9sub_matchIPKcEEEEEEbS8_S8_RNS_13match_resultsIS8_T_EENS_15regex_constants15match_flag_typeEb, symObjAddr: 0x29914, symBinAddr: 0x100099B5C, symSize: 0x2010 }
  - { offset: 0x7712D, size: 0x8, addend: 0x0, symName: __ZNSt3__16vectorINS_7__stateIcEENS_9allocatorIS2_EEEC1B8ne190107Ev, symObjAddr: 0x2B924, symBinAddr: 0x10009BB6C, symSize: 0x64 }
  - { offset: 0x77157, size: 0x8, addend: 0x0, symName: __ZNKSt3__110shared_ptrINS_13__empty_stateIcEEE3getB8ne190107Ev, symObjAddr: 0x2B988, symBinAddr: 0x10009BBD0, symSize: 0x9C }
  - { offset: 0x7717D, size: 0x8, addend: 0x0, symName: __ZNSt3__16vectorINS_7__stateIcEENS_9allocatorIS2_EEE9push_backB8ne190107EOS2_, symObjAddr: 0x2BA24, symBinAddr: 0x10009BC6C, symSize: 0x27C }
  - { offset: 0x771C1, size: 0x8, addend: 0x0, symName: __ZNSt3__17__stateIcEC1B8ne190107Ev, symObjAddr: 0x2BCA0, symBinAddr: 0x10009BEE8, symSize: 0x64 }
  - { offset: 0x771EB, size: 0x8, addend: 0x0, symName: __ZNSt3__17__stateIcED1Ev, symObjAddr: 0x2BD04, symBinAddr: 0x10009BF4C, symSize: 0x64 }
  - { offset: 0x77218, size: 0x8, addend: 0x0, symName: __ZNSt3__16vectorINS_7__stateIcEENS_9allocatorIS2_EEE4backB8ne190107Ev, symObjAddr: 0x2BD68, symBinAddr: 0x10009BFB0, symSize: 0x160 }
  - { offset: 0x7723E, size: 0x8, addend: 0x0, symName: __ZNSt3__16vectorINS_9sub_matchIPKcEENS_9allocatorIS4_EEE6resizeEmRKS4_, symObjAddr: 0x2BEC8, symBinAddr: 0x10009C110, symSize: 0x1F8 }
  - { offset: 0x77291, size: 0x8, addend: 0x0, symName: __ZNSt3__16vectorINS_4pairImPKcEENS_9allocatorIS4_EEE6resizeEm, symObjAddr: 0x2C0C0, symBinAddr: 0x10009C308, symSize: 0x1A8 }
  - { offset: 0x772D5, size: 0x8, addend: 0x0, symName: __ZNKSt3__111basic_regexIcNS_12regex_traitsIcEEE12__loop_countB8ne190107Ev, symObjAddr: 0x2C268, symBinAddr: 0x10009C4B0, symSize: 0xC4 }
  - { offset: 0x772FB, size: 0x8, addend: 0x0, symName: __ZNSt3__16vectorINS_7__stateIcEENS_9allocatorIS2_EEE8pop_backEv, symObjAddr: 0x2C3CC, symBinAddr: 0x10009C614, symSize: 0x134 }
  - { offset: 0x77321, size: 0x8, addend: 0x0, symName: __ZNSt3__16vectorINS_9sub_matchIPKcEENS_9allocatorIS4_EEEixB8ne190107Em, symObjAddr: 0x2C500, symBinAddr: 0x10009C748, symSize: 0x188 }
  - { offset: 0x7735C, size: 0x8, addend: 0x0, symName: __ZNSt3__17__stateIcEC1ERKS1_, symObjAddr: 0x2C844, symBinAddr: 0x10009CA8C, symSize: 0x6C }
  - { offset: 0x77392, size: 0x8, addend: 0x0, symName: __ZNKSt3__16vectorINS_7__stateIcEENS_9allocatorIS2_EEE5emptyB8ne190107Ev, symObjAddr: 0x2C950, symBinAddr: 0x10009CB98, symSize: 0xDC }
  - { offset: 0x773B8, size: 0x8, addend: 0x0, symName: __ZNSt3__16vectorINS_7__stateIcEENS_9allocatorIS2_EEED1B8ne190107Ev, symObjAddr: 0x2CA2C, symBinAddr: 0x10009CC74, symSize: 0x64 }
  - { offset: 0x773E2, size: 0x8, addend: 0x0, symName: __ZNSt3__16vectorINS_7__stateIcEENS_9allocatorIS2_EEEC2B8ne190107Ev, symObjAddr: 0x2CA90, symBinAddr: 0x10009CCD8, symSize: 0x2C4 }
  - { offset: 0x7740D, size: 0x8, addend: 0x0, symName: __ZNSt3__117__compressed_pairIPNS_7__stateIcEENS_9allocatorIS2_EEEC1B8ne190107IDnNS_18__default_init_tagEEEOT_OT0_, symObjAddr: 0x2CD54, symBinAddr: 0x10009CF9C, symSize: 0x74 }
  - { offset: 0x77465, size: 0x8, addend: 0x0, symName: __ZNSt3__117__compressed_pairIPNS_7__stateIcEENS_9allocatorIS2_EEEC2B8ne190107IDnNS_18__default_init_tagEEEOT_OT0_, symObjAddr: 0x2CDC8, symBinAddr: 0x10009D010, symSize: 0x104 }
  - { offset: 0x774BD, size: 0x8, addend: 0x0, symName: __ZNSt3__122__compressed_pair_elemIPNS_7__stateIcEELi0ELb0EEC2B8ne190107IDnTnNS_9enable_ifIXntsr7is_sameIS4_u7__decayIT_EEE5valueEiE4typeELi0EEEOS7_, symObjAddr: 0x2CECC, symBinAddr: 0x10009D114, symSize: 0xAC }
  - { offset: 0x77504, size: 0x8, addend: 0x0, symName: __ZNSt3__122__compressed_pair_elemINS_9allocatorINS_7__stateIcEEEELi1ELb1EEC2B8ne190107ENS_18__default_init_tagE, symObjAddr: 0x2CF78, symBinAddr: 0x10009D1C0, symSize: 0x70 }
  - { offset: 0x77539, size: 0x8, addend: 0x0, symName: __ZNSt3__19allocatorINS_7__stateIcEEEC2B8ne190107Ev, symObjAddr: 0x2CFE8, symBinAddr: 0x10009D230, symSize: 0x70 }
  - { offset: 0x77563, size: 0x8, addend: 0x0, symName: __ZNSt3__116__non_trivial_ifILb1ENS_9allocatorINS_7__stateIcEEEEEC2B8ne190107Ev, symObjAddr: 0x2D058, symBinAddr: 0x10009D2A0, symSize: 0x48 }
  - { offset: 0x7758D, size: 0x8, addend: 0x0, symName: __ZNSt3__16vectorINS_7__stateIcEENS_9allocatorIS2_EEE9__end_capB8ne190107Ev, symObjAddr: 0x2D0A0, symBinAddr: 0x10009D2E8, symSize: 0xD8 }
  - { offset: 0x775B9, size: 0x8, addend: 0x0, symName: __ZNSt3__16vectorINS_7__stateIcEENS_9allocatorIS2_EEE22__construct_one_at_endB8ne190107IJS2_EEEvDpOT_, symObjAddr: 0x2D178, symBinAddr: 0x10009D3C0, symSize: 0x440 }
  - { offset: 0x7760E, size: 0x8, addend: 0x0, symName: __ZNSt3__16vectorINS_7__stateIcEENS_9allocatorIS2_EEE21__push_back_slow_pathIS2_EEPS2_OT_, symObjAddr: 0x2D5B8, symBinAddr: 0x10009D800, symSize: 0x4E4 }
  - { offset: 0x77671, size: 0x8, addend: 0x0, symName: __ZNSt3__117__compressed_pairIPNS_7__stateIcEENS_9allocatorIS2_EEE5firstB8ne190107Ev, symObjAddr: 0x2DA9C, symBinAddr: 0x10009DCE4, symSize: 0xEC }
  - { offset: 0x77697, size: 0x8, addend: 0x0, symName: __ZNSt3__122__compressed_pair_elemIPNS_7__stateIcEELi0ELb0EE5__getB8ne190107Ev, symObjAddr: 0x2DB88, symBinAddr: 0x10009DDD0, symSize: 0x8C }
  - { offset: 0x776D8, size: 0x8, addend: 0x0, symName: __ZNSt3__16vectorINS_7__stateIcEENS_9allocatorIS2_EEE21_ConstructTransactionC1B8ne190107ERS5_m, symObjAddr: 0x2DC14, symBinAddr: 0x10009DE5C, symSize: 0x74 }
  - { offset: 0x77720, size: 0x8, addend: 0x0, symName: __ZNSt3__116allocator_traitsINS_9allocatorINS_7__stateIcEEEEE9constructB8ne190107IS3_JS3_EvTnNS_9enable_ifIXntsr15__has_constructIS4_PT_DpT0_EE5valueEiE4typeELi0EEEvRS4_S9_DpOSA_, symObjAddr: 0x2DC90, symBinAddr: 0x10009DED8, symSize: 0x70 }
  - { offset: 0x7777A, size: 0x8, addend: 0x0, symName: __ZNSt3__16vectorINS_7__stateIcEENS_9allocatorIS2_EEE7__allocB8ne190107Ev, symObjAddr: 0x2DD00, symBinAddr: 0x10009DF48, symSize: 0xC4 }
  - { offset: 0x777A0, size: 0x8, addend: 0x0, symName: __ZNSt3__16vectorINS_7__stateIcEENS_9allocatorIS2_EEE21_ConstructTransactionD1B8ne190107Ev, symObjAddr: 0x2DDE0, symBinAddr: 0x10009E028, symSize: 0x64 }
  - { offset: 0x777CA, size: 0x8, addend: 0x0, symName: __ZNSt3__16vectorINS_7__stateIcEENS_9allocatorIS2_EEE21_ConstructTransactionC2B8ne190107ERS5_m, symObjAddr: 0x2DE44, symBinAddr: 0x10009E08C, symSize: 0x354 }
  - { offset: 0x77812, size: 0x8, addend: 0x0, symName: __ZNKSt3__16vectorINS_7__stateIcEENS_9allocatorIS2_EEE19__annotate_increaseB8ne190107Em, symObjAddr: 0x2E198, symBinAddr: 0x10009E3E0, symSize: 0x2C8 }
  - { offset: 0x77847, size: 0x8, addend: 0x0, symName: __ZNKSt3__16vectorINS_7__stateIcEENS_9allocatorIS2_EEE31__annotate_contiguous_containerB8ne190107EPKvS7_, symObjAddr: 0x2E460, symBinAddr: 0x10009E6A8, symSize: 0x14C }
  - { offset: 0x7788B, size: 0x8, addend: 0x0, symName: __ZNKSt3__16vectorINS_7__stateIcEENS_9allocatorIS2_EEE4dataB8ne190107Ev, symObjAddr: 0x2E5AC, symBinAddr: 0x10009E7F4, symSize: 0xA0 }
  - { offset: 0x778B1, size: 0x8, addend: 0x0, symName: __ZNKSt3__16vectorINS_7__stateIcEENS_9allocatorIS2_EEE4sizeB8ne190107Ev, symObjAddr: 0x2E64C, symBinAddr: 0x10009E894, symSize: 0xE0 }
  - { offset: 0x778D7, size: 0x8, addend: 0x0, symName: __ZNKSt3__16vectorINS_7__stateIcEENS_9allocatorIS2_EEE8capacityB8ne190107Ev, symObjAddr: 0x2E780, symBinAddr: 0x10009E9C8, symSize: 0x124 }
  - { offset: 0x778FD, size: 0x8, addend: 0x0, symName: __ZNKSt3__16vectorINS_7__stateIcEENS_9allocatorIS2_EEE9__end_capB8ne190107Ev, symObjAddr: 0x2E8A4, symBinAddr: 0x10009EAEC, symSize: 0xD8 }
  - { offset: 0x77923, size: 0x8, addend: 0x0, symName: __ZNKSt3__117__compressed_pairIPNS_7__stateIcEENS_9allocatorIS2_EEE5firstB8ne190107Ev, symObjAddr: 0x2E97C, symBinAddr: 0x10009EBC4, symSize: 0xEC }
  - { offset: 0x77949, size: 0x8, addend: 0x0, symName: __ZNKSt3__122__compressed_pair_elemIPNS_7__stateIcEELi0ELb0EE5__getB8ne190107Ev, symObjAddr: 0x2EA68, symBinAddr: 0x10009ECB0, symSize: 0x8C }
  - { offset: 0x7796F, size: 0x8, addend: 0x0, symName: __ZNSt3__17__stateIcEC1EOS1_, symObjAddr: 0x2EC50, symBinAddr: 0x10009EE98, symSize: 0x6C }
  - { offset: 0x779A5, size: 0x8, addend: 0x0, symName: __ZNSt3__17__stateIcEC2EOS1_, symObjAddr: 0x2ECBC, symBinAddr: 0x10009EF04, symSize: 0x1B0 }
  - { offset: 0x779DB, size: 0x8, addend: 0x0, symName: __ZNSt3__16vectorINS_9sub_matchIPKcEENS_9allocatorIS4_EEEC1B8ne190107EOS7_, symObjAddr: 0x2EE6C, symBinAddr: 0x10009F0B4, symSize: 0x6C }
  - { offset: 0x77A14, size: 0x8, addend: 0x0, symName: __ZNSt3__16vectorINS_4pairImPKcEENS_9allocatorIS4_EEEC1B8ne190107EOS7_, symObjAddr: 0x2EED8, symBinAddr: 0x10009F120, symSize: 0x6C }
  - { offset: 0x77A4D, size: 0x8, addend: 0x0, symName: __ZNSt3__16vectorINS_9sub_matchIPKcEENS_9allocatorIS4_EEEC2B8ne190107EOS7_, symObjAddr: 0x2EF44, symBinAddr: 0x10009F18C, symSize: 0x690 }
  - { offset: 0x77A8E, size: 0x8, addend: 0x0, symName: __ZNSt3__117__compressed_pairIPNS_9sub_matchIPKcEENS_9allocatorIS4_EEEC1B8ne190107IDnS7_EEOT_OT0_, symObjAddr: 0x2F5D4, symBinAddr: 0x10009F81C, symSize: 0x74 }
  - { offset: 0x77AE6, size: 0x8, addend: 0x0, symName: __ZNSt3__16vectorINS_9sub_matchIPKcEENS_9allocatorIS4_EEE9__end_capB8ne190107Ev, symObjAddr: 0x2F648, symBinAddr: 0x10009F890, symSize: 0xD8 }
  - { offset: 0x77B0C, size: 0x8, addend: 0x0, symName: __ZNSt3__117__compressed_pairIPNS_9sub_matchIPKcEENS_9allocatorIS4_EEEC2B8ne190107IDnS7_EEOT_OT0_, symObjAddr: 0x2F720, symBinAddr: 0x10009F968, symSize: 0x12C }
  - { offset: 0x77B64, size: 0x8, addend: 0x0, symName: __ZNSt3__122__compressed_pair_elemINS_9allocatorINS_9sub_matchIPKcEEEELi1ELb1EEC2B8ne190107IS6_TnNS_9enable_ifIXntsr7is_sameIS7_u7__decayIT_EEE5valueEiE4typeELi0EEEOSA_, symObjAddr: 0x2F84C, symBinAddr: 0x10009FA94, symSize: 0x4C }
  - { offset: 0x77BAB, size: 0x8, addend: 0x0, symName: __ZNSt3__117__compressed_pairIPNS_9sub_matchIPKcEENS_9allocatorIS4_EEE5firstB8ne190107Ev, symObjAddr: 0x2F898, symBinAddr: 0x10009FAE0, symSize: 0xEC }
  - { offset: 0x77BD1, size: 0x8, addend: 0x0, symName: __ZNSt3__122__compressed_pair_elemIPNS_9sub_matchIPKcEELi0ELb0EE5__getB8ne190107Ev, symObjAddr: 0x2F984, symBinAddr: 0x10009FBCC, symSize: 0x8C }
  - { offset: 0x77BF7, size: 0x8, addend: 0x0, symName: __ZNSt3__16vectorINS_4pairImPKcEENS_9allocatorIS4_EEEC2B8ne190107EOS7_, symObjAddr: 0x2FA10, symBinAddr: 0x10009FC58, symSize: 0x690 }
  - { offset: 0x77C32, size: 0x8, addend: 0x0, symName: __ZNSt3__16vectorINS_4pairImPKcEENS_9allocatorIS4_EEE7__allocB8ne190107Ev, symObjAddr: 0x300A0, symBinAddr: 0x1000A02E8, symSize: 0xC4 }
  - { offset: 0x77C5E, size: 0x8, addend: 0x0, symName: __ZNSt3__117__compressed_pairIPNS_4pairImPKcEENS_9allocatorIS4_EEEC1B8ne190107IDnS7_EEOT_OT0_, symObjAddr: 0x30164, symBinAddr: 0x1000A03AC, symSize: 0x74 }
  - { offset: 0x77CB6, size: 0x8, addend: 0x0, symName: __ZNSt3__16vectorINS_4pairImPKcEENS_9allocatorIS4_EEE9__end_capB8ne190107Ev, symObjAddr: 0x301D8, symBinAddr: 0x1000A0420, symSize: 0xD8 }
  - { offset: 0x77CDC, size: 0x8, addend: 0x0, symName: __ZNSt3__117__compressed_pairIPNS_4pairImPKcEENS_9allocatorIS4_EEE6secondB8ne190107Ev, symObjAddr: 0x302B0, symBinAddr: 0x1000A04F8, symSize: 0xC4 }
  - { offset: 0x77D02, size: 0x8, addend: 0x0, symName: __ZNSt3__122__compressed_pair_elemINS_9allocatorINS_4pairImPKcEEEELi1ELb1EE5__getB8ne190107Ev, symObjAddr: 0x30374, symBinAddr: 0x1000A05BC, symSize: 0x64 }
  - { offset: 0x77D28, size: 0x8, addend: 0x0, symName: __ZNSt3__117__compressed_pairIPNS_4pairImPKcEENS_9allocatorIS4_EEEC2B8ne190107IDnS7_EEOT_OT0_, symObjAddr: 0x303D8, symBinAddr: 0x1000A0620, symSize: 0x12C }
  - { offset: 0x77D80, size: 0x8, addend: 0x0, symName: __ZNSt3__122__compressed_pair_elemIPNS_4pairImPKcEELi0ELb0EEC2B8ne190107IDnTnNS_9enable_ifIXntsr7is_sameIS6_u7__decayIT_EEE5valueEiE4typeELi0EEEOS9_, symObjAddr: 0x30504, symBinAddr: 0x1000A074C, symSize: 0xAC }
  - { offset: 0x77DC7, size: 0x8, addend: 0x0, symName: __ZNSt3__122__compressed_pair_elemINS_9allocatorINS_4pairImPKcEEEELi1ELb1EEC2B8ne190107IS6_TnNS_9enable_ifIXntsr7is_sameIS7_u7__decayIT_EEE5valueEiE4typeELi0EEEOSA_, symObjAddr: 0x305B0, symBinAddr: 0x1000A07F8, symSize: 0x4C }
  - { offset: 0x77E0E, size: 0x8, addend: 0x0, symName: __ZNSt3__117__compressed_pairIPNS_4pairImPKcEENS_9allocatorIS4_EEE5firstB8ne190107Ev, symObjAddr: 0x305FC, symBinAddr: 0x1000A0844, symSize: 0xEC }
  - { offset: 0x77E34, size: 0x8, addend: 0x0, symName: __ZNSt3__122__compressed_pair_elemIPNS_4pairImPKcEELi0ELb0EE5__getB8ne190107Ev, symObjAddr: 0x306E8, symBinAddr: 0x1000A0930, symSize: 0x8C }
  - { offset: 0x77E5A, size: 0x8, addend: 0x0, symName: __ZNSt3__117__compressed_pairIPNS_7__stateIcEENS_9allocatorIS2_EEE6secondB8ne190107Ev, symObjAddr: 0x30774, symBinAddr: 0x1000A09BC, symSize: 0xC4 }
  - { offset: 0x77E80, size: 0x8, addend: 0x0, symName: __ZNSt3__122__compressed_pair_elemINS_9allocatorINS_7__stateIcEEEELi1ELb1EE5__getB8ne190107Ev, symObjAddr: 0x30838, symBinAddr: 0x1000A0A80, symSize: 0x64 }
  - { offset: 0x77EA6, size: 0x8, addend: 0x0, symName: __ZNSt3__16vectorINS_7__stateIcEENS_9allocatorIS2_EEE21_ConstructTransactionD2B8ne190107Ev, symObjAddr: 0x3089C, symBinAddr: 0x1000A0AE4, symSize: 0x31C }
  - { offset: 0x77ED0, size: 0x8, addend: 0x0, symName: __ZNKSt3__16vectorINS_7__stateIcEENS_9allocatorIS2_EEE17__annotate_shrinkB8ne190107Em, symObjAddr: 0x30BB8, symBinAddr: 0x1000A0E00, symSize: 0x200 }
  - { offset: 0x77F05, size: 0x8, addend: 0x0, symName: __ZNKSt3__16vectorINS_7__stateIcEENS_9allocatorIS2_EEE11__recommendB8ne190107Em, symObjAddr: 0x30DB8, symBinAddr: 0x1000A1000, symSize: 0x378 }
  - { offset: 0x77F5F, size: 0x8, addend: 0x0, symName: __ZNSt3__114__split_bufferINS_7__stateIcEERNS_9allocatorIS2_EEEC1EmmS5_, symObjAddr: 0x31130, symBinAddr: 0x1000A1378, symSize: 0x7C }
  - { offset: 0x77FB3, size: 0x8, addend: 0x0, symName: __ZNSt3__16vectorINS_7__stateIcEENS_9allocatorIS2_EEE26__swap_out_circular_bufferERNS_14__split_bufferIS2_RS4_EE, symObjAddr: 0x311AC, symBinAddr: 0x1000A13F4, symSize: 0x660 }
  - { offset: 0x77FF7, size: 0x8, addend: 0x0, symName: __ZNSt3__114__split_bufferINS_7__stateIcEERNS_9allocatorIS2_EEED1Ev, symObjAddr: 0x3180C, symBinAddr: 0x1000A1A54, symSize: 0x64 }
  - { offset: 0x78021, size: 0x8, addend: 0x0, symName: __ZNKSt3__16vectorINS_7__stateIcEENS_9allocatorIS2_EEE8max_sizeEv, symObjAddr: 0x31870, symBinAddr: 0x1000A1AB8, symSize: 0x2FC }
  - { offset: 0x78048, size: 0x8, addend: 0x0, symName: __ZNKSt3__16vectorINS_7__stateIcEENS_9allocatorIS2_EEE20__throw_length_errorB8ne190107Ev, symObjAddr: 0x31B6C, symBinAddr: 0x1000A1DB4, symSize: 0x74 }
  - { offset: 0x78079, size: 0x8, addend: 0x0, symName: __ZNSt3__116allocator_traitsINS_9allocatorINS_7__stateIcEEEEE8max_sizeB8ne190107IS4_vTnNS_9enable_ifIXntsr14__has_max_sizeIKT_EE5valueEiE4typeELi0EEEmRKS4_, symObjAddr: 0x31CC4, symBinAddr: 0x1000A1F0C, symSize: 0x54 }
  - { offset: 0x780AA, size: 0x8, addend: 0x0, symName: __ZNKSt3__16vectorINS_7__stateIcEENS_9allocatorIS2_EEE7__allocB8ne190107Ev, symObjAddr: 0x31D18, symBinAddr: 0x1000A1F60, symSize: 0xC4 }
  - { offset: 0x780D0, size: 0x8, addend: 0x0, symName: __ZNKSt3__117__compressed_pairIPNS_7__stateIcEENS_9allocatorIS2_EEE6secondB8ne190107Ev, symObjAddr: 0x31DDC, symBinAddr: 0x1000A2024, symSize: 0xC4 }
  - { offset: 0x780F6, size: 0x8, addend: 0x0, symName: __ZNKSt3__122__compressed_pair_elemINS_9allocatorINS_7__stateIcEEEELi1ELb1EE5__getB8ne190107Ev, symObjAddr: 0x31EA0, symBinAddr: 0x1000A20E8, symSize: 0x64 }
  - { offset: 0x7811C, size: 0x8, addend: 0x0, symName: __ZNSt3__114__split_bufferINS_7__stateIcEERNS_9allocatorIS2_EEEC2EmmS5_, symObjAddr: 0x3217C, symBinAddr: 0x1000A23C4, symSize: 0x630 }
  - { offset: 0x78195, size: 0x8, addend: 0x0, symName: __ZNSt3__117__compressed_pairIPNS_7__stateIcEERNS_9allocatorIS2_EEEC1B8ne190107IDnS6_EEOT_OT0_, symObjAddr: 0x327AC, symBinAddr: 0x1000A29F4, symSize: 0x74 }
  - { offset: 0x781ED, size: 0x8, addend: 0x0, symName: __ZNSt3__114__split_bufferINS_7__stateIcEERNS_9allocatorIS2_EEE7__allocB8ne190107Ev, symObjAddr: 0x32868, symBinAddr: 0x1000A2AB0, symSize: 0xC4 }
  - { offset: 0x78213, size: 0x8, addend: 0x0, symName: __ZNSt3__114__split_bufferINS_7__stateIcEERNS_9allocatorIS2_EEE9__end_capB8ne190107Ev, symObjAddr: 0x3292C, symBinAddr: 0x1000A2B74, symSize: 0xD8 }
  - { offset: 0x78239, size: 0x8, addend: 0x0, symName: __ZNSt3__117__compressed_pairIPNS_7__stateIcEERNS_9allocatorIS2_EEEC2B8ne190107IDnS6_EEOT_OT0_, symObjAddr: 0x32A04, symBinAddr: 0x1000A2C4C, symSize: 0x154 }
  - { offset: 0x78291, size: 0x8, addend: 0x0, symName: __ZNSt3__122__compressed_pair_elemIRNS_9allocatorINS_7__stateIcEEEELi1ELb0EEC2B8ne190107IS5_TnNS_9enable_ifIXntsr7is_sameIS6_u7__decayIT_EEE5valueEiE4typeELi0EEEOS9_, symObjAddr: 0x32B58, symBinAddr: 0x1000A2DA0, symSize: 0xD4 }
  - { offset: 0x782D8, size: 0x8, addend: 0x0, symName: __ZNSt3__19allocatorINS_7__stateIcEEE8allocateB8ne190107Em, symObjAddr: 0x32C2C, symBinAddr: 0x1000A2E74, symSize: 0xBC }
  - { offset: 0x7830C, size: 0x8, addend: 0x0, symName: __ZNSt3__117__compressed_pairIPNS_7__stateIcEERNS_9allocatorIS2_EEE6secondB8ne190107Ev, symObjAddr: 0x32CE8, symBinAddr: 0x1000A2F30, symSize: 0xE8 }
  - { offset: 0x78332, size: 0x8, addend: 0x0, symName: __ZNSt3__122__compressed_pair_elemIRNS_9allocatorINS_7__stateIcEEEELi1ELb0EE5__getB8ne190107Ev, symObjAddr: 0x32DD0, symBinAddr: 0x1000A3018, symSize: 0xC0 }
  - { offset: 0x78358, size: 0x8, addend: 0x0, symName: __ZNSt3__117__compressed_pairIPNS_7__stateIcEERNS_9allocatorIS2_EEE5firstB8ne190107Ev, symObjAddr: 0x32E90, symBinAddr: 0x1000A30D8, symSize: 0xEC }
  - { offset: 0x7837E, size: 0x8, addend: 0x0, symName: __ZNKSt3__16vectorINS_7__stateIcEENS_9allocatorIS2_EEE17__annotate_deleteB8ne190107Ev, symObjAddr: 0x32F7C, symBinAddr: 0x1000A31C4, symSize: 0x210 }
  - { offset: 0x783A4, size: 0x8, addend: 0x0, symName: __ZNKSt3__16vectorINS_7__stateIcEENS_9allocatorIS2_EEE14__annotate_newB8ne190107Em, symObjAddr: 0x33878, symBinAddr: 0x1000A3AC0, symSize: 0x200 }
  - { offset: 0x783D9, size: 0x8, addend: 0x0, symName: __ZNSt3__129_AllocatorDestroyRangeReverseINS_9allocatorINS_7__stateIcEEEEPS3_EC1B8ne190107ERS4_RS5_S8_, symObjAddr: 0x33C84, symBinAddr: 0x1000A3ECC, symSize: 0x7C }
  - { offset: 0x78430, size: 0x8, addend: 0x0, symName: __ZNSt3__128__exception_guard_exceptionsINS_29_AllocatorDestroyRangeReverseINS_9allocatorINS_7__stateIcEEEEPS4_EEE10__completeB8ne190107Ev, symObjAddr: 0x33D00, symBinAddr: 0x1000A3F48, symSize: 0xC4 }
  - { offset: 0x78456, size: 0x8, addend: 0x0, symName: __ZNSt3__128__exception_guard_exceptionsINS_29_AllocatorDestroyRangeReverseINS_9allocatorINS_7__stateIcEEEEPS4_EEED1B8ne190107Ev, symObjAddr: 0x33EC0, symBinAddr: 0x1000A4108, symSize: 0x64 }
  - { offset: 0x78480, size: 0x8, addend: 0x0, symName: __ZNSt3__128__exception_guard_exceptionsINS_29_AllocatorDestroyRangeReverseINS_9allocatorINS_7__stateIcEEEEPS4_EEEC1B8ne190107ES7_, symObjAddr: 0x33F24, symBinAddr: 0x1000A416C, symSize: 0x70 }
  - { offset: 0x784B9, size: 0x8, addend: 0x0, symName: __ZNSt3__128__exception_guard_exceptionsINS_29_AllocatorDestroyRangeReverseINS_9allocatorINS_7__stateIcEEEEPS4_EEEC2B8ne190107ES7_, symObjAddr: 0x33F94, symBinAddr: 0x1000A41DC, symSize: 0xE4 }
  - { offset: 0x784F2, size: 0x8, addend: 0x0, symName: __ZNSt3__129_AllocatorDestroyRangeReverseINS_9allocatorINS_7__stateIcEEEEPS3_EC2B8ne190107ERS4_RS5_S8_, symObjAddr: 0x34078, symBinAddr: 0x1000A42C0, symSize: 0x1C4 }
  - { offset: 0x78549, size: 0x8, addend: 0x0, symName: __ZNSt3__116allocator_traitsINS_9allocatorINS_7__stateIcEEEEE7destroyB8ne190107IS3_vTnNS_9enable_ifIXntsr13__has_destroyIS4_PT_EE5valueEiE4typeELi0EEEvRS4_S9_, symObjAddr: 0x34244, symBinAddr: 0x1000A448C, symSize: 0x28 }
  - { offset: 0x78589, size: 0x8, addend: 0x0, symName: __ZNSt3__128__exception_guard_exceptionsINS_29_AllocatorDestroyRangeReverseINS_9allocatorINS_7__stateIcEEEEPS4_EEED2B8ne190107Ev, symObjAddr: 0x342D0, symBinAddr: 0x1000A4518, symSize: 0x158 }
  - { offset: 0x785B3, size: 0x8, addend: 0x0, symName: __ZNKSt3__129_AllocatorDestroyRangeReverseINS_9allocatorINS_7__stateIcEEEEPS3_EclB8ne190107Ev, symObjAddr: 0x34428, symBinAddr: 0x1000A4670, symSize: 0x33C }
  - { offset: 0x785DA, size: 0x8, addend: 0x0, symName: __ZNSt3__116reverse_iteratorIPNS_7__stateIcEEEC1B8ne190107ES3_, symObjAddr: 0x349B0, symBinAddr: 0x1000A4BF8, symSize: 0x6C }
  - { offset: 0x78612, size: 0x8, addend: 0x0, symName: __ZNSt3__116reverse_iteratorIPNS_7__stateIcEEEppB8ne190107Ev, symObjAddr: 0x34B18, symBinAddr: 0x1000A4D60, symSize: 0x180 }
  - { offset: 0x78638, size: 0x8, addend: 0x0, symName: __ZNKSt3__116reverse_iteratorIPNS_7__stateIcEEE4baseB8ne190107Ev, symObjAddr: 0x34C98, symBinAddr: 0x1000A4EE0, symSize: 0xA0 }
  - { offset: 0x78664, size: 0x8, addend: 0x0, symName: __ZNSt3__119__to_address_helperINS_16reverse_iteratorIPNS_7__stateIcEEEEvE6__callB8ne190107ERKS5_, symObjAddr: 0x34D40, symBinAddr: 0x1000A4F88, symSize: 0x6C }
  - { offset: 0x78687, size: 0x8, addend: 0x0, symName: __ZNKSt3__116reverse_iteratorIPNS_7__stateIcEEEptB8ne190107EvQoo12is_pointer_vIT_ErQS5__XcldtfpK_onptEE, symObjAddr: 0x34DAC, symBinAddr: 0x1000A4FF4, symSize: 0xA8 }
  - { offset: 0x786AD, size: 0x8, addend: 0x0, symName: __ZNSt3__116reverse_iteratorIPNS_7__stateIcEEEC2B8ne190107ES3_, symObjAddr: 0x35228, symBinAddr: 0x1000A5470, symSize: 0xF4 }
  - { offset: 0x786E5, size: 0x8, addend: 0x0, symName: __ZNSt3__114__split_bufferINS_7__stateIcEERNS_9allocatorIS2_EEED2Ev, symObjAddr: 0x3531C, symBinAddr: 0x1000A5564, symSize: 0x144 }
  - { offset: 0x7870F, size: 0x8, addend: 0x0, symName: __ZNSt3__114__split_bufferINS_7__stateIcEERNS_9allocatorIS2_EEE5clearB8ne190107Ev, symObjAddr: 0x35460, symBinAddr: 0x1000A56A8, symSize: 0xA4 }
  - { offset: 0x78735, size: 0x8, addend: 0x0, symName: __ZNSt3__116allocator_traitsINS_9allocatorINS_7__stateIcEEEEE10deallocateB8ne190107ERS4_PS3_m, symObjAddr: 0x3550C, symBinAddr: 0x1000A5754, symSize: 0x34 }
  - { offset: 0x78777, size: 0x8, addend: 0x0, symName: __ZNKSt3__114__split_bufferINS_7__stateIcEERNS_9allocatorIS2_EEE8capacityB8ne190107Ev, symObjAddr: 0x35540, symBinAddr: 0x1000A5788, symSize: 0x124 }
  - { offset: 0x7879D, size: 0x8, addend: 0x0, symName: __ZNSt3__114__split_bufferINS_7__stateIcEERNS_9allocatorIS2_EEE17__destruct_at_endB8ne190107EPS2_, symObjAddr: 0x35664, symBinAddr: 0x1000A58AC, symSize: 0x64 }
  - { offset: 0x787D1, size: 0x8, addend: 0x0, symName: __ZNSt3__114__split_bufferINS_7__stateIcEERNS_9allocatorIS2_EEE17__destruct_at_endB8ne190107EPS2_NS_17integral_constantIbLb0EEE, symObjAddr: 0x356C8, symBinAddr: 0x1000A5910, symSize: 0x1E8 }
  - { offset: 0x78810, size: 0x8, addend: 0x0, symName: __ZNSt3__19allocatorINS_7__stateIcEEE10deallocateB8ne190107EPS2_m, symObjAddr: 0x358B0, symBinAddr: 0x1000A5AF8, symSize: 0x74 }
  - { offset: 0x78852, size: 0x8, addend: 0x0, symName: __ZNKSt3__114__split_bufferINS_7__stateIcEERNS_9allocatorIS2_EEE9__end_capB8ne190107Ev, symObjAddr: 0x35924, symBinAddr: 0x1000A5B6C, symSize: 0xD8 }
  - { offset: 0x78878, size: 0x8, addend: 0x0, symName: __ZNKSt3__117__compressed_pairIPNS_7__stateIcEERNS_9allocatorIS2_EEE5firstB8ne190107Ev, symObjAddr: 0x359FC, symBinAddr: 0x1000A5C44, symSize: 0xEC }
  - { offset: 0x7889E, size: 0x8, addend: 0x0, symName: __ZNSt3__17__stateIcEC2B8ne190107Ev, symObjAddr: 0x35AE8, symBinAddr: 0x1000A5D30, symSize: 0x248 }
  - { offset: 0x788C8, size: 0x8, addend: 0x0, symName: __ZNSt3__16vectorINS_9sub_matchIPKcEENS_9allocatorIS4_EEEC1B8ne190107Ev, symObjAddr: 0x35D30, symBinAddr: 0x1000A5F78, symSize: 0x64 }
  - { offset: 0x788F2, size: 0x8, addend: 0x0, symName: __ZNSt3__16vectorINS_4pairImPKcEENS_9allocatorIS4_EEEC1B8ne190107Ev, symObjAddr: 0x35D94, symBinAddr: 0x1000A5FDC, symSize: 0x64 }
  - { offset: 0x7891C, size: 0x8, addend: 0x0, symName: __ZNSt3__16vectorINS_9sub_matchIPKcEENS_9allocatorIS4_EEEC2B8ne190107Ev, symObjAddr: 0x35DF8, symBinAddr: 0x1000A6040, symSize: 0x2C4 }
  - { offset: 0x78947, size: 0x8, addend: 0x0, symName: __ZNSt3__117__compressed_pairIPNS_9sub_matchIPKcEENS_9allocatorIS4_EEEC1B8ne190107IDnNS_18__default_init_tagEEEOT_OT0_, symObjAddr: 0x360BC, symBinAddr: 0x1000A6304, symSize: 0x74 }
  - { offset: 0x7899F, size: 0x8, addend: 0x0, symName: __ZNSt3__117__compressed_pairIPNS_9sub_matchIPKcEENS_9allocatorIS4_EEEC2B8ne190107IDnNS_18__default_init_tagEEEOT_OT0_, symObjAddr: 0x36130, symBinAddr: 0x1000A6378, symSize: 0x104 }
  - { offset: 0x789F7, size: 0x8, addend: 0x0, symName: __ZNSt3__122__compressed_pair_elemINS_9allocatorINS_9sub_matchIPKcEEEELi1ELb1EEC2B8ne190107ENS_18__default_init_tagE, symObjAddr: 0x36234, symBinAddr: 0x1000A647C, symSize: 0x70 }
  - { offset: 0x78A2C, size: 0x8, addend: 0x0, symName: __ZNSt3__16vectorINS_4pairImPKcEENS_9allocatorIS4_EEEC2B8ne190107Ev, symObjAddr: 0x362A4, symBinAddr: 0x1000A64EC, symSize: 0x2C4 }
  - { offset: 0x78A57, size: 0x8, addend: 0x0, symName: __ZNSt3__117__compressed_pairIPNS_4pairImPKcEENS_9allocatorIS4_EEEC1B8ne190107IDnNS_18__default_init_tagEEEOT_OT0_, symObjAddr: 0x36568, symBinAddr: 0x1000A67B0, symSize: 0x74 }
  - { offset: 0x78AAF, size: 0x8, addend: 0x0, symName: __ZNSt3__117__compressed_pairIPNS_4pairImPKcEENS_9allocatorIS4_EEEC2B8ne190107IDnNS_18__default_init_tagEEEOT_OT0_, symObjAddr: 0x365DC, symBinAddr: 0x1000A6824, symSize: 0x104 }
  - { offset: 0x78B07, size: 0x8, addend: 0x0, symName: __ZNSt3__122__compressed_pair_elemINS_9allocatorINS_4pairImPKcEEEELi1ELb1EEC2B8ne190107ENS_18__default_init_tagE, symObjAddr: 0x366E0, symBinAddr: 0x1000A6928, symSize: 0x70 }
  - { offset: 0x78B3C, size: 0x8, addend: 0x0, symName: __ZNSt3__19allocatorINS_4pairImPKcEEEC2B8ne190107Ev, symObjAddr: 0x36750, symBinAddr: 0x1000A6998, symSize: 0x70 }
  - { offset: 0x78B66, size: 0x8, addend: 0x0, symName: __ZNSt3__116__non_trivial_ifILb1ENS_9allocatorINS_4pairImPKcEEEEEC2B8ne190107Ev, symObjAddr: 0x367C0, symBinAddr: 0x1000A6A08, symSize: 0x48 }
  - { offset: 0x78B90, size: 0x8, addend: 0x0, symName: __ZNSt3__17__stateIcED2Ev, symObjAddr: 0x36808, symBinAddr: 0x1000A6A50, symSize: 0x74 }
  - { offset: 0x78BBD, size: 0x8, addend: 0x0, symName: __ZNSt3__16vectorINS_4pairImPKcEENS_9allocatorIS4_EEED1B8ne190107Ev, symObjAddr: 0x3687C, symBinAddr: 0x1000A6AC4, symSize: 0x64 }
  - { offset: 0x78BE7, size: 0x8, addend: 0x0, symName: __ZNSt3__16vectorINS_4pairImPKcEENS_9allocatorIS4_EEED2B8ne190107Ev, symObjAddr: 0x368E0, symBinAddr: 0x1000A6B28, symSize: 0x254 }
  - { offset: 0x78C12, size: 0x8, addend: 0x0, symName: __ZNSt3__16vectorINS_4pairImPKcEENS_9allocatorIS4_EEE16__destroy_vectorC1B8ne190107ERS7_, symObjAddr: 0x36B34, symBinAddr: 0x1000A6D7C, symSize: 0x6C }
  - { offset: 0x78C4B, size: 0x8, addend: 0x0, symName: __ZNSt3__16vectorINS_4pairImPKcEENS_9allocatorIS4_EEE16__destroy_vectorclB8ne190107Ev, symObjAddr: 0x36BA0, symBinAddr: 0x1000A6DE8, symSize: 0x39C }
  - { offset: 0x78C71, size: 0x8, addend: 0x0, symName: __ZNSt3__16vectorINS_4pairImPKcEENS_9allocatorIS4_EEE16__destroy_vectorC2B8ne190107ERS7_, symObjAddr: 0x36F3C, symBinAddr: 0x1000A7184, symSize: 0xE8 }
  - { offset: 0x78CAA, size: 0x8, addend: 0x0, symName: __ZNSt3__16vectorINS_4pairImPKcEENS_9allocatorIS4_EEE7__clearB8ne190107Ev, symObjAddr: 0x37024, symBinAddr: 0x1000A726C, symSize: 0xA0 }
  - { offset: 0x78CD0, size: 0x8, addend: 0x0, symName: __ZNKSt3__16vectorINS_4pairImPKcEENS_9allocatorIS4_EEE17__annotate_deleteB8ne190107Ev, symObjAddr: 0x370C4, symBinAddr: 0x1000A730C, symSize: 0x200 }
  - { offset: 0x78CF6, size: 0x8, addend: 0x0, symName: __ZNSt3__116allocator_traitsINS_9allocatorINS_4pairImPKcEEEEE10deallocateB8ne190107ERS6_PS5_m, symObjAddr: 0x372CC, symBinAddr: 0x1000A7514, symSize: 0x34 }
  - { offset: 0x78D38, size: 0x8, addend: 0x0, symName: __ZNKSt3__16vectorINS_4pairImPKcEENS_9allocatorIS4_EEE8capacityB8ne190107Ev, symObjAddr: 0x37300, symBinAddr: 0x1000A7548, symSize: 0x124 }
  - { offset: 0x78D5E, size: 0x8, addend: 0x0, symName: __ZNSt3__16vectorINS_4pairImPKcEENS_9allocatorIS4_EEE22__base_destruct_at_endB8ne190107EPS4_, symObjAddr: 0x37424, symBinAddr: 0x1000A766C, symSize: 0x1C8 }
